
output/_mips.MIPSI.elf:     file format elf32-littlemips


Disassembly of section .text:

40000000 <mips_startup>:
40000000:	3c1d4400 	lui	sp,0x4400
40000004:	0c000008 	jal	40000020 <main>
40000008:	27bd0000 	addiu	sp,sp,0

4000000c <__end_loop>:
	...
40000018:	1000fffc 	b	4000000c <__end_loop>
4000001c:	00000000 	nop

40000020 <main>:
40000020:	27bdfe60 	addiu	sp,sp,-416
40000024:	afbf019c 	sw	ra,412(sp)
40000028:	afb10198 	sw	s1,408(sp)
4000002c:	afb00194 	sw	s0,404(sp)
40000030:	24020000 	li	v0,0
40000034:	24030040 	li	v1,64
40000038:	14430204 	bne	v0,v1,4000084c <main+0x82c>
4000003c:	00000000 	nop
40000040:	24020000 	li	v0,0
40000044:	2843001c 	slti	v1,v0,28
40000048:	14600207 	bnez	v1,40000868 <main+0x848>
4000004c:	00000000 	nop
40000050:	24020000 	li	v0,0
40000054:	24030002 	li	v1,2
40000058:	10430008 	beq	v0,v1,4000007c <main+0x5c>
4000005c:	00000000 	nop
40000060:	27a30114 	addiu	v1,sp,276
40000064:	00022080 	sll	a0,v0,0x2
40000068:	24420001 	addiu	v0,v0,1
4000006c:	00641821 	addu	v1,v1,a0
40000070:	ac600078 	sw	zero,120(v1)
40000074:	08000015 	j	40000054 <main+0x34>
40000078:	00000000 	nop
4000007c:	3c037fff 	lui	v1,0x7fff
40000080:	24020000 	li	v0,0
40000084:	3463effc 	ori	v1,v1,0xeffc
40000088:	afa30188 	sw	v1,392(sp)
4000008c:	24030008 	li	v1,8
40000090:	1043000d 	beq	v0,v1,400000c8 <main+0xa8>
40000094:	00000000 	nop
40000098:	3c034000 	lui	v1,0x4000
4000009c:	24642490 	addiu	a0,v1,9360
400000a0:	00021880 	sll	v1,v0,0x2
400000a4:	00832821 	addu	a1,a0,v1
400000a8:	27a40014 	addiu	a0,sp,20
400000ac:	24420001 	addiu	v0,v0,1
400000b0:	8ca50000 	lw	a1,0(a1)
400000b4:	00000000 	nop
400000b8:	00831821 	addu	v1,a0,v1
400000bc:	ac650000 	sw	a1,0(v1)
400000c0:	08000023 	j	4000008c <main+0x6c>
400000c4:	00000000 	nop
400000c8:	3c020040 	lui	v0,0x40
400000cc:	34460000 	ori	a2,v0,0x0
400000d0:	24030000 	li	v1,0
400000d4:	00032021 	addu	a0,zero,v1
400000d8:	00031021 	addu	v0,zero,v1
400000dc:	3c054000 	lui	a1,0x4000
400000e0:	24a523e0 	addiu	a1,a1,9184
400000e4:	30c700fc 	andi	a3,a2,0xfc
400000e8:	00a72821 	addu	a1,a1,a3
400000ec:	8ca90000 	lw	t1,0(a1)
400000f0:	00000000 	nop
400000f4:	00095682 	srl	t2,t1,0x1a
400000f8:	24c50004 	addiu	a1,a2,4
400000fc:	24070003 	li	a3,3
40000100:	114700e1 	beq	t2,a3,40000488 <main+0x468>
40000104:	00000000 	nop
40000108:	24070002 	li	a3,2
4000010c:	114700d8 	beq	t2,a3,40000470 <main+0x450>
40000110:	00000000 	nop
40000114:	154000e3 	bnez	t2,400004a4 <main+0x484>
40000118:	00000000 	nop
4000011c:	000932c2 	srl	a2,t1,0xb
40000120:	00093c02 	srl	a3,t1,0x10
40000124:	00094542 	srl	t0,t1,0x15
40000128:	30c6001f 	andi	a2,a2,0x1f
4000012c:	30e7001f 	andi	a3,a3,0x1f
40000130:	3108001f 	andi	t0,t0,0x1f
40000134:	312a003f 	andi	t2,t1,0x3f
40000138:	240b0020 	li	t3,32
4000013c:	016a582a 	slt	t3,t3,t2
40000140:	15600020 	bnez	t3,400001c4 <main+0x1a4>
40000144:	00000000 	nop
40000148:	240b000f 	li	t3,15
4000014c:	016a582a 	slt	t3,t3,t2
40000150:	1560000f 	bnez	t3,40000190 <main+0x170>
40000154:	00000000 	nop
40000158:	240b0008 	li	t3,8
4000015c:	016a582b 	sltu	t3,t3,t2
40000160:	15600174 	bnez	t3,40000734 <main+0x714>
40000164:	00000000 	nop
40000168:	00094982 	srl	t1,t1,0x6
4000016c:	3129001f 	andi	t1,t1,0x1f
40000170:	3c0b4000 	lui	t3,0x4000
40000174:	000a5080 	sll	t2,t2,0x2
40000178:	256b2380 	addiu	t3,t3,9088
4000017c:	014b5021 	addu	t2,t2,t3
40000180:	8d4a0000 	lw	t2,0(t2)
40000184:	00000000 	nop
40000188:	01400008 	jr	t2
4000018c:	00000000 	nop
40000190:	2549fff0 	addiu	t1,t2,-16
40000194:	240a0009 	li	t2,9
40000198:	0149502b 	sltu	t2,t2,t1
4000019c:	15400165 	bnez	t2,40000734 <main+0x714>
400001a0:	00000000 	nop
400001a4:	3c0a4000 	lui	t2,0x4000
400001a8:	00094880 	sll	t1,t1,0x2
400001ac:	254a2358 	addiu	t2,t2,9048
400001b0:	012a4821 	addu	t1,t1,t2
400001b4:	8d290000 	lw	t1,0(t1)
400001b8:	00000000 	nop
400001bc:	01200008 	jr	t1
400001c0:	00000000 	nop
400001c4:	2549ffdf 	addiu	t1,t2,-33
400001c8:	240a000a 	li	t2,10
400001cc:	0149502b 	sltu	t2,t2,t1
400001d0:	15400158 	bnez	t2,40000734 <main+0x714>
400001d4:	00000000 	nop
400001d8:	3c0a4000 	lui	t2,0x4000
400001dc:	00094880 	sll	t1,t1,0x2
400001e0:	254a232c 	addiu	t2,t2,9004
400001e4:	012a4821 	addu	t1,t1,t2
400001e8:	8d290000 	lw	t1,0(t1)
400001ec:	00000000 	nop
400001f0:	01200008 	jr	t1
400001f4:	00000000 	nop
400001f8:	00084880 	sll	t1,t0,0x2
400001fc:	27a80114 	addiu	t0,sp,276
40000200:	00073880 	sll	a3,a3,0x2
40000204:	01094821 	addu	t1,t0,t1
40000208:	01073821 	addu	a3,t0,a3
4000020c:	00063080 	sll	a2,a2,0x2
40000210:	8d290000 	lw	t1,0(t1)
40000214:	00000000 	nop
40000218:	8ce70000 	lw	a3,0(a3)
4000021c:	00000000 	nop
40000220:	01273821 	addu	a3,t1,a3
40000224:	080000d2 	j	40000348 <main+0x328>
40000228:	00000000 	nop
4000022c:	00084880 	sll	t1,t0,0x2
40000230:	27a80114 	addiu	t0,sp,276
40000234:	00073880 	sll	a3,a3,0x2
40000238:	01094821 	addu	t1,t0,t1
4000023c:	01073821 	addu	a3,t0,a3
40000240:	00063080 	sll	a2,a2,0x2
40000244:	8d290000 	lw	t1,0(t1)
40000248:	00000000 	nop
4000024c:	8ce70000 	lw	a3,0(a3)
40000250:	00000000 	nop
40000254:	01273823 	subu	a3,t1,a3
40000258:	080000d2 	j	40000348 <main+0x328>
4000025c:	00000000 	nop
40000260:	27a70114 	addiu	a3,sp,276
40000264:	00063080 	sll	a2,a2,0x2
40000268:	00e63021 	addu	a2,a3,a2
4000026c:	acc40000 	sw	a0,0(a2)
40000270:	080001dd 	j	40000774 <main+0x754>
40000274:	00000000 	nop
40000278:	27a70114 	addiu	a3,sp,276
4000027c:	00063080 	sll	a2,a2,0x2
40000280:	00e63021 	addu	a2,a3,a2
40000284:	acc30000 	sw	v1,0(a2)
40000288:	080001dd 	j	40000774 <main+0x754>
4000028c:	00000000 	nop
40000290:	00084880 	sll	t1,t0,0x2
40000294:	27a80114 	addiu	t0,sp,276
40000298:	00073880 	sll	a3,a3,0x2
4000029c:	01094821 	addu	t1,t0,t1
400002a0:	01073821 	addu	a3,t0,a3
400002a4:	00063080 	sll	a2,a2,0x2
400002a8:	8d290000 	lw	t1,0(t1)
400002ac:	00000000 	nop
400002b0:	8ce70000 	lw	a3,0(a3)
400002b4:	00000000 	nop
400002b8:	01273824 	and	a3,t1,a3
400002bc:	080000d2 	j	40000348 <main+0x328>
400002c0:	00000000 	nop
400002c4:	00084880 	sll	t1,t0,0x2
400002c8:	27a80114 	addiu	t0,sp,276
400002cc:	00073880 	sll	a3,a3,0x2
400002d0:	01094821 	addu	t1,t0,t1
400002d4:	01073821 	addu	a3,t0,a3
400002d8:	00063080 	sll	a2,a2,0x2
400002dc:	8d290000 	lw	t1,0(t1)
400002e0:	00000000 	nop
400002e4:	8ce70000 	lw	a3,0(a3)
400002e8:	00000000 	nop
400002ec:	01273825 	or	a3,t1,a3
400002f0:	080000d2 	j	40000348 <main+0x328>
400002f4:	00000000 	nop
400002f8:	00084880 	sll	t1,t0,0x2
400002fc:	27a80114 	addiu	t0,sp,276
40000300:	00073880 	sll	a3,a3,0x2
40000304:	01094821 	addu	t1,t0,t1
40000308:	01073821 	addu	a3,t0,a3
4000030c:	00063080 	sll	a2,a2,0x2
40000310:	8d290000 	lw	t1,0(t1)
40000314:	00000000 	nop
40000318:	8ce70000 	lw	a3,0(a3)
4000031c:	00000000 	nop
40000320:	01273826 	xor	a3,t1,a3
40000324:	080000d2 	j	40000348 <main+0x328>
40000328:	00000000 	nop
4000032c:	27a80114 	addiu	t0,sp,276
40000330:	00073880 	sll	a3,a3,0x2
40000334:	01073821 	addu	a3,t0,a3
40000338:	00063080 	sll	a2,a2,0x2
4000033c:	8ce70000 	lw	a3,0(a3)
40000340:	00000000 	nop
40000344:	01273804 	sllv	a3,a3,t1
40000348:	01063021 	addu	a2,t0,a2
4000034c:	acc70000 	sw	a3,0(a2)
40000350:	080001dd 	j	40000774 <main+0x754>
40000354:	00000000 	nop
40000358:	27a80114 	addiu	t0,sp,276
4000035c:	00073880 	sll	a3,a3,0x2
40000360:	01073821 	addu	a3,t0,a3
40000364:	00063080 	sll	a2,a2,0x2
40000368:	8ce70000 	lw	a3,0(a3)
4000036c:	00000000 	nop
40000370:	01273807 	srav	a3,a3,t1
40000374:	080000d2 	j	40000348 <main+0x328>
40000378:	00000000 	nop
4000037c:	00074880 	sll	t1,a3,0x2
40000380:	27a70114 	addiu	a3,sp,276
40000384:	00084080 	sll	t0,t0,0x2
40000388:	00e94821 	addu	t1,a3,t1
4000038c:	00e84021 	addu	t0,a3,t0
40000390:	00063080 	sll	a2,a2,0x2
40000394:	8d290000 	lw	t1,0(t1)
40000398:	00000000 	nop
4000039c:	8d080000 	lw	t0,0(t0)
400003a0:	00000000 	nop
400003a4:	01094004 	sllv	t0,t1,t0
400003a8:	00e63021 	addu	a2,a3,a2
400003ac:	acc80000 	sw	t0,0(a2)
400003b0:	080001dd 	j	40000774 <main+0x754>
400003b4:	00000000 	nop
400003b8:	00074880 	sll	t1,a3,0x2
400003bc:	27a70114 	addiu	a3,sp,276
400003c0:	00084080 	sll	t0,t0,0x2
400003c4:	00e94821 	addu	t1,a3,t1
400003c8:	00e84021 	addu	t0,a3,t0
400003cc:	00063080 	sll	a2,a2,0x2
400003d0:	8d290000 	lw	t1,0(t1)
400003d4:	00000000 	nop
400003d8:	8d080000 	lw	t0,0(t0)
400003dc:	00000000 	nop
400003e0:	01094007 	srav	t0,t1,t0
400003e4:	080000ea 	j	400003a8 <main+0x388>
400003e8:	00000000 	nop
400003ec:	00084880 	sll	t1,t0,0x2
400003f0:	27a80114 	addiu	t0,sp,276
400003f4:	00073880 	sll	a3,a3,0x2
400003f8:	01094821 	addu	t1,t0,t1
400003fc:	01073821 	addu	a3,t0,a3
40000400:	00063080 	sll	a2,a2,0x2
40000404:	8d290000 	lw	t1,0(t1)
40000408:	00000000 	nop
4000040c:	8ce70000 	lw	a3,0(a3)
40000410:	00000000 	nop
40000414:	0127382a 	slt	a3,t1,a3
40000418:	080000d2 	j	40000348 <main+0x328>
4000041c:	00000000 	nop
40000420:	00084880 	sll	t1,t0,0x2
40000424:	27a80114 	addiu	t0,sp,276
40000428:	00073880 	sll	a3,a3,0x2
4000042c:	01094821 	addu	t1,t0,t1
40000430:	01073821 	addu	a3,t0,a3
40000434:	00063080 	sll	a2,a2,0x2
40000438:	8d290000 	lw	t1,0(t1)
4000043c:	00000000 	nop
40000440:	8ce70000 	lw	a3,0(a3)
40000444:	00000000 	nop
40000448:	0127382b 	sltu	a3,t1,a3
4000044c:	080000d2 	j	40000348 <main+0x328>
40000450:	00000000 	nop
40000454:	27a50114 	addiu	a1,sp,276
40000458:	00083080 	sll	a2,t0,0x2
4000045c:	00a62821 	addu	a1,a1,a2
40000460:	8ca60000 	lw	a2,0(a1)
40000464:	00000000 	nop
40000468:	080001de 	j	40000778 <main+0x758>
4000046c:	00000000 	nop
40000470:	3c0503ff 	lui	a1,0x3ff
40000474:	34a5ffff 	ori	a1,a1,0xffff
40000478:	01252824 	and	a1,t1,a1
4000047c:	00053080 	sll	a2,a1,0x2
40000480:	080001de 	j	40000778 <main+0x758>
40000484:	00000000 	nop
40000488:	3c0603ff 	lui	a2,0x3ff
4000048c:	34c6ffff 	ori	a2,a2,0xffff
40000490:	01263024 	and	a2,t1,a2
40000494:	00063080 	sll	a2,a2,0x2
40000498:	afa50190 	sw	a1,400(sp)
4000049c:	080001de 	j	40000778 <main+0x758>
400004a0:	00000000 	nop
400004a4:	00094402 	srl	t0,t1,0x10
400004a8:	00095d42 	srl	t3,t1,0x15
400004ac:	3127ffff 	andi	a3,t1,0xffff
400004b0:	3108001f 	andi	t0,t0,0x1f
400004b4:	3169001f 	andi	t1,t3,0x1f
400004b8:	240b002a 	li	t3,42
400004bc:	016a582a 	slt	t3,t3,t2
400004c0:	1560004d 	bnez	t3,400005f8 <main+0x5d8>
400004c4:	00000000 	nop
400004c8:	240b0022 	li	t3,34
400004cc:	016a582a 	slt	t3,t3,t2
400004d0:	15600036 	bnez	t3,400005ac <main+0x58c>
400004d4:	00000000 	nop
400004d8:	254affff 	addiu	t2,t2,-1
400004dc:	240b000e 	li	t3,14
400004e0:	016a582b 	sltu	t3,t3,t2
400004e4:	15600093 	bnez	t3,40000734 <main+0x714>
400004e8:	00000000 	nop
400004ec:	3c0b4000 	lui	t3,0x4000
400004f0:	000a5080 	sll	t2,t2,0x2
400004f4:	256b23a4 	addiu	t3,t3,9124
400004f8:	014b5021 	addu	t2,t2,t3
400004fc:	8d4a0000 	lw	t2,0(t2)
40000500:	00000000 	nop
40000504:	01400008 	jr	t2
40000508:	00000000 	nop
4000050c:	27a60114 	addiu	a2,sp,276
40000510:	00094880 	sll	t1,t1,0x2
40000514:	00075400 	sll	t2,a3,0x10
40000518:	00c94821 	addu	t1,a2,t1
4000051c:	00083880 	sll	a3,t0,0x2
40000520:	000a4403 	sra	t0,t2,0x10
40000524:	8d290000 	lw	t1,0(t1)
40000528:	00000000 	nop
4000052c:	01284021 	addu	t0,t1,t0
40000530:	00c73021 	addu	a2,a2,a3
40000534:	acc80000 	sw	t0,0(a2)
40000538:	080001dd 	j	40000774 <main+0x754>
4000053c:	00000000 	nop
40000540:	27a60114 	addiu	a2,sp,276
40000544:	00094880 	sll	t1,t1,0x2
40000548:	00c94821 	addu	t1,a2,t1
4000054c:	00084080 	sll	t0,t0,0x2
40000550:	8d290000 	lw	t1,0(t1)
40000554:	00000000 	nop
40000558:	00e93824 	and	a3,a3,t1
4000055c:	0800017a 	j	400005e8 <main+0x5c8>
40000560:	00000000 	nop
40000564:	27a60114 	addiu	a2,sp,276
40000568:	00094880 	sll	t1,t1,0x2
4000056c:	00c94821 	addu	t1,a2,t1
40000570:	00084080 	sll	t0,t0,0x2
40000574:	8d290000 	lw	t1,0(t1)
40000578:	00000000 	nop
4000057c:	01273825 	or	a3,t1,a3
40000580:	0800017a 	j	400005e8 <main+0x5c8>
40000584:	00000000 	nop
40000588:	27a60114 	addiu	a2,sp,276
4000058c:	00094880 	sll	t1,t1,0x2
40000590:	00c94821 	addu	t1,a2,t1
40000594:	00084080 	sll	t0,t0,0x2
40000598:	8d290000 	lw	t1,0(t1)
4000059c:	00000000 	nop
400005a0:	01273826 	xor	a3,t1,a3
400005a4:	0800017a 	j	400005e8 <main+0x5c8>
400005a8:	00000000 	nop
400005ac:	24060023 	li	a2,35
400005b0:	15460060 	bne	t2,a2,40000734 <main+0x714>
400005b4:	00000000 	nop
400005b8:	27a60114 	addiu	a2,sp,276
400005bc:	00094880 	sll	t1,t1,0x2
400005c0:	00c94821 	addu	t1,a2,t1
400005c4:	8d290000 	lw	t1,0(t1)
400005c8:	00000000 	nop
400005cc:	01274821 	addu	t1,t1,a3
400005d0:	27a70014 	addiu	a3,sp,20
400005d4:	312900fc 	andi	t1,t1,0xfc
400005d8:	00e93821 	addu	a3,a3,t1
400005dc:	00084080 	sll	t0,t0,0x2
400005e0:	8ce70000 	lw	a3,0(a3)
400005e4:	00000000 	nop
400005e8:	00c83021 	addu	a2,a2,t0
400005ec:	acc70000 	sw	a3,0(a2)
400005f0:	080001dd 	j	40000774 <main+0x754>
400005f4:	00000000 	nop
400005f8:	2406002b 	li	a2,43
400005fc:	1546004d 	bne	t2,a2,40000734 <main+0x714>
40000600:	00000000 	nop
40000604:	27a60114 	addiu	a2,sp,276
40000608:	00094880 	sll	t1,t1,0x2
4000060c:	00c94821 	addu	t1,a2,t1
40000610:	8d2a0000 	lw	t2,0(t1)
40000614:	00000000 	nop
40000618:	00084880 	sll	t1,t0,0x2
4000061c:	01474021 	addu	t0,t2,a3
40000620:	00c93821 	addu	a3,a2,t1
40000624:	27a60014 	addiu	a2,sp,20
40000628:	310800fc 	andi	t0,t0,0xfc
4000062c:	08000178 	j	400005e0 <main+0x5c0>
40000630:	00000000 	nop
40000634:	27a60114 	addiu	a2,sp,276
40000638:	00084080 	sll	t0,t0,0x2
4000063c:	00073c00 	sll	a3,a3,0x10
40000640:	0800017a 	j	400005e8 <main+0x5c8>
40000644:	00000000 	nop
40000648:	00095080 	sll	t2,t1,0x2
4000064c:	27a90114 	addiu	t1,sp,276
40000650:	00085880 	sll	t3,t0,0x2
40000654:	012a4021 	addu	t0,t1,t2
40000658:	012b4821 	addu	t1,t1,t3
4000065c:	8d080000 	lw	t0,0(t0)
40000660:	00000000 	nop
40000664:	8d290000 	lw	t1,0(t1)
40000668:	00000000 	nop
4000066c:	11090017 	beq	t0,t1,400006cc <main+0x6ac>
40000670:	00000000 	nop
40000674:	080001dd 	j	40000774 <main+0x754>
40000678:	00000000 	nop
4000067c:	00095080 	sll	t2,t1,0x2
40000680:	27a90114 	addiu	t1,sp,276
40000684:	00085880 	sll	t3,t0,0x2
40000688:	012a4021 	addu	t0,t1,t2
4000068c:	012b4821 	addu	t1,t1,t3
40000690:	8d080000 	lw	t0,0(t0)
40000694:	00000000 	nop
40000698:	8d290000 	lw	t1,0(t1)
4000069c:	00000000 	nop
400006a0:	1509000a 	bne	t0,t1,400006cc <main+0x6ac>
400006a4:	00000000 	nop
400006a8:	080001dd 	j	40000774 <main+0x754>
400006ac:	00000000 	nop
400006b0:	27a80114 	addiu	t0,sp,276
400006b4:	00094880 	sll	t1,t1,0x2
400006b8:	01094021 	addu	t0,t0,t1
400006bc:	8d080000 	lw	t0,0(t0)
400006c0:	00000000 	nop
400006c4:	0500002b 	bltz	t0,40000774 <main+0x754>
400006c8:	00000000 	nop
400006cc:	00072c00 	sll	a1,a3,0x10
400006d0:	00052c03 	sra	a1,a1,0x10
400006d4:	00052880 	sll	a1,a1,0x2
400006d8:	00c53021 	addu	a2,a2,a1
400006dc:	080001de 	j	40000778 <main+0x758>
400006e0:	00000000 	nop
400006e4:	27a60114 	addiu	a2,sp,276
400006e8:	00094880 	sll	t1,t1,0x2
400006ec:	00075400 	sll	t2,a3,0x10
400006f0:	00c94821 	addu	t1,a2,t1
400006f4:	00083880 	sll	a3,t0,0x2
400006f8:	000a4403 	sra	t0,t2,0x10
400006fc:	8d290000 	lw	t1,0(t1)
40000700:	00000000 	nop
40000704:	0128402a 	slt	t0,t1,t0
40000708:	0800014c 	j	40000530 <main+0x510>
4000070c:	00000000 	nop
40000710:	27a60114 	addiu	a2,sp,276
40000714:	00094880 	sll	t1,t1,0x2
40000718:	00c94821 	addu	t1,a2,t1
4000071c:	00084080 	sll	t0,t0,0x2
40000720:	8d290000 	lw	t1,0(t1)
40000724:	00000000 	nop
40000728:	0127382b 	sltu	a3,t1,a3
4000072c:	0800017a 	j	400005e8 <main+0x5c8>
40000730:	00000000 	nop
40000734:	24420001 	addiu	v0,v0,1
40000738:	afa00114 	sw	zero,276(sp)
4000073c:	080001e2 	j	40000788 <main+0x768>
40000740:	00000000 	nop
40000744:	00082080 	sll	a0,t0,0x2
40000748:	27a30114 	addiu	v1,sp,276
4000074c:	00073880 	sll	a3,a3,0x2
40000750:	00643021 	addu	a2,v1,a0
40000754:	00672021 	addu	a0,v1,a3
40000758:	8cc30000 	lw	v1,0(a2)
4000075c:	00000000 	nop
40000760:	8c840000 	lw	a0,0(a0)
40000764:	00000000 	nop
40000768:	00640018 	mult	v1,a0
4000076c:	00001812 	mflo	v1
40000770:	00002010 	mfhi	a0
40000774:	00053021 	addu	a2,zero,a1
40000778:	24420001 	addiu	v0,v0,1
4000077c:	afa00114 	sw	zero,276(sp)
40000780:	14c0fe56 	bnez	a2,400000dc <main+0xbc>
40000784:	00000000 	nop
40000788:	24030263 	li	v1,611
4000078c:	00431026 	xor	v0,v0,v1
40000790:	2c500001 	sltiu	s0,v0,1
40000794:	24020000 	li	v0,0
40000798:	24030008 	li	v1,8
4000079c:	10430011 	beq	v0,v1,400007e4 <main+0x7c4>
400007a0:	00000000 	nop
400007a4:	3c054000 	lui	a1,0x4000
400007a8:	27a40014 	addiu	a0,sp,20
400007ac:	00021880 	sll	v1,v0,0x2
400007b0:	24a624b0 	addiu	a2,a1,9392
400007b4:	00832821 	addu	a1,a0,v1
400007b8:	00c32021 	addu	a0,a2,v1
400007bc:	8ca30000 	lw	v1,0(a1)
400007c0:	00000000 	nop
400007c4:	8c840000 	lw	a0,0(a0)
400007c8:	00000000 	nop
400007cc:	00641826 	xor	v1,v1,a0
400007d0:	2c630001 	sltiu	v1,v1,1
400007d4:	02038021 	addu	s0,s0,v1
400007d8:	24420001 	addiu	v0,v0,1
400007dc:	080001e6 	j	40000798 <main+0x778>
400007e0:	00000000 	nop
400007e4:	3c024000 	lui	v0,0x4000
400007e8:	244424f8 	addiu	a0,v0,9464
400007ec:	24110009 	li	s1,9
400007f0:	00102821 	addu	a1,zero,s0
400007f4:	0c00052d 	jal	400014b4 <printf>
400007f8:	00000000 	nop
400007fc:	16110005 	bne	s0,s1,40000814 <main+0x7f4>
40000800:	00000000 	nop
40000804:	3c024000 	lui	v0,0x4000
40000808:	24442503 	addiu	a0,v0,9475
4000080c:	08000207 	j	4000081c <main+0x7fc>
40000810:	00000000 	nop
40000814:	3c024000 	lui	v0,0x4000
40000818:	24442510 	addiu	a0,v0,9488
4000081c:	0c00052d 	jal	400014b4 <printf>
40000820:	00000000 	nop
40000824:	00101021 	addu	v0,zero,s0
40000828:	8fb00194 	lw	s0,404(sp)
4000082c:	00000000 	nop
40000830:	8fb10198 	lw	s1,408(sp)
40000834:	00000000 	nop
40000838:	8fbf019c 	lw	ra,412(sp)
4000083c:	00000000 	nop
40000840:	27bd01a0 	addiu	sp,sp,416
40000844:	03e00008 	jr	ra
40000848:	00000000 	nop
4000084c:	27a30014 	addiu	v1,sp,20
40000850:	00022080 	sll	a0,v0,0x2
40000854:	24420001 	addiu	v0,v0,1
40000858:	00641821 	addu	v1,v1,a0
4000085c:	ac600000 	sw	zero,0(v1)
40000860:	0800000d 	j	40000034 <main+0x14>
40000864:	00000000 	nop
40000868:	27a30114 	addiu	v1,sp,276
4000086c:	00022080 	sll	a0,v0,0x2
40000870:	00641821 	addu	v1,v1,a0
40000874:	ac600000 	sw	zero,0(v1)
40000878:	ac600004 	sw	zero,4(v1)
4000087c:	ac600008 	sw	zero,8(v1)
40000880:	24420005 	addiu	v0,v0,5
40000884:	ac60000c 	sw	zero,12(v1)
40000888:	ac600010 	sw	zero,16(v1)
4000088c:	08000011 	j	40000044 <main+0x24>
40000890:	00000000 	nop

40000894 <legup_start_counter>:
40000894:	3c02f100 	lui	v0,0xf100
40000898:	000420c0 	sll	a0,a0,0x3
4000089c:	00822021 	addu	a0,a0,v0
400008a0:	24020001 	li	v0,1
400008a4:	ac820000 	sw	v0,0(a0)
400008a8:	03e00008 	jr	ra
400008ac:	00000000 	nop

400008b0 <legup_stop_counter>:
400008b0:	3c02f100 	lui	v0,0xf100
400008b4:	000420c0 	sll	a0,a0,0x3
400008b8:	24430004 	addiu	v1,v0,4
400008bc:	00831821 	addu	v1,a0,v1
400008c0:	24050001 	li	a1,1
400008c4:	ac650000 	sw	a1,0(v1)
400008c8:	00821021 	addu	v0,a0,v0
400008cc:	8c420000 	lw	v0,0(v0)
400008d0:	03e00008 	jr	ra
400008d4:	00000000 	nop

400008d8 <printc_uart>:
400008d8:	3c03ff20 	lui	v1,0xff20
400008dc:	3c020001 	lui	v0,0x1
400008e0:	34631004 	ori	v1,v1,0x1004
400008e4:	34420000 	ori	v0,v0,0x0
400008e8:	8c630000 	lw	v1,0(v1)
400008ec:	00000000 	nop
400008f0:	0062102b 	sltu	v0,v1,v0
400008f4:	1440fff8 	bnez	v0,400008d8 <printc_uart>
400008f8:	00000000 	nop
400008fc:	3c02ff20 	lui	v0,0xff20
40000900:	34421000 	ori	v0,v0,0x1000
40000904:	ac440000 	sw	a0,0(v0)
40000908:	03e00008 	jr	ra
4000090c:	00000000 	nop

40000910 <print_uart>:
40000910:	90830000 	lbu	v1,0(a0)
40000914:	00000000 	nop
40000918:	10600015 	beqz	v1,40000970 <print_uart+0x60>
4000091c:	00000000 	nop
40000920:	24820001 	addiu	v0,a0,1
40000924:	3c05ff20 	lui	a1,0xff20
40000928:	3c040001 	lui	a0,0x1
4000092c:	34a51004 	ori	a1,a1,0x1004
40000930:	34840000 	ori	a0,a0,0x0
40000934:	8ca50000 	lw	a1,0(a1)
40000938:	00000000 	nop
4000093c:	00a4202b 	sltu	a0,a1,a0
40000940:	1480fff8 	bnez	a0,40000924 <print_uart+0x14>
40000944:	00000000 	nop
40000948:	00031e00 	sll	v1,v1,0x18
4000094c:	3c04ff20 	lui	a0,0xff20
40000950:	00031e03 	sra	v1,v1,0x18
40000954:	34841000 	ori	a0,a0,0x1000
40000958:	ac830000 	sw	v1,0(a0)
4000095c:	90430000 	lbu	v1,0(v0)
40000960:	00000000 	nop
40000964:	24420001 	addiu	v0,v0,1
40000968:	1460ffee 	bnez	v1,40000924 <print_uart+0x14>
4000096c:	00000000 	nop
40000970:	03e00008 	jr	ra
40000974:	00000000 	nop

40000978 <_i2h>:
40000978:	2882000a 	slti	v0,a0,10
4000097c:	14400004 	bnez	v0,40000990 <_i2h+0x18>
40000980:	00000000 	nop
40000984:	24020057 	li	v0,87
40000988:	08000265 	j	40000994 <_i2h+0x1c>
4000098c:	00000000 	nop
40000990:	24020030 	li	v0,48
40000994:	00441021 	addu	v0,v0,a0
40000998:	00021600 	sll	v0,v0,0x18
4000099c:	00021603 	sra	v0,v0,0x18
400009a0:	03e00008 	jr	ra
400009a4:	00000000 	nop

400009a8 <_i2H>:
400009a8:	2882000a 	slti	v0,a0,10
400009ac:	14400004 	bnez	v0,400009c0 <_i2H+0x18>
400009b0:	00000000 	nop
400009b4:	24020037 	li	v0,55
400009b8:	08000271 	j	400009c4 <_i2H+0x1c>
400009bc:	00000000 	nop
400009c0:	24020030 	li	v0,48
400009c4:	00441021 	addu	v0,v0,a0
400009c8:	00021600 	sll	v0,v0,0x18
400009cc:	00021603 	sra	v0,v0,0x18
400009d0:	03e00008 	jr	ra
400009d4:	00000000 	nop

400009d8 <i2h>:
400009d8:	27bdffc8 	addiu	sp,sp,-56
400009dc:	afbf0034 	sw	ra,52(sp)
400009e0:	afb40030 	sw	s4,48(sp)
400009e4:	afb3002c 	sw	s3,44(sp)
400009e8:	afb20028 	sw	s2,40(sp)
400009ec:	afb10024 	sw	s1,36(sp)
400009f0:	afb00020 	sw	s0,32(sp)
400009f4:	00048021 	addu	s0,zero,a0
400009f8:	3c034000 	lui	v1,0x4000
400009fc:	3c044000 	lui	a0,0x4000
40000a00:	3c024000 	lui	v0,0x4000
40000a04:	10a00004 	beqz	a1,40000a18 <i2h+0x40>
40000a08:	00000000 	nop
40000a0c:	249209a8 	addiu	s2,a0,2472
40000a10:	08000287 	j	40000a1c <i2h+0x44>
40000a14:	00000000 	nop
40000a18:	24720978 	addiu	s2,v1,2424
40000a1c:	16000004 	bnez	s0,40000a30 <i2h+0x58>
40000a20:	00000000 	nop
40000a24:	2442251d 	addiu	v0,v0,9501
40000a28:	080002ae 	j	40000ab8 <i2h+0xe0>
40000a2c:	00000000 	nop
40000a30:	24130000 	li	s3,0
40000a34:	0013a021 	addu	s4,zero,s3
40000a38:	27b10014 	addiu	s1,sp,20
40000a3c:	3204000f 	andi	a0,s0,0xf
40000a40:	00108102 	srl	s0,s0,0x4
40000a44:	26930001 	addiu	s3,s4,1
40000a48:	0240f809 	jalr	s2
40000a4c:	00000000 	nop
40000a50:	02341821 	addu	v1,s1,s4
40000a54:	a0620000 	sb	v0,0(v1)
40000a58:	1600fff6 	bnez	s0,40000a34 <i2h+0x5c>
40000a5c:	00000000 	nop
40000a60:	3c024000 	lui	v0,0x4000
40000a64:	244226a0 	addiu	v0,v0,9888
40000a68:	24030000 	li	v1,0
40000a6c:	00532021 	addu	a0,v0,s3
40000a70:	a0830000 	sb	v1,0(a0)
40000a74:	06800010 	bltz	s4,40000ab8 <i2h+0xe0>
40000a78:	00000000 	nop
40000a7c:	3c034000 	lui	v1,0x4000
40000a80:	24020000 	li	v0,0
40000a84:	00531023 	subu	v0,v0,s3
40000a88:	246326a0 	addiu	v1,v1,9888
40000a8c:	3c044000 	lui	a0,0x4000
40000a90:	02222823 	subu	a1,s1,v0
40000a94:	90a5ffff 	lbu	a1,-1(a1)
40000a98:	00000000 	nop
40000a9c:	24420001 	addiu	v0,v0,1
40000aa0:	24660001 	addiu	a2,v1,1
40000aa4:	a0650000 	sb	a1,0(v1)
40000aa8:	00061821 	addu	v1,zero,a2
40000aac:	1440fff7 	bnez	v0,40000a8c <i2h+0xb4>
40000ab0:	00000000 	nop
40000ab4:	248226a0 	addiu	v0,a0,9888
40000ab8:	8fb00020 	lw	s0,32(sp)
40000abc:	00000000 	nop
40000ac0:	8fb10024 	lw	s1,36(sp)
40000ac4:	00000000 	nop
40000ac8:	8fb20028 	lw	s2,40(sp)
40000acc:	00000000 	nop
40000ad0:	8fb3002c 	lw	s3,44(sp)
40000ad4:	00000000 	nop
40000ad8:	8fb40030 	lw	s4,48(sp)
40000adc:	00000000 	nop
40000ae0:	8fbf0034 	lw	ra,52(sp)
40000ae4:	00000000 	nop
40000ae8:	27bd0038 	addiu	sp,sp,56
40000aec:	03e00008 	jr	ra
40000af0:	00000000 	nop

40000af4 <l2h>:
40000af4:	27bdffc0 	addiu	sp,sp,-64
40000af8:	afbf003c 	sw	ra,60(sp)
40000afc:	afb50038 	sw	s5,56(sp)
40000b00:	afb40034 	sw	s4,52(sp)
40000b04:	afb30030 	sw	s3,48(sp)
40000b08:	afb2002c 	sw	s2,44(sp)
40000b0c:	afb10028 	sw	s1,40(sp)
40000b10:	afb00024 	sw	s0,36(sp)
40000b14:	00058021 	addu	s0,zero,a1
40000b18:	00048821 	addu	s1,zero,a0
40000b1c:	3c034000 	lui	v1,0x4000
40000b20:	3c044000 	lui	a0,0x4000
40000b24:	3c024000 	lui	v0,0x4000
40000b28:	10c00004 	beqz	a2,40000b3c <l2h+0x48>
40000b2c:	00000000 	nop
40000b30:	249409a8 	addiu	s4,a0,2472
40000b34:	080002d0 	j	40000b40 <l2h+0x4c>
40000b38:	00000000 	nop
40000b3c:	24740978 	addiu	s4,v1,2424
40000b40:	02301825 	or	v1,s1,s0
40000b44:	14600004 	bnez	v1,40000b58 <l2h+0x64>
40000b48:	00000000 	nop
40000b4c:	2442251d 	addiu	v0,v0,9501
40000b50:	080002ff 	j	40000bfc <l2h+0x108>
40000b54:	00000000 	nop
40000b58:	24120000 	li	s2,0
40000b5c:	0012a821 	addu	s5,zero,s2
40000b60:	27b30010 	addiu	s3,sp,16
40000b64:	3224000f 	andi	a0,s1,0xf
40000b68:	00111102 	srl	v0,s1,0x4
40000b6c:	00101f00 	sll	v1,s0,0x1c
40000b70:	26b20001 	addiu	s2,s5,1
40000b74:	00438825 	or	s1,v0,v1
40000b78:	00108102 	srl	s0,s0,0x4
40000b7c:	0280f809 	jalr	s4
40000b80:	00000000 	nop
40000b84:	02752021 	addu	a0,s3,s5
40000b88:	02301825 	or	v1,s1,s0
40000b8c:	a0820000 	sb	v0,0(a0)
40000b90:	1460fff2 	bnez	v1,40000b5c <l2h+0x68>
40000b94:	00000000 	nop
40000b98:	3c024000 	lui	v0,0x4000
40000b9c:	244226a9 	addiu	v0,v0,9897
40000ba0:	24030000 	li	v1,0
40000ba4:	00522021 	addu	a0,v0,s2
40000ba8:	a0830000 	sb	v1,0(a0)
40000bac:	06a00013 	bltz	s5,40000bfc <l2h+0x108>
40000bb0:	00000000 	nop
40000bb4:	00032021 	addu	a0,zero,v1
40000bb8:	24080000 	li	t0,0
40000bbc:	24650001 	addiu	a1,v1,1
40000bc0:	24060001 	li	a2,1
40000bc4:	3c024000 	lui	v0,0x4000
40000bc8:	00a6382b 	sltu	a3,a1,a2
40000bcc:	244226a9 	addiu	v0,v0,9897
40000bd0:	02723021 	addu	a2,s3,s2
40000bd4:	00e83821 	addu	a3,a3,t0
40000bd8:	2652ffff 	addiu	s2,s2,-1
40000bdc:	00872021 	addu	a0,a0,a3
40000be0:	90c6ffff 	lbu	a2,-1(a2)
40000be4:	00000000 	nop
40000be8:	00431821 	addu	v1,v0,v1
40000bec:	a0660000 	sb	a2,0(v1)
40000bf0:	00051821 	addu	v1,zero,a1
40000bf4:	1e40fff1 	bgtz	s2,40000bbc <l2h+0xc8>
40000bf8:	00000000 	nop
40000bfc:	8fb00024 	lw	s0,36(sp)
40000c00:	00000000 	nop
40000c04:	8fb10028 	lw	s1,40(sp)
40000c08:	00000000 	nop
40000c0c:	8fb2002c 	lw	s2,44(sp)
40000c10:	00000000 	nop
40000c14:	8fb30030 	lw	s3,48(sp)
40000c18:	00000000 	nop
40000c1c:	8fb40034 	lw	s4,52(sp)
40000c20:	00000000 	nop
40000c24:	8fb50038 	lw	s5,56(sp)
40000c28:	00000000 	nop
40000c2c:	8fbf003c 	lw	ra,60(sp)
40000c30:	00000000 	nop
40000c34:	27bd0040 	addiu	sp,sp,64
40000c38:	03e00008 	jr	ra
40000c3c:	00000000 	nop

40000c40 <itoa>:
40000c40:	27bdffd8 	addiu	sp,sp,-40
40000c44:	afb70024 	sw	s7,36(sp)
40000c48:	afb60020 	sw	s6,32(sp)
40000c4c:	afb5001c 	sw	s5,28(sp)
40000c50:	afb40018 	sw	s4,24(sp)
40000c54:	afb30014 	sw	s3,20(sp)
40000c58:	afb20010 	sw	s2,16(sp)
40000c5c:	afb1000c 	sw	s1,12(sp)
40000c60:	afb00008 	sw	s0,8(sp)
40000c64:	2402ffff 	li	v0,-1
40000c68:	0044102a 	slt	v0,v0,a0
40000c6c:	14400006 	bnez	v0,40000c88 <itoa+0x48>
40000c70:	00000000 	nop
40000c74:	24020000 	li	v0,0
40000c78:	00442023 	subu	a0,v0,a0
40000c7c:	24020001 	li	v0,1
40000c80:	08000329 	j	40000ca4 <itoa+0x64>
40000c84:	00000000 	nop
40000c88:	3c024000 	lui	v0,0x4000
40000c8c:	14800004 	bnez	a0,40000ca0 <itoa+0x60>
40000c90:	00000000 	nop
40000c94:	2442251d 	addiu	v0,v0,9501
40000c98:	0800040b 	j	4000102c <itoa+0x3ec>
40000c9c:	00000000 	nop
40000ca0:	24020000 	li	v0,0
40000ca4:	afa20004 	sw	v0,4(sp)
40000ca8:	3c026666 	lui	v0,0x6666
40000cac:	3c0551eb 	lui	a1,0x51eb
40000cb0:	34426667 	ori	v0,v0,0x6667
40000cb4:	00820018 	mult	a0,v0
40000cb8:	00001810 	mfhi	v1
40000cbc:	3c061062 	lui	a2,0x1062
40000cc0:	34a5851f 	ori	a1,a1,0x851f
40000cc4:	00850018 	mult	a0,a1
40000cc8:	00002810 	mfhi	a1
40000ccc:	3c0868db 	lui	t0,0x68db
40000cd0:	34c64dd3 	ori	a2,a2,0x4dd3
40000cd4:	00034883 	sra	t1,v1,0x2
40000cd8:	00031fc2 	srl	v1,v1,0x1f
40000cdc:	00860018 	mult	a0,a2
40000ce0:	00003010 	mfhi	a2
40000ce4:	3c0714f8 	lui	a3,0x14f8
40000ce8:	35088bad 	ori	t0,t0,0x8bad
40000cec:	01236021 	addu	t4,t1,v1
40000cf0:	00051943 	sra	v1,a1,0x5
40000cf4:	000557c2 	srl	t2,a1,0x1f
40000cf8:	00880018 	mult	a0,t0
40000cfc:	00004010 	mfhi	t0
40000d00:	01820018 	mult	t4,v0
40000d04:	00002810 	mfhi	a1
40000d08:	3c09431b 	lui	t1,0x431b
40000d0c:	34e7b589 	ori	a3,a3,0xb589
40000d10:	006a5821 	addu	t3,v1,t2
40000d14:	00061983 	sra	v1,a2,0x6
40000d18:	000637c2 	srl	a2,a2,0x1f
40000d1c:	00870018 	mult	a0,a3
40000d20:	00005010 	mfhi	t2
40000d24:	01620018 	mult	t3,v0
40000d28:	00003810 	mfhi	a3
40000d2c:	3c0f6b5f 	lui	t7,0x6b5f
40000d30:	352dde83 	ori	t5,t1,0xde83
40000d34:	00664821 	addu	t1,v1,a2
40000d38:	2406000a 	li	a2,10
40000d3c:	0008c303 	sra	t8,t0,0xc
40000d40:	000847c2 	srl	t0,t0,0x1f
40000d44:	0005c882 	srl	t9,a1,0x2
40000d48:	000587c2 	srl	s0,a1,0x1f
40000d4c:	008d0018 	mult	a0,t5
40000d50:	00007010 	mfhi	t6
40000d54:	01220018 	mult	t1,v0
40000d58:	00006810 	mfhi	t5
40000d5c:	3c054000 	lui	a1,0x4000
40000d60:	afa50000 	sw	a1,0(sp)
40000d64:	3c1155e6 	lui	s1,0x55e6
40000d68:	35efca6b 	ori	t7,t7,0xca6b
40000d6c:	03084021 	addu	t0,t8,t0
40000d70:	03308021 	addu	s0,t9,s0
40000d74:	01860018 	mult	t4,a2
40000d78:	0000c812 	mflo	t9
40000d7c:	000a9343 	sra	s2,t2,0xd
40000d80:	000a57c2 	srl	t2,t2,0x1f
40000d84:	00079882 	srl	s3,a3,0x2
40000d88:	00071fc2 	srl	v1,a3,0x1f
40000d8c:	008f0018 	mult	a0,t7
40000d90:	0000c010 	mfhi	t8
40000d94:	01020018 	mult	t0,v0
40000d98:	00007810 	mfhi	t7
40000d9c:	3c1444b8 	lui	s4,0x44b8
40000da0:	36353b89 	ori	s5,s1,0x3b89
40000da4:	024a5021 	addu	t2,s2,t2
40000da8:	02639821 	addu	s3,s3,v1
40000dac:	02060018 	mult	s0,a2
40000db0:	00008812 	mflo	s1
40000db4:	00998023 	subu	s0,a0,t9
40000db8:	24a726ba 	addiu	a3,a1,9914
40000dbc:	24120000 	li	s2,0
40000dc0:	000eb483 	sra	s6,t6,0x12
40000dc4:	000ebfc2 	srl	s7,t6,0x1f
40000dc8:	000d1882 	srl	v1,t5,0x2
40000dcc:	000d2fc2 	srl	a1,t5,0x1f
40000dd0:	00950018 	mult	a0,s5
40000dd4:	0000c810 	mfhi	t9
40000dd8:	01420018 	mult	t2,v0
40000ddc:	00007010 	mfhi	t6
40000de0:	36952fa1 	ori	s5,s4,0x2fa1
40000de4:	02d76821 	addu	t5,s6,s7
40000de8:	0065a021 	addu	s4,v1,a1
40000dec:	02660018 	mult	s3,a2
40000df0:	00009812 	mflo	s3
40000df4:	01918823 	subu	s1,t4,s1
40000df8:	0018b583 	sra	s6,t8,0x16
40000dfc:	0018bfc2 	srl	s7,t8,0x1f
40000e00:	000fc082 	srl	t8,t7,0x2
40000e04:	000f1fc2 	srl	v1,t7,0x1f
40000e08:	26100030 	addiu	s0,s0,48
40000e0c:	a0f2000a 	sb	s2,10(a3)
40000e10:	00950018 	mult	a0,s5
40000e14:	00007810 	mfhi	t7
40000e18:	01a20018 	mult	t5,v0
40000e1c:	00006010 	mfhi	t4
40000e20:	02d72021 	addu	a0,s6,s7
40000e24:	0303a821 	addu	s5,t8,v1
40000e28:	02860018 	mult	s4,a2
40000e2c:	0000a012 	mflo	s4
40000e30:	0173c023 	subu	t8,t3,s3
40000e34:	00195e43 	sra	t3,t9,0x19
40000e38:	0019cfc2 	srl	t9,t9,0x1f
40000e3c:	000e1882 	srl	v1,t6,0x2
40000e40:	000e2fc2 	srl	a1,t6,0x1f
40000e44:	26320030 	addiu	s2,s1,48
40000e48:	a0f00009 	sb	s0,9(a3)
40000e4c:	00820018 	mult	a0,v0
40000e50:	00007010 	mfhi	t6
40000e54:	01795821 	addu	t3,t3,t9
40000e58:	00658821 	addu	s1,v1,a1
40000e5c:	02a60018 	mult	s5,a2
40000e60:	00008012 	mflo	s0
40000e64:	0134c823 	subu	t9,t1,s4
40000e68:	000f4f03 	sra	t1,t7,0x1c
40000e6c:	000f9fc2 	srl	s3,t7,0x1f
40000e70:	000c1882 	srl	v1,t4,0x2
40000e74:	000c2fc2 	srl	a1,t4,0x1f
40000e78:	270f0030 	addiu	t7,t8,48
40000e7c:	a0f20008 	sb	s2,8(a3)
40000e80:	01620018 	mult	t3,v0
40000e84:	00006010 	mfhi	t4
40000e88:	01334821 	addu	t1,t1,s3
40000e8c:	00659021 	addu	s2,v1,a1
40000e90:	02260018 	mult	s1,a2
40000e94:	0000c012 	mflo	t8
40000e98:	01104023 	subu	t0,t0,s0
40000e9c:	000e1882 	srl	v1,t6,0x2
40000ea0:	000e2fc2 	srl	a1,t6,0x1f
40000ea4:	272e0030 	addiu	t6,t9,48
40000ea8:	a0ef0007 	sb	t7,7(a3)
40000eac:	01220018 	mult	t1,v0
40000eb0:	00001010 	mfhi	v0
40000eb4:	00658021 	addu	s0,v1,a1
40000eb8:	02460018 	mult	s2,a2
40000ebc:	0000c812 	mflo	t9
40000ec0:	01585023 	subu	t2,t2,t8
40000ec4:	000c1882 	srl	v1,t4,0x2
40000ec8:	000c2fc2 	srl	a1,t4,0x1f
40000ecc:	250f0030 	addiu	t7,t0,48
40000ed0:	a0ee0006 	sb	t6,6(a3)
40000ed4:	00657021 	addu	t6,v1,a1
40000ed8:	02060018 	mult	s0,a2
40000edc:	00006012 	mflo	t4
40000ee0:	01b94023 	subu	t0,t5,t9
40000ee4:	00021883 	sra	v1,v0,0x2
40000ee8:	00022fc2 	srl	a1,v0,0x1f
40000eec:	25420030 	addiu	v0,t2,48
40000ef0:	a0ef0005 	sb	t7,5(a3)
40000ef4:	00655021 	addu	t2,v1,a1
40000ef8:	01c60018 	mult	t6,a2
40000efc:	00002812 	mflo	a1
40000f00:	008c2023 	subu	a0,a0,t4
40000f04:	25030030 	addiu	v1,t0,48
40000f08:	a0e20004 	sb	v0,4(a3)
40000f0c:	01460018 	mult	t2,a2
40000f10:	00003012 	mflo	a2
40000f14:	01652823 	subu	a1,t3,a1
40000f18:	24820030 	addiu	v0,a0,48
40000f1c:	a0e30003 	sb	v1,3(a3)
40000f20:	01262023 	subu	a0,t1,a2
40000f24:	24a30030 	addiu	v1,a1,48
40000f28:	a0e20002 	sb	v0,2(a3)
40000f2c:	24020001 	li	v0,1
40000f30:	24840030 	addiu	a0,a0,48
40000f34:	a0e30001 	sb	v1,1(a3)
40000f38:	8fa30000 	lw	v1,0(sp)
40000f3c:	00000000 	nop
40000f40:	a06426ba 	sb	a0,9914(v1)
40000f44:	080003dd 	j	40000f74 <itoa+0x334>
40000f48:	00000000 	nop
40000f4c:	24030009 	li	v1,9
40000f50:	0062182a 	slt	v1,v1,v0
40000f54:	1460000c 	bnez	v1,40000f88 <itoa+0x348>
40000f58:	00000000 	nop
40000f5c:	3c034000 	lui	v1,0x4000
40000f60:	246326ba 	addiu	v1,v1,9914
40000f64:	00621821 	addu	v1,v1,v0
40000f68:	90640000 	lbu	a0,0(v1)
40000f6c:	00000000 	nop
40000f70:	24420001 	addiu	v0,v0,1
40000f74:	308300ff 	andi	v1,a0,0xff
40000f78:	24040030 	li	a0,48
40000f7c:	1064fff3 	beq	v1,a0,40000f4c <itoa+0x30c>
40000f80:	00000000 	nop
40000f84:	2442ffff 	addiu	v0,v0,-1
40000f88:	8fa30004 	lw	v1,4(sp)
40000f8c:	00000000 	nop
40000f90:	10600004 	beqz	v1,40000fa4 <itoa+0x364>
40000f94:	00000000 	nop
40000f98:	2403002d 	li	v1,45
40000f9c:	3c044000 	lui	a0,0x4000
40000fa0:	a08326c5 	sb	v1,9925(a0)
40000fa4:	2403000a 	li	v1,10
40000fa8:	00622023 	subu	a0,v1,v0
40000fac:	28830001 	slti	v1,a0,1
40000fb0:	10600004 	beqz	v1,40000fc4 <itoa+0x384>
40000fb4:	00000000 	nop
40000fb8:	24040000 	li	a0,0
40000fbc:	08000403 	j	4000100c <itoa+0x3cc>
40000fc0:	00000000 	nop
40000fc4:	3c034000 	lui	v1,0x4000
40000fc8:	2405000a 	li	a1,10
40000fcc:	246326c5 	addiu	v1,v1,9925
40000fd0:	00a21023 	subu	v0,a1,v0
40000fd4:	8fa50004 	lw	a1,4(sp)
40000fd8:	00000000 	nop
40000fdc:	00652821 	addu	a1,v1,a1
40000fe0:	3c034000 	lui	v1,0x4000
40000fe4:	246326ba 	addiu	v1,v1,9914
40000fe8:	00621823 	subu	v1,v1,v0
40000fec:	9063000a 	lbu	v1,10(v1)
40000ff0:	00000000 	nop
40000ff4:	2442ffff 	addiu	v0,v0,-1
40000ff8:	24a60001 	addiu	a2,a1,1
40000ffc:	a0a30000 	sb	v1,0(a1)
40001000:	00062821 	addu	a1,zero,a2
40001004:	1440fff6 	bnez	v0,40000fe0 <itoa+0x3a0>
40001008:	00000000 	nop
4000100c:	3c024000 	lui	v0,0x4000
40001010:	244226c5 	addiu	v0,v0,9925
40001014:	8fa30004 	lw	v1,4(sp)
40001018:	00000000 	nop
4000101c:	00832021 	addu	a0,a0,v1
40001020:	24030000 	li	v1,0
40001024:	00442021 	addu	a0,v0,a0
40001028:	a0830000 	sb	v1,0(a0)
4000102c:	8fb00008 	lw	s0,8(sp)
40001030:	00000000 	nop
40001034:	8fb1000c 	lw	s1,12(sp)
40001038:	00000000 	nop
4000103c:	8fb20010 	lw	s2,16(sp)
40001040:	00000000 	nop
40001044:	8fb30014 	lw	s3,20(sp)
40001048:	00000000 	nop
4000104c:	8fb40018 	lw	s4,24(sp)
40001050:	00000000 	nop
40001054:	8fb5001c 	lw	s5,28(sp)
40001058:	00000000 	nop
4000105c:	8fb60020 	lw	s6,32(sp)
40001060:	00000000 	nop
40001064:	8fb70024 	lw	s7,36(sp)
40001068:	00000000 	nop
4000106c:	27bd0028 	addiu	sp,sp,40
40001070:	03e00008 	jr	ra
40001074:	00000000 	nop

40001078 <utoa>:
40001078:	27bdffe8 	addiu	sp,sp,-24
4000107c:	afb50014 	sw	s5,20(sp)
40001080:	afb40010 	sw	s4,16(sp)
40001084:	afb3000c 	sw	s3,12(sp)
40001088:	afb20008 	sw	s2,8(sp)
4000108c:	afb10004 	sw	s1,4(sp)
40001090:	afb00000 	sw	s0,0(sp)
40001094:	3c024000 	lui	v0,0x4000
40001098:	14800019 	bnez	a0,40001100 <utoa+0x88>
4000109c:	00000000 	nop
400010a0:	2442251d 	addiu	v0,v0,9501
400010a4:	080004dc 	j	40001370 <utoa+0x2f8>
400010a8:	00000000 	nop
400010ac:	24020009 	li	v0,9
400010b0:	0043102a 	slt	v0,v0,v1
400010b4:	1440000a 	bnez	v0,400010e0 <utoa+0x68>
400010b8:	00000000 	nop
400010bc:	3c024000 	lui	v0,0x4000
400010c0:	244226d0 	addiu	v0,v0,9936
400010c4:	00431021 	addu	v0,v0,v1
400010c8:	90440000 	lbu	a0,0(v0)
400010cc:	00000000 	nop
400010d0:	24630001 	addiu	v1,v1,1
400010d4:	080004c2 	j	40001308 <utoa+0x290>
400010d8:	00000000 	nop
400010dc:	2463ffff 	addiu	v1,v1,-1
400010e0:	2402000a 	li	v0,10
400010e4:	00432023 	subu	a0,v0,v1
400010e8:	28820001 	slti	v0,a0,1
400010ec:	1040008c 	beqz	v0,40001320 <utoa+0x2a8>
400010f0:	00000000 	nop
400010f4:	24040000 	li	a0,0
400010f8:	080004d7 	j	4000135c <utoa+0x2e4>
400010fc:	00000000 	nop
40001100:	3c03cccc 	lui	v1,0xcccc
40001104:	3c0251eb 	lui	v0,0x51eb
40001108:	3463cccd 	ori	v1,v1,0xcccd
4000110c:	3c051062 	lui	a1,0x1062
40001110:	3442851f 	ori	v0,v0,0x851f
40001114:	00830019 	multu	a0,v1
40001118:	00003010 	mfhi	a2
4000111c:	3c07d1b7 	lui	a3,0xd1b7
40001120:	34a54dd3 	ori	a1,a1,0x4dd3
40001124:	00820019 	multu	a0,v0
40001128:	00001010 	mfhi	v0
4000112c:	000658c2 	srl	t3,a2,0x3
40001130:	3c060a7c 	lui	a2,0xa7c
40001134:	34e71759 	ori	a3,a3,0x1759
40001138:	00850019 	multu	a0,a1
4000113c:	00004010 	mfhi	t0
40001140:	00025142 	srl	t2,v0,0x5
40001144:	01630019 	multu	t3,v1
40001148:	00006010 	mfhi	t4
4000114c:	2405000a 	li	a1,10
40001150:	3c024000 	lui	v0,0x4000
40001154:	3c09431b 	lui	t1,0x431b
40001158:	00870019 	multu	a0,a3
4000115c:	00003810 	mfhi	a3
40001160:	00084182 	srl	t0,t0,0x6
40001164:	01430019 	multu	t2,v1
40001168:	00007010 	mfhi	t6
4000116c:	000c68c2 	srl	t5,t4,0x3
40001170:	01650018 	mult	t3,a1
40001174:	00006012 	mflo	t4
40001178:	00047942 	srl	t7,a0,0x5
4000117c:	34c65ac5 	ori	a2,a2,0x5ac5
40001180:	3c196b5f 	lui	t9,0x6b5f
40001184:	3538de83 	ori	t8,t1,0xde83
40001188:	01e60019 	multu	t7,a2
4000118c:	00004810 	mfhi	t1
40001190:	00073b42 	srl	a3,a3,0xd
40001194:	01030019 	multu	t0,v1
40001198:	00007810 	mfhi	t7
4000119c:	000e70c2 	srl	t6,t6,0x3
400011a0:	01a50018 	mult	t5,a1
400011a4:	00006812 	mflo	t5
400011a8:	008c6023 	subu	t4,a0,t4
400011ac:	244626d0 	addiu	a2,v0,9936
400011b0:	24130000 	li	s3,0
400011b4:	3c1255e6 	lui	s2,0x55e6
400011b8:	3731ca6b 	ori	s1,t9,0xca6b
400011bc:	00980019 	multu	a0,t8
400011c0:	00008010 	mfhi	s0
400011c4:	000949c2 	srl	t1,t1,0x7
400011c8:	00e30019 	multu	a3,v1
400011cc:	0000c810 	mfhi	t9
400011d0:	000fc0c2 	srl	t8,t7,0x3
400011d4:	01c50018 	mult	t6,a1
400011d8:	00007812 	mflo	t7
400011dc:	016d7023 	subu	t6,t3,t5
400011e0:	358d0030 	ori	t5,t4,0x30
400011e4:	a0d3000a 	sb	s3,10(a2)
400011e8:	3c0c0004 	lui	t4,0x4
400011ec:	36553b89 	ori	s5,s2,0x3b89
400011f0:	00910019 	multu	a0,s1
400011f4:	0000a010 	mfhi	s4
400011f8:	00105c82 	srl	t3,s0,0x12
400011fc:	01230019 	multu	t1,v1
40001200:	00009810 	mfhi	s3
40001204:	001990c2 	srl	s2,t9,0x3
40001208:	03050018 	mult	t8,a1
4000120c:	00008812 	mflo	s1
40001210:	014f8023 	subu	s0,t2,t7
40001214:	35d90030 	ori	t9,t6,0x30
40001218:	a0cd0009 	sb	t5,9(a2)
4000121c:	00950019 	multu	a0,s5
40001220:	0000c010 	mfhi	t8
40001224:	00145582 	srl	t2,s4,0x16
40001228:	01630019 	multu	t3,v1
4000122c:	00007810 	mfhi	t7
40001230:	001370c2 	srl	t6,s3,0x3
40001234:	02450018 	mult	s2,a1
40001238:	00006812 	mflo	t5
4000123c:	01114023 	subu	t0,t0,s1
40001240:	00042242 	srl	a0,a0,0x9
40001244:	35914b83 	ori	s1,t4,0x4b83
40001248:	360c0030 	ori	t4,s0,0x30
4000124c:	a0d90008 	sb	t9,8(a2)
40001250:	00910019 	multu	a0,s1
40001254:	0000c810 	mfhi	t9
40001258:	00182642 	srl	a0,t8,0x19
4000125c:	01430019 	multu	t2,v1
40001260:	0000c010 	mfhi	t8
40001264:	000f78c2 	srl	t7,t7,0x3
40001268:	01c50018 	mult	t6,a1
4000126c:	00007012 	mflo	t6
40001270:	00ed6823 	subu	t5,a3,t5
40001274:	35080030 	ori	t0,t0,0x30
40001278:	a0cc0007 	sb	t4,7(a2)
4000127c:	001939c2 	srl	a3,t9,0x7
40001280:	00830019 	multu	a0,v1
40001284:	0000c810 	mfhi	t9
40001288:	0018c0c2 	srl	t8,t8,0x3
4000128c:	01e50018 	mult	t7,a1
40001290:	00007812 	mflo	t7
40001294:	012e6023 	subu	t4,t1,t6
40001298:	35a90030 	ori	t1,t5,0x30
4000129c:	a0c80006 	sb	t0,6(a2)
400012a0:	00e30019 	multu	a3,v1
400012a4:	00008010 	mfhi	s0
400012a8:	001970c2 	srl	t6,t9,0x3
400012ac:	03050018 	mult	t8,a1
400012b0:	00006812 	mflo	t5
400012b4:	016f4023 	subu	t0,t3,t7
400012b8:	35830030 	ori	v1,t4,0x30
400012bc:	a0c90005 	sb	t1,5(a2)
400012c0:	001060c2 	srl	t4,s0,0x3
400012c4:	01c50018 	mult	t6,a1
400012c8:	00005812 	mflo	t3
400012cc:	014d4823 	subu	t1,t2,t5
400012d0:	35080030 	ori	t0,t0,0x30
400012d4:	a0c30004 	sb	v1,4(a2)
400012d8:	01850018 	mult	t4,a1
400012dc:	00005012 	mflo	t2
400012e0:	008b2823 	subu	a1,a0,t3
400012e4:	35230030 	ori	v1,t1,0x30
400012e8:	a0c80003 	sb	t0,3(a2)
400012ec:	00ea2023 	subu	a0,a3,t2
400012f0:	34a50030 	ori	a1,a1,0x30
400012f4:	a0c30002 	sb	v1,2(a2)
400012f8:	24030001 	li	v1,1
400012fc:	34840030 	ori	a0,a0,0x30
40001300:	a0c50001 	sb	a1,1(a2)
40001304:	a04426d0 	sb	a0,9936(v0)
40001308:	308200ff 	andi	v0,a0,0xff
4000130c:	24040030 	li	a0,48
40001310:	1044ff66 	beq	v0,a0,400010ac <utoa+0x34>
40001314:	00000000 	nop
40001318:	08000437 	j	400010dc <utoa+0x64>
4000131c:	00000000 	nop
40001320:	3c054000 	lui	a1,0x4000
40001324:	2402000a 	li	v0,10
40001328:	00431023 	subu	v0,v0,v1
4000132c:	24a326db 	addiu	v1,a1,9947
40001330:	3c054000 	lui	a1,0x4000
40001334:	24a526d0 	addiu	a1,a1,9936
40001338:	00a22823 	subu	a1,a1,v0
4000133c:	90a5000a 	lbu	a1,10(a1)
40001340:	00000000 	nop
40001344:	2442ffff 	addiu	v0,v0,-1
40001348:	24660001 	addiu	a2,v1,1
4000134c:	a0650000 	sb	a1,0(v1)
40001350:	00061821 	addu	v1,zero,a2
40001354:	1440fff6 	bnez	v0,40001330 <utoa+0x2b8>
40001358:	00000000 	nop
4000135c:	3c024000 	lui	v0,0x4000
40001360:	244226db 	addiu	v0,v0,9947
40001364:	24030000 	li	v1,0
40001368:	00442021 	addu	a0,v0,a0
4000136c:	a0830000 	sb	v1,0(a0)
40001370:	8fb00000 	lw	s0,0(sp)
40001374:	00000000 	nop
40001378:	8fb10004 	lw	s1,4(sp)
4000137c:	00000000 	nop
40001380:	8fb20008 	lw	s2,8(sp)
40001384:	00000000 	nop
40001388:	8fb3000c 	lw	s3,12(sp)
4000138c:	00000000 	nop
40001390:	8fb40010 	lw	s4,16(sp)
40001394:	00000000 	nop
40001398:	8fb50014 	lw	s5,20(sp)
4000139c:	00000000 	nop
400013a0:	27bd0018 	addiu	sp,sp,24
400013a4:	03e00008 	jr	ra
400013a8:	00000000 	nop

400013ac <puts>:
400013ac:	24020000 	li	v0,0
400013b0:	90830000 	lbu	v1,0(a0)
400013b4:	00000000 	nop
400013b8:	1060002e 	beqz	v1,40001474 <puts+0xc8>
400013bc:	00000000 	nop
400013c0:	2405000d 	li	a1,13
400013c4:	14650005 	bne	v1,a1,400013dc <puts+0x30>
400013c8:	00000000 	nop
400013cc:	2403000d 	li	v1,13
400013d0:	24020001 	li	v0,1
400013d4:	0800050c 	j	40001430 <puts+0x84>
400013d8:	00000000 	nop
400013dc:	2405000a 	li	a1,10
400013e0:	14650013 	bne	v1,a1,40001430 <puts+0x84>
400013e4:	00000000 	nop
400013e8:	14400011 	bnez	v0,40001430 <puts+0x84>
400013ec:	00000000 	nop
400013f0:	3c03ff20 	lui	v1,0xff20
400013f4:	3c020001 	lui	v0,0x1
400013f8:	34631004 	ori	v1,v1,0x1004
400013fc:	34420000 	ori	v0,v0,0x0
40001400:	8c630000 	lw	v1,0(v1)
40001404:	00000000 	nop
40001408:	0062102b 	sltu	v0,v1,v0
4000140c:	1440fff8 	bnez	v0,400013f0 <puts+0x44>
40001410:	00000000 	nop
40001414:	3c03ff20 	lui	v1,0xff20
40001418:	2402000d 	li	v0,13
4000141c:	34631000 	ori	v1,v1,0x1000
40001420:	ac620000 	sw	v0,0(v1)
40001424:	90830000 	lbu	v1,0(a0)
40001428:	00000000 	nop
4000142c:	24020000 	li	v0,0
40001430:	3c06ff20 	lui	a2,0xff20
40001434:	3c050001 	lui	a1,0x1
40001438:	34c61004 	ori	a2,a2,0x1004
4000143c:	34a50000 	ori	a1,a1,0x0
40001440:	8cc60000 	lw	a2,0(a2)
40001444:	00000000 	nop
40001448:	00c5282b 	sltu	a1,a2,a1
4000144c:	14a0fff8 	bnez	a1,40001430 <puts+0x84>
40001450:	00000000 	nop
40001454:	00032e00 	sll	a1,v1,0x18
40001458:	3c03ff20 	lui	v1,0xff20
4000145c:	24840001 	addiu	a0,a0,1
40001460:	00052e03 	sra	a1,a1,0x18
40001464:	34631000 	ori	v1,v1,0x1000
40001468:	ac650000 	sw	a1,0(v1)
4000146c:	080004ec 	j	400013b0 <puts+0x4>
40001470:	00000000 	nop
40001474:	3c03ff20 	lui	v1,0xff20
40001478:	3c020001 	lui	v0,0x1
4000147c:	34631004 	ori	v1,v1,0x1004
40001480:	34420000 	ori	v0,v0,0x0
40001484:	8c630000 	lw	v1,0(v1)
40001488:	00000000 	nop
4000148c:	0062102b 	sltu	v0,v1,v0
40001490:	1440fff8 	bnez	v0,40001474 <puts+0xc8>
40001494:	00000000 	nop
40001498:	3c03ff20 	lui	v1,0xff20
4000149c:	2402000a 	li	v0,10
400014a0:	34631000 	ori	v1,v1,0x1000
400014a4:	ac620000 	sw	v0,0(v1)
400014a8:	24020000 	li	v0,0
400014ac:	03e00008 	jr	ra
400014b0:	00000000 	nop

400014b4 <printf>:
400014b4:	27bdffb8 	addiu	sp,sp,-72
400014b8:	afbf0044 	sw	ra,68(sp)
400014bc:	afb30040 	sw	s3,64(sp)
400014c0:	afb2003c 	sw	s2,60(sp)
400014c4:	afb10038 	sw	s1,56(sp)
400014c8:	afb00034 	sw	s0,52(sp)
400014cc:	00048021 	addu	s0,zero,a0
400014d0:	24020000 	li	v0,0
400014d4:	27a3004c 	addiu	v1,sp,76
400014d8:	afa5004c 	sw	a1,76(sp)
400014dc:	afa60050 	sw	a2,80(sp)
400014e0:	afa70054 	sw	a3,84(sp)
400014e4:	afa30010 	sw	v1,16(sp)
400014e8:	00028821 	addu	s1,zero,v0
400014ec:	02022021 	addu	a0,s0,v0
400014f0:	90830000 	lbu	v1,0(a0)
400014f4:	00000000 	nop
400014f8:	10600374 	beqz	v1,400022cc <printf+0xe18>
400014fc:	00000000 	nop
40001500:	2405000d 	li	a1,13
40001504:	14650005 	bne	v1,a1,4000151c <printf+0x68>
40001508:	00000000 	nop
4000150c:	2403000d 	li	v1,13
40001510:	24110001 	li	s1,1
40001514:	080008a2 	j	40002288 <printf+0xdd4>
40001518:	00000000 	nop
4000151c:	24050025 	li	a1,37
40001520:	14650344 	bne	v1,a1,40002234 <printf+0xd80>
40001524:	00000000 	nop
40001528:	02021821 	addu	v1,s0,v0
4000152c:	90640001 	lbu	a0,1(v1)
40001530:	00000000 	nop
40001534:	2483ffd0 	addiu	v1,a0,-48
40001538:	306300ff 	andi	v1,v1,0xff
4000153c:	24520001 	addiu	s2,v0,1
40001540:	2c65000a 	sltiu	a1,v1,10
40001544:	00021821 	addu	v1,zero,v0
40001548:	00121021 	addu	v0,zero,s2
4000154c:	14a0fff6 	bnez	a1,40001528 <printf+0x74>
40001550:	00000000 	nop
40001554:	308200ff 	andi	v0,a0,0xff
40001558:	2404006c 	li	a0,108
4000155c:	00441026 	xor	v0,v0,a0
40001560:	14400002 	bnez	v0,4000156c <printf+0xb8>
40001564:	00000000 	nop
40001568:	24720002 	addiu	s2,v1,2
4000156c:	02121021 	addu	v0,s0,s2
40001570:	80430000 	lb	v1,0(v0)
40001574:	00000000 	nop
40001578:	24040057 	li	a0,87
4000157c:	0083202a 	slt	a0,a0,v1
40001580:	14800011 	bnez	a0,400015c8 <printf+0x114>
40001584:	00000000 	nop
40001588:	24040025 	li	a0,37
4000158c:	1464030b 	bne	v1,a0,400021bc <printf+0xd08>
40001590:	00000000 	nop
40001594:	3c03ff20 	lui	v1,0xff20
40001598:	3c020001 	lui	v0,0x1
4000159c:	34631004 	ori	v1,v1,0x1004
400015a0:	34420000 	ori	v0,v0,0x0
400015a4:	8c630000 	lw	v1,0(v1)
400015a8:	00000000 	nop
400015ac:	0062102b 	sltu	v0,v1,v0
400015b0:	1440fff8 	bnez	v0,40001594 <printf+0xe0>
400015b4:	00000000 	nop
400015b8:	3c03ff20 	lui	v1,0xff20
400015bc:	24020025 	li	v0,37
400015c0:	08000888 	j	40002220 <printf+0xd6c>
400015c4:	00000000 	nop
400015c8:	24040062 	li	a0,98
400015cc:	0083202a 	slt	a0,a0,v1
400015d0:	14800010 	bnez	a0,40001614 <printf+0x160>
400015d4:	00000000 	nop
400015d8:	24040058 	li	a0,88
400015dc:	146402f7 	bne	v1,a0,400021bc <printf+0xd08>
400015e0:	00000000 	nop
400015e4:	8fa30010 	lw	v1,16(sp)
400015e8:	00000000 	nop
400015ec:	24640004 	addiu	a0,v1,4
400015f0:	3c024000 	lui	v0,0x4000
400015f4:	afa40010 	sw	a0,16(sp)
400015f8:	8c640000 	lw	a0,0(v1)
400015fc:	00000000 	nop
40001600:	148000e4 	bnez	a0,40001994 <printf+0x4e0>
40001604:	00000000 	nop
40001608:	2444251d 	addiu	a0,v0,9501
4000160c:	0800068d 	j	40001a34 <printf+0x580>
40001610:	00000000 	nop
40001614:	24040072 	li	a0,114
40001618:	0083202a 	slt	a0,a0,v1
4000161c:	1480000e 	bnez	a0,40001658 <printf+0x1a4>
40001620:	00000000 	nop
40001624:	2463ff9d 	addiu	v1,v1,-99
40001628:	24040009 	li	a0,9
4000162c:	0083202b 	sltu	a0,a0,v1
40001630:	148002e2 	bnez	a0,400021bc <printf+0xd08>
40001634:	00000000 	nop
40001638:	3c044000 	lui	a0,0x4000
4000163c:	00031880 	sll	v1,v1,0x2
40001640:	248424d0 	addiu	a0,a0,9424
40001644:	00641821 	addu	v1,v1,a0
40001648:	8c630000 	lw	v1,0(v1)
4000164c:	00000000 	nop
40001650:	00600008 	jr	v1
40001654:	00000000 	nop
40001658:	24040073 	li	a0,115
4000165c:	10640057 	beq	v1,a0,400017bc <printf+0x308>
40001660:	00000000 	nop
40001664:	24040075 	li	a0,117
40001668:	10640032 	beq	v1,a0,40001734 <printf+0x280>
4000166c:	00000000 	nop
40001670:	24040078 	li	a0,120
40001674:	146402d1 	bne	v1,a0,400021bc <printf+0xd08>
40001678:	00000000 	nop
4000167c:	8fa30010 	lw	v1,16(sp)
40001680:	00000000 	nop
40001684:	24640004 	addiu	a0,v1,4
40001688:	3c024000 	lui	v0,0x4000
4000168c:	afa40010 	sw	a0,16(sp)
40001690:	8c640000 	lw	a0,0(v1)
40001694:	00000000 	nop
40001698:	1480007c 	bnez	a0,4000188c <printf+0x3d8>
4000169c:	00000000 	nop
400016a0:	2444251d 	addiu	a0,v0,9501
400016a4:	0800064b 	j	4000192c <printf+0x478>
400016a8:	00000000 	nop
400016ac:	8fa20010 	lw	v0,16(sp)
400016b0:	00000000 	nop
400016b4:	24430004 	addiu	v1,v0,4
400016b8:	afa30010 	sw	v1,16(sp)
400016bc:	8c440000 	lw	a0,0(v0)
400016c0:	00000000 	nop
400016c4:	0c000310 	jal	40000c40 <itoa>
400016c8:	00000000 	nop
400016cc:	90430000 	lbu	v1,0(v0)
400016d0:	00000000 	nop
400016d4:	106002d4 	beqz	v1,40002228 <printf+0xd74>
400016d8:	00000000 	nop
400016dc:	24420001 	addiu	v0,v0,1
400016e0:	3c05ff20 	lui	a1,0xff20
400016e4:	3c040001 	lui	a0,0x1
400016e8:	34a51004 	ori	a1,a1,0x1004
400016ec:	34840000 	ori	a0,a0,0x0
400016f0:	8ca50000 	lw	a1,0(a1)
400016f4:	00000000 	nop
400016f8:	00a4202b 	sltu	a0,a1,a0
400016fc:	1480fff8 	bnez	a0,400016e0 <printf+0x22c>
40001700:	00000000 	nop
40001704:	00031e00 	sll	v1,v1,0x18
40001708:	3c04ff20 	lui	a0,0xff20
4000170c:	00031e03 	sra	v1,v1,0x18
40001710:	34841000 	ori	a0,a0,0x1000
40001714:	ac830000 	sw	v1,0(a0)
40001718:	90430000 	lbu	v1,0(v0)
4000171c:	00000000 	nop
40001720:	24420001 	addiu	v0,v0,1
40001724:	1460ffee 	bnez	v1,400016e0 <printf+0x22c>
40001728:	00000000 	nop
4000172c:	0800088a 	j	40002228 <printf+0xd74>
40001730:	00000000 	nop
40001734:	8fa20010 	lw	v0,16(sp)
40001738:	00000000 	nop
4000173c:	24430004 	addiu	v1,v0,4
40001740:	afa30010 	sw	v1,16(sp)
40001744:	8c440000 	lw	a0,0(v0)
40001748:	00000000 	nop
4000174c:	0c00041e 	jal	40001078 <utoa>
40001750:	00000000 	nop
40001754:	90430000 	lbu	v1,0(v0)
40001758:	00000000 	nop
4000175c:	106002b2 	beqz	v1,40002228 <printf+0xd74>
40001760:	00000000 	nop
40001764:	24420001 	addiu	v0,v0,1
40001768:	3c05ff20 	lui	a1,0xff20
4000176c:	3c040001 	lui	a0,0x1
40001770:	34a51004 	ori	a1,a1,0x1004
40001774:	34840000 	ori	a0,a0,0x0
40001778:	8ca50000 	lw	a1,0(a1)
4000177c:	00000000 	nop
40001780:	00a4202b 	sltu	a0,a1,a0
40001784:	1480fff8 	bnez	a0,40001768 <printf+0x2b4>
40001788:	00000000 	nop
4000178c:	00031e00 	sll	v1,v1,0x18
40001790:	3c04ff20 	lui	a0,0xff20
40001794:	00031e03 	sra	v1,v1,0x18
40001798:	34841000 	ori	a0,a0,0x1000
4000179c:	ac830000 	sw	v1,0(a0)
400017a0:	90430000 	lbu	v1,0(v0)
400017a4:	00000000 	nop
400017a8:	24420001 	addiu	v0,v0,1
400017ac:	1460ffee 	bnez	v1,40001768 <printf+0x2b4>
400017b0:	00000000 	nop
400017b4:	0800088a 	j	40002228 <printf+0xd74>
400017b8:	00000000 	nop
400017bc:	8fa20010 	lw	v0,16(sp)
400017c0:	00000000 	nop
400017c4:	24430004 	addiu	v1,v0,4
400017c8:	afa30010 	sw	v1,16(sp)
400017cc:	8c420000 	lw	v0,0(v0)
400017d0:	00000000 	nop
400017d4:	90430000 	lbu	v1,0(v0)
400017d8:	00000000 	nop
400017dc:	10600292 	beqz	v1,40002228 <printf+0xd74>
400017e0:	00000000 	nop
400017e4:	24420001 	addiu	v0,v0,1
400017e8:	3c05ff20 	lui	a1,0xff20
400017ec:	3c040001 	lui	a0,0x1
400017f0:	34a51004 	ori	a1,a1,0x1004
400017f4:	34840000 	ori	a0,a0,0x0
400017f8:	8ca50000 	lw	a1,0(a1)
400017fc:	00000000 	nop
40001800:	00a4202b 	sltu	a0,a1,a0
40001804:	1480fff8 	bnez	a0,400017e8 <printf+0x334>
40001808:	00000000 	nop
4000180c:	00031e00 	sll	v1,v1,0x18
40001810:	3c04ff20 	lui	a0,0xff20
40001814:	00031e03 	sra	v1,v1,0x18
40001818:	34841000 	ori	a0,a0,0x1000
4000181c:	ac830000 	sw	v1,0(a0)
40001820:	90430000 	lbu	v1,0(v0)
40001824:	00000000 	nop
40001828:	24420001 	addiu	v0,v0,1
4000182c:	1460ffee 	bnez	v1,400017e8 <printf+0x334>
40001830:	00000000 	nop
40001834:	0800088a 	j	40002228 <printf+0xd74>
40001838:	00000000 	nop
4000183c:	8fa20010 	lw	v0,16(sp)
40001840:	00000000 	nop
40001844:	24430004 	addiu	v1,v0,4
40001848:	afa30010 	sw	v1,16(sp)
4000184c:	8c420000 	lw	v0,0(v0)
40001850:	00000000 	nop
40001854:	3c04ff20 	lui	a0,0xff20
40001858:	3c030001 	lui	v1,0x1
4000185c:	34841004 	ori	a0,a0,0x1004
40001860:	34630000 	ori	v1,v1,0x0
40001864:	8c840000 	lw	a0,0(a0)
40001868:	00000000 	nop
4000186c:	0083182b 	sltu	v1,a0,v1
40001870:	1460fff8 	bnez	v1,40001854 <printf+0x3a0>
40001874:	00000000 	nop
40001878:	00021600 	sll	v0,v0,0x18
4000187c:	3c03ff20 	lui	v1,0xff20
40001880:	00021603 	sra	v0,v0,0x18
40001884:	08000888 	j	40002220 <printf+0xd6c>
40001888:	00000000 	nop
4000188c:	24050000 	li	a1,0
40001890:	00051821 	addu	v1,zero,a1
40001894:	3086000f 	andi	a2,a0,0xf
40001898:	2cc2000a 	sltiu	v0,a2,10
4000189c:	14400004 	bnez	v0,400018b0 <printf+0x3fc>
400018a0:	00000000 	nop
400018a4:	24070057 	li	a3,87
400018a8:	0800062d 	j	400018b4 <printf+0x400>
400018ac:	00000000 	nop
400018b0:	24070030 	li	a3,48
400018b4:	27a20014 	addiu	v0,sp,20
400018b8:	00042102 	srl	a0,a0,0x4
400018bc:	24650001 	addiu	a1,v1,1
400018c0:	00e63021 	addu	a2,a3,a2
400018c4:	00433821 	addu	a3,v0,v1
400018c8:	a0e60000 	sb	a2,0(a3)
400018cc:	1480fff0 	bnez	a0,40001890 <printf+0x3dc>
400018d0:	00000000 	nop
400018d4:	3c044000 	lui	a0,0x4000
400018d8:	248426a0 	addiu	a0,a0,9888
400018dc:	24060000 	li	a2,0
400018e0:	00853821 	addu	a3,a0,a1
400018e4:	a0e60000 	sb	a2,0(a3)
400018e8:	04600010 	bltz	v1,4000192c <printf+0x478>
400018ec:	00000000 	nop
400018f0:	3c044000 	lui	a0,0x4000
400018f4:	24030000 	li	v1,0
400018f8:	00651823 	subu	v1,v1,a1
400018fc:	248426a0 	addiu	a0,a0,9888
40001900:	3c054000 	lui	a1,0x4000
40001904:	00433023 	subu	a2,v0,v1
40001908:	90c6ffff 	lbu	a2,-1(a2)
4000190c:	00000000 	nop
40001910:	24630001 	addiu	v1,v1,1
40001914:	24870001 	addiu	a3,a0,1
40001918:	a0860000 	sb	a2,0(a0)
4000191c:	00072021 	addu	a0,zero,a3
40001920:	1460fff7 	bnez	v1,40001900 <printf+0x44c>
40001924:	00000000 	nop
40001928:	24a426a0 	addiu	a0,a1,9888
4000192c:	90830000 	lbu	v1,0(a0)
40001930:	00000000 	nop
40001934:	1060023c 	beqz	v1,40002228 <printf+0xd74>
40001938:	00000000 	nop
4000193c:	24820001 	addiu	v0,a0,1
40001940:	3c05ff20 	lui	a1,0xff20
40001944:	3c040001 	lui	a0,0x1
40001948:	34a51004 	ori	a1,a1,0x1004
4000194c:	34840000 	ori	a0,a0,0x0
40001950:	8ca50000 	lw	a1,0(a1)
40001954:	00000000 	nop
40001958:	00a4202b 	sltu	a0,a1,a0
4000195c:	1480fff8 	bnez	a0,40001940 <printf+0x48c>
40001960:	00000000 	nop
40001964:	00031e00 	sll	v1,v1,0x18
40001968:	3c04ff20 	lui	a0,0xff20
4000196c:	00031e03 	sra	v1,v1,0x18
40001970:	34841000 	ori	a0,a0,0x1000
40001974:	ac830000 	sw	v1,0(a0)
40001978:	90430000 	lbu	v1,0(v0)
4000197c:	00000000 	nop
40001980:	24420001 	addiu	v0,v0,1
40001984:	1460ffee 	bnez	v1,40001940 <printf+0x48c>
40001988:	00000000 	nop
4000198c:	0800088a 	j	40002228 <printf+0xd74>
40001990:	00000000 	nop
40001994:	24050000 	li	a1,0
40001998:	00051821 	addu	v1,zero,a1
4000199c:	3086000f 	andi	a2,a0,0xf
400019a0:	2cc2000a 	sltiu	v0,a2,10
400019a4:	14400004 	bnez	v0,400019b8 <printf+0x504>
400019a8:	00000000 	nop
400019ac:	24070037 	li	a3,55
400019b0:	0800066f 	j	400019bc <printf+0x508>
400019b4:	00000000 	nop
400019b8:	24070030 	li	a3,48
400019bc:	27a20014 	addiu	v0,sp,20
400019c0:	00042102 	srl	a0,a0,0x4
400019c4:	24650001 	addiu	a1,v1,1
400019c8:	00e63021 	addu	a2,a3,a2
400019cc:	00433821 	addu	a3,v0,v1
400019d0:	a0e60000 	sb	a2,0(a3)
400019d4:	1480fff0 	bnez	a0,40001998 <printf+0x4e4>
400019d8:	00000000 	nop
400019dc:	3c044000 	lui	a0,0x4000
400019e0:	248426a0 	addiu	a0,a0,9888
400019e4:	24060000 	li	a2,0
400019e8:	00853821 	addu	a3,a0,a1
400019ec:	a0e60000 	sb	a2,0(a3)
400019f0:	04600010 	bltz	v1,40001a34 <printf+0x580>
400019f4:	00000000 	nop
400019f8:	3c044000 	lui	a0,0x4000
400019fc:	24030000 	li	v1,0
40001a00:	00651823 	subu	v1,v1,a1
40001a04:	248426a0 	addiu	a0,a0,9888
40001a08:	3c054000 	lui	a1,0x4000
40001a0c:	00433023 	subu	a2,v0,v1
40001a10:	90c6ffff 	lbu	a2,-1(a2)
40001a14:	00000000 	nop
40001a18:	24630001 	addiu	v1,v1,1
40001a1c:	24870001 	addiu	a3,a0,1
40001a20:	a0860000 	sb	a2,0(a0)
40001a24:	00072021 	addu	a0,zero,a3
40001a28:	1460fff7 	bnez	v1,40001a08 <printf+0x554>
40001a2c:	00000000 	nop
40001a30:	24a426a0 	addiu	a0,a1,9888
40001a34:	90830000 	lbu	v1,0(a0)
40001a38:	00000000 	nop
40001a3c:	106001fa 	beqz	v1,40002228 <printf+0xd74>
40001a40:	00000000 	nop
40001a44:	24820001 	addiu	v0,a0,1
40001a48:	3c05ff20 	lui	a1,0xff20
40001a4c:	3c040001 	lui	a0,0x1
40001a50:	34a51004 	ori	a1,a1,0x1004
40001a54:	34840000 	ori	a0,a0,0x0
40001a58:	8ca50000 	lw	a1,0(a1)
40001a5c:	00000000 	nop
40001a60:	00a4202b 	sltu	a0,a1,a0
40001a64:	1480fff8 	bnez	a0,40001a48 <printf+0x594>
40001a68:	00000000 	nop
40001a6c:	00031e00 	sll	v1,v1,0x18
40001a70:	3c04ff20 	lui	a0,0xff20
40001a74:	00031e03 	sra	v1,v1,0x18
40001a78:	34841000 	ori	a0,a0,0x1000
40001a7c:	ac830000 	sw	v1,0(a0)
40001a80:	90430000 	lbu	v1,0(v0)
40001a84:	00000000 	nop
40001a88:	24420001 	addiu	v0,v0,1
40001a8c:	1460ffee 	bnez	v1,40001a48 <printf+0x594>
40001a90:	00000000 	nop
40001a94:	0800088a 	j	40002228 <printf+0xd74>
40001a98:	00000000 	nop
40001a9c:	26530001 	addiu	s3,s2,1
40001aa0:	02131021 	addu	v0,s0,s3
40001aa4:	80420000 	lb	v0,0(v0)
40001aa8:	00000000 	nop
40001aac:	24030058 	li	v1,88
40001ab0:	10430091 	beq	v0,v1,40001cf8 <printf+0x844>
40001ab4:	00000000 	nop
40001ab8:	24030078 	li	v1,120
40001abc:	1043002c 	beq	v0,v1,40001b70 <printf+0x6bc>
40001ac0:	00000000 	nop
40001ac4:	24030064 	li	v1,100
40001ac8:	144301d7 	bne	v0,v1,40002228 <printf+0xd74>
40001acc:	00000000 	nop
40001ad0:	8fa20010 	lw	v0,16(sp)
40001ad4:	00000000 	nop
40001ad8:	24430008 	addiu	v1,v0,8
40001adc:	afa30010 	sw	v1,16(sp)
40001ae0:	8c440004 	lw	a0,4(v0)
40001ae4:	00000000 	nop
40001ae8:	0c000310 	jal	40000c40 <itoa>
40001aec:	00000000 	nop
40001af0:	90430000 	lbu	v1,0(v0)
40001af4:	00000000 	nop
40001af8:	14600005 	bnez	v1,40001b10 <printf+0x65c>
40001afc:	00000000 	nop
40001b00:	00139021 	addu	s2,zero,s3
40001b04:	26420001 	addiu	v0,s2,1
40001b08:	0800053b 	j	400014ec <printf+0x38>
40001b0c:	00000000 	nop
40001b10:	24420001 	addiu	v0,v0,1
40001b14:	3c05ff20 	lui	a1,0xff20
40001b18:	3c040001 	lui	a0,0x1
40001b1c:	34a51004 	ori	a1,a1,0x1004
40001b20:	34840000 	ori	a0,a0,0x0
40001b24:	8ca50000 	lw	a1,0(a1)
40001b28:	00000000 	nop
40001b2c:	00a4202b 	sltu	a0,a1,a0
40001b30:	1480fff8 	bnez	a0,40001b14 <printf+0x660>
40001b34:	00000000 	nop
40001b38:	00031e00 	sll	v1,v1,0x18
40001b3c:	3c04ff20 	lui	a0,0xff20
40001b40:	00031e03 	sra	v1,v1,0x18
40001b44:	34841000 	ori	a0,a0,0x1000
40001b48:	ac830000 	sw	v1,0(a0)
40001b4c:	90430000 	lbu	v1,0(v0)
40001b50:	00000000 	nop
40001b54:	24420001 	addiu	v0,v0,1
40001b58:	1460ffee 	bnez	v1,40001b14 <printf+0x660>
40001b5c:	00000000 	nop
40001b60:	00139021 	addu	s2,zero,s3
40001b64:	26420001 	addiu	v0,s2,1
40001b68:	0800053b 	j	400014ec <printf+0x38>
40001b6c:	00000000 	nop
40001b70:	8fa20010 	lw	v0,16(sp)
40001b74:	00000000 	nop
40001b78:	24430004 	addiu	v1,v0,4
40001b7c:	afa30010 	sw	v1,16(sp)
40001b80:	8c430000 	lw	v1,0(v0)
40001b84:	00000000 	nop
40001b88:	24440008 	addiu	a0,v0,8
40001b8c:	3c054000 	lui	a1,0x4000
40001b90:	afa40010 	sw	a0,16(sp)
40001b94:	8c440004 	lw	a0,4(v0)
40001b98:	00000000 	nop
40001b9c:	00641025 	or	v0,v1,a0
40001ba0:	1440000a 	bnez	v0,40001bcc <printf+0x718>
40001ba4:	00000000 	nop
40001ba8:	24a7251d 	addiu	a3,a1,9501
40001bac:	90e30000 	lbu	v1,0(a3)
40001bb0:	00000000 	nop
40001bb4:	14600038 	bnez	v1,40001c98 <printf+0x7e4>
40001bb8:	00000000 	nop
40001bbc:	00139021 	addu	s2,zero,s3
40001bc0:	26420001 	addiu	v0,s2,1
40001bc4:	0800053b 	j	400014ec <printf+0x38>
40001bc8:	00000000 	nop
40001bcc:	24060000 	li	a2,0
40001bd0:	00062821 	addu	a1,zero,a2
40001bd4:	3067000f 	andi	a3,v1,0xf
40001bd8:	2ce2000a 	sltiu	v0,a3,10
40001bdc:	14400004 	bnez	v0,40001bf0 <printf+0x73c>
40001be0:	00000000 	nop
40001be4:	24080057 	li	t0,87
40001be8:	080006fd 	j	40001bf4 <printf+0x740>
40001bec:	00000000 	nop
40001bf0:	24080030 	li	t0,48
40001bf4:	27a20020 	addiu	v0,sp,32
40001bf8:	00031902 	srl	v1,v1,0x4
40001bfc:	00044f00 	sll	t1,a0,0x1c
40001c00:	24a60001 	addiu	a2,a1,1
40001c04:	00691825 	or	v1,v1,t1
40001c08:	00042102 	srl	a0,a0,0x4
40001c0c:	01074021 	addu	t0,t0,a3
40001c10:	00454821 	addu	t1,v0,a1
40001c14:	00643825 	or	a3,v1,a0
40001c18:	a1280000 	sb	t0,0(t1)
40001c1c:	14e0ffec 	bnez	a3,40001bd0 <printf+0x71c>
40001c20:	00000000 	nop
40001c24:	3c034000 	lui	v1,0x4000
40001c28:	246726a9 	addiu	a3,v1,9897
40001c2c:	24030000 	li	v1,0
40001c30:	00e62021 	addu	a0,a3,a2
40001c34:	a0830000 	sb	v1,0(a0)
40001c38:	04a0ffdc 	bltz	a1,40001bac <printf+0x6f8>
40001c3c:	00000000 	nop
40001c40:	24030000 	li	v1,0
40001c44:	24c4ffff 	addiu	a0,a2,-1
40001c48:	00032821 	addu	a1,zero,v1
40001c4c:	3c074000 	lui	a3,0x4000
40001c50:	00443021 	addu	a2,v0,a0
40001c54:	24e726a9 	addiu	a3,a3,9897
40001c58:	90c80000 	lbu	t0,0(a2)
40001c5c:	00000000 	nop
40001c60:	00e34821 	addu	t1,a3,v1
40001c64:	28860001 	slti	a2,a0,1
40001c68:	a1280000 	sb	t0,0(t1)
40001c6c:	14c0ffcf 	bnez	a2,40001bac <printf+0x6f8>
40001c70:	00000000 	nop
40001c74:	24630001 	addiu	v1,v1,1
40001c78:	24060001 	li	a2,1
40001c7c:	0066302b 	sltu	a2,v1,a2
40001c80:	24070000 	li	a3,0
40001c84:	00c73021 	addu	a2,a2,a3
40001c88:	2484ffff 	addiu	a0,a0,-1
40001c8c:	00a62821 	addu	a1,a1,a2
40001c90:	08000713 	j	40001c4c <printf+0x798>
40001c94:	00000000 	nop
40001c98:	24e20001 	addiu	v0,a3,1
40001c9c:	3c05ff20 	lui	a1,0xff20
40001ca0:	3c040001 	lui	a0,0x1
40001ca4:	34a51004 	ori	a1,a1,0x1004
40001ca8:	34840000 	ori	a0,a0,0x0
40001cac:	8ca50000 	lw	a1,0(a1)
40001cb0:	00000000 	nop
40001cb4:	00a4202b 	sltu	a0,a1,a0
40001cb8:	1480fff8 	bnez	a0,40001c9c <printf+0x7e8>
40001cbc:	00000000 	nop
40001cc0:	00031e00 	sll	v1,v1,0x18
40001cc4:	3c04ff20 	lui	a0,0xff20
40001cc8:	00031e03 	sra	v1,v1,0x18
40001ccc:	34841000 	ori	a0,a0,0x1000
40001cd0:	ac830000 	sw	v1,0(a0)
40001cd4:	90430000 	lbu	v1,0(v0)
40001cd8:	00000000 	nop
40001cdc:	24420001 	addiu	v0,v0,1
40001ce0:	1460ffee 	bnez	v1,40001c9c <printf+0x7e8>
40001ce4:	00000000 	nop
40001ce8:	00139021 	addu	s2,zero,s3
40001cec:	26420001 	addiu	v0,s2,1
40001cf0:	0800053b 	j	400014ec <printf+0x38>
40001cf4:	00000000 	nop
40001cf8:	8fa20010 	lw	v0,16(sp)
40001cfc:	00000000 	nop
40001d00:	24430004 	addiu	v1,v0,4
40001d04:	afa30010 	sw	v1,16(sp)
40001d08:	8c430000 	lw	v1,0(v0)
40001d0c:	00000000 	nop
40001d10:	24440008 	addiu	a0,v0,8
40001d14:	3c054000 	lui	a1,0x4000
40001d18:	afa40010 	sw	a0,16(sp)
40001d1c:	8c440004 	lw	a0,4(v0)
40001d20:	00000000 	nop
40001d24:	00641025 	or	v0,v1,a0
40001d28:	1440000a 	bnez	v0,40001d54 <printf+0x8a0>
40001d2c:	00000000 	nop
40001d30:	24a7251d 	addiu	a3,a1,9501
40001d34:	90e30000 	lbu	v1,0(a3)
40001d38:	00000000 	nop
40001d3c:	14600038 	bnez	v1,40001e20 <printf+0x96c>
40001d40:	00000000 	nop
40001d44:	00139021 	addu	s2,zero,s3
40001d48:	26420001 	addiu	v0,s2,1
40001d4c:	0800053b 	j	400014ec <printf+0x38>
40001d50:	00000000 	nop
40001d54:	24060000 	li	a2,0
40001d58:	00062821 	addu	a1,zero,a2
40001d5c:	3067000f 	andi	a3,v1,0xf
40001d60:	2ce2000a 	sltiu	v0,a3,10
40001d64:	14400004 	bnez	v0,40001d78 <printf+0x8c4>
40001d68:	00000000 	nop
40001d6c:	24080037 	li	t0,55
40001d70:	0800075f 	j	40001d7c <printf+0x8c8>
40001d74:	00000000 	nop
40001d78:	24080030 	li	t0,48
40001d7c:	27a20020 	addiu	v0,sp,32
40001d80:	00031902 	srl	v1,v1,0x4
40001d84:	00044f00 	sll	t1,a0,0x1c
40001d88:	24a60001 	addiu	a2,a1,1
40001d8c:	00691825 	or	v1,v1,t1
40001d90:	00042102 	srl	a0,a0,0x4
40001d94:	01074021 	addu	t0,t0,a3
40001d98:	00454821 	addu	t1,v0,a1
40001d9c:	00643825 	or	a3,v1,a0
40001da0:	a1280000 	sb	t0,0(t1)
40001da4:	14e0ffec 	bnez	a3,40001d58 <printf+0x8a4>
40001da8:	00000000 	nop
40001dac:	3c034000 	lui	v1,0x4000
40001db0:	246726a9 	addiu	a3,v1,9897
40001db4:	24030000 	li	v1,0
40001db8:	00e62021 	addu	a0,a3,a2
40001dbc:	a0830000 	sb	v1,0(a0)
40001dc0:	04a0ffdc 	bltz	a1,40001d34 <printf+0x880>
40001dc4:	00000000 	nop
40001dc8:	24030000 	li	v1,0
40001dcc:	24c4ffff 	addiu	a0,a2,-1
40001dd0:	00032821 	addu	a1,zero,v1
40001dd4:	3c074000 	lui	a3,0x4000
40001dd8:	00443021 	addu	a2,v0,a0
40001ddc:	24e726a9 	addiu	a3,a3,9897
40001de0:	90c80000 	lbu	t0,0(a2)
40001de4:	00000000 	nop
40001de8:	00e34821 	addu	t1,a3,v1
40001dec:	28860001 	slti	a2,a0,1
40001df0:	a1280000 	sb	t0,0(t1)
40001df4:	14c0ffcf 	bnez	a2,40001d34 <printf+0x880>
40001df8:	00000000 	nop
40001dfc:	24630001 	addiu	v1,v1,1
40001e00:	24060001 	li	a2,1
40001e04:	0066302b 	sltu	a2,v1,a2
40001e08:	24070000 	li	a3,0
40001e0c:	00c73021 	addu	a2,a2,a3
40001e10:	2484ffff 	addiu	a0,a0,-1
40001e14:	00a62821 	addu	a1,a1,a2
40001e18:	08000775 	j	40001dd4 <printf+0x920>
40001e1c:	00000000 	nop
40001e20:	24e20001 	addiu	v0,a3,1
40001e24:	3c05ff20 	lui	a1,0xff20
40001e28:	3c040001 	lui	a0,0x1
40001e2c:	34a51004 	ori	a1,a1,0x1004
40001e30:	34840000 	ori	a0,a0,0x0
40001e34:	8ca50000 	lw	a1,0(a1)
40001e38:	00000000 	nop
40001e3c:	00a4202b 	sltu	a0,a1,a0
40001e40:	1480fff8 	bnez	a0,40001e24 <printf+0x970>
40001e44:	00000000 	nop
40001e48:	00031e00 	sll	v1,v1,0x18
40001e4c:	3c04ff20 	lui	a0,0xff20
40001e50:	00031e03 	sra	v1,v1,0x18
40001e54:	34841000 	ori	a0,a0,0x1000
40001e58:	ac830000 	sw	v1,0(a0)
40001e5c:	90430000 	lbu	v1,0(v0)
40001e60:	00000000 	nop
40001e64:	24420001 	addiu	v0,v0,1
40001e68:	1460ffee 	bnez	v1,40001e24 <printf+0x970>
40001e6c:	00000000 	nop
40001e70:	00139021 	addu	s2,zero,s3
40001e74:	26420001 	addiu	v0,s2,1
40001e78:	0800053b 	j	400014ec <printf+0x38>
40001e7c:	00000000 	nop
40001e80:	8fa20010 	lw	v0,16(sp)
40001e84:	00000000 	nop
40001e88:	24440004 	addiu	a0,v0,4
40001e8c:	26430001 	addiu	v1,s2,1
40001e90:	afa40010 	sw	a0,16(sp)
40001e94:	02032021 	addu	a0,s0,v1
40001e98:	90840000 	lbu	a0,0(a0)
40001e9c:	00000000 	nop
40001ea0:	24050068 	li	a1,104
40001ea4:	00852026 	xor	a0,a0,a1
40001ea8:	14800002 	bnez	a0,40001eb4 <printf+0xa00>
40001eac:	00000000 	nop
40001eb0:	00039021 	addu	s2,zero,v1
40001eb4:	26520001 	addiu	s2,s2,1
40001eb8:	10800004 	beqz	a0,40001ecc <printf+0xa18>
40001ebc:	00000000 	nop
40001ec0:	3403ffff 	li	v1,0xffff
40001ec4:	080007b4 	j	40001ed0 <printf+0xa1c>
40001ec8:	00000000 	nop
40001ecc:	240300ff 	li	v1,255
40001ed0:	02122821 	addu	a1,s0,s2
40001ed4:	8c440000 	lw	a0,0(v0)
40001ed8:	00000000 	nop
40001edc:	80a20000 	lb	v0,0(a1)
40001ee0:	00000000 	nop
40001ee4:	00642024 	and	a0,v1,a0
40001ee8:	24030058 	li	v1,88
40001eec:	1043006b 	beq	v0,v1,4000209c <printf+0xbe8>
40001ef0:	00000000 	nop
40001ef4:	24030078 	li	v1,120
40001ef8:	10430020 	beq	v0,v1,40001f7c <printf+0xac8>
40001efc:	00000000 	nop
40001f00:	24030064 	li	v1,100
40001f04:	144300c8 	bne	v0,v1,40002228 <printf+0xd74>
40001f08:	00000000 	nop
40001f0c:	0c000310 	jal	40000c40 <itoa>
40001f10:	00000000 	nop
40001f14:	90430000 	lbu	v1,0(v0)
40001f18:	00000000 	nop
40001f1c:	106000c2 	beqz	v1,40002228 <printf+0xd74>
40001f20:	00000000 	nop
40001f24:	24420001 	addiu	v0,v0,1
40001f28:	3c05ff20 	lui	a1,0xff20
40001f2c:	3c040001 	lui	a0,0x1
40001f30:	34a51004 	ori	a1,a1,0x1004
40001f34:	34840000 	ori	a0,a0,0x0
40001f38:	8ca50000 	lw	a1,0(a1)
40001f3c:	00000000 	nop
40001f40:	00a4202b 	sltu	a0,a1,a0
40001f44:	1480fff8 	bnez	a0,40001f28 <printf+0xa74>
40001f48:	00000000 	nop
40001f4c:	00031e00 	sll	v1,v1,0x18
40001f50:	3c04ff20 	lui	a0,0xff20
40001f54:	00031e03 	sra	v1,v1,0x18
40001f58:	34841000 	ori	a0,a0,0x1000
40001f5c:	ac830000 	sw	v1,0(a0)
40001f60:	90430000 	lbu	v1,0(v0)
40001f64:	00000000 	nop
40001f68:	24420001 	addiu	v0,v0,1
40001f6c:	1460ffee 	bnez	v1,40001f28 <printf+0xa74>
40001f70:	00000000 	nop
40001f74:	0800088a 	j	40002228 <printf+0xd74>
40001f78:	00000000 	nop
40001f7c:	3c024000 	lui	v0,0x4000
40001f80:	14800004 	bnez	a0,40001f94 <printf+0xae0>
40001f84:	00000000 	nop
40001f88:	2444251d 	addiu	a0,v0,9501
40001f8c:	0800080d 	j	40002034 <printf+0xb80>
40001f90:	00000000 	nop
40001f94:	24050000 	li	a1,0
40001f98:	00051821 	addu	v1,zero,a1
40001f9c:	3086000f 	andi	a2,a0,0xf
40001fa0:	2cc2000a 	sltiu	v0,a2,10
40001fa4:	14400004 	bnez	v0,40001fb8 <printf+0xb04>
40001fa8:	00000000 	nop
40001fac:	24070057 	li	a3,87
40001fb0:	080007ef 	j	40001fbc <printf+0xb08>
40001fb4:	00000000 	nop
40001fb8:	24070030 	li	a3,48
40001fbc:	27a20014 	addiu	v0,sp,20
40001fc0:	00042102 	srl	a0,a0,0x4
40001fc4:	24650001 	addiu	a1,v1,1
40001fc8:	00e63021 	addu	a2,a3,a2
40001fcc:	00433821 	addu	a3,v0,v1
40001fd0:	a0e60000 	sb	a2,0(a3)
40001fd4:	1480fff0 	bnez	a0,40001f98 <printf+0xae4>
40001fd8:	00000000 	nop
40001fdc:	3c044000 	lui	a0,0x4000
40001fe0:	248426a0 	addiu	a0,a0,9888
40001fe4:	24060000 	li	a2,0
40001fe8:	00853821 	addu	a3,a0,a1
40001fec:	a0e60000 	sb	a2,0(a3)
40001ff0:	04600010 	bltz	v1,40002034 <printf+0xb80>
40001ff4:	00000000 	nop
40001ff8:	3c044000 	lui	a0,0x4000
40001ffc:	24030000 	li	v1,0
40002000:	00651823 	subu	v1,v1,a1
40002004:	248426a0 	addiu	a0,a0,9888
40002008:	3c054000 	lui	a1,0x4000
4000200c:	00433023 	subu	a2,v0,v1
40002010:	90c6ffff 	lbu	a2,-1(a2)
40002014:	00000000 	nop
40002018:	24630001 	addiu	v1,v1,1
4000201c:	24870001 	addiu	a3,a0,1
40002020:	a0860000 	sb	a2,0(a0)
40002024:	00072021 	addu	a0,zero,a3
40002028:	1460fff7 	bnez	v1,40002008 <printf+0xb54>
4000202c:	00000000 	nop
40002030:	24a426a0 	addiu	a0,a1,9888
40002034:	90830000 	lbu	v1,0(a0)
40002038:	00000000 	nop
4000203c:	1060007a 	beqz	v1,40002228 <printf+0xd74>
40002040:	00000000 	nop
40002044:	24820001 	addiu	v0,a0,1
40002048:	3c05ff20 	lui	a1,0xff20
4000204c:	3c040001 	lui	a0,0x1
40002050:	34a51004 	ori	a1,a1,0x1004
40002054:	34840000 	ori	a0,a0,0x0
40002058:	8ca50000 	lw	a1,0(a1)
4000205c:	00000000 	nop
40002060:	00a4202b 	sltu	a0,a1,a0
40002064:	1480fff8 	bnez	a0,40002048 <printf+0xb94>
40002068:	00000000 	nop
4000206c:	00031e00 	sll	v1,v1,0x18
40002070:	3c04ff20 	lui	a0,0xff20
40002074:	00031e03 	sra	v1,v1,0x18
40002078:	34841000 	ori	a0,a0,0x1000
4000207c:	ac830000 	sw	v1,0(a0)
40002080:	90430000 	lbu	v1,0(v0)
40002084:	00000000 	nop
40002088:	24420001 	addiu	v0,v0,1
4000208c:	1460ffee 	bnez	v1,40002048 <printf+0xb94>
40002090:	00000000 	nop
40002094:	0800088a 	j	40002228 <printf+0xd74>
40002098:	00000000 	nop
4000209c:	3c024000 	lui	v0,0x4000
400020a0:	14800004 	bnez	a0,400020b4 <printf+0xc00>
400020a4:	00000000 	nop
400020a8:	2444251d 	addiu	a0,v0,9501
400020ac:	08000855 	j	40002154 <printf+0xca0>
400020b0:	00000000 	nop
400020b4:	24050000 	li	a1,0
400020b8:	00051821 	addu	v1,zero,a1
400020bc:	3086000f 	andi	a2,a0,0xf
400020c0:	2cc2000a 	sltiu	v0,a2,10
400020c4:	14400004 	bnez	v0,400020d8 <printf+0xc24>
400020c8:	00000000 	nop
400020cc:	24070037 	li	a3,55
400020d0:	08000837 	j	400020dc <printf+0xc28>
400020d4:	00000000 	nop
400020d8:	24070030 	li	a3,48
400020dc:	27a20014 	addiu	v0,sp,20
400020e0:	00042102 	srl	a0,a0,0x4
400020e4:	24650001 	addiu	a1,v1,1
400020e8:	00e63021 	addu	a2,a3,a2
400020ec:	00433821 	addu	a3,v0,v1
400020f0:	a0e60000 	sb	a2,0(a3)
400020f4:	1480fff0 	bnez	a0,400020b8 <printf+0xc04>
400020f8:	00000000 	nop
400020fc:	3c044000 	lui	a0,0x4000
40002100:	248426a0 	addiu	a0,a0,9888
40002104:	24060000 	li	a2,0
40002108:	00853821 	addu	a3,a0,a1
4000210c:	a0e60000 	sb	a2,0(a3)
40002110:	04600010 	bltz	v1,40002154 <printf+0xca0>
40002114:	00000000 	nop
40002118:	3c044000 	lui	a0,0x4000
4000211c:	24030000 	li	v1,0
40002120:	00651823 	subu	v1,v1,a1
40002124:	248426a0 	addiu	a0,a0,9888
40002128:	3c054000 	lui	a1,0x4000
4000212c:	00433023 	subu	a2,v0,v1
40002130:	90c6ffff 	lbu	a2,-1(a2)
40002134:	00000000 	nop
40002138:	24630001 	addiu	v1,v1,1
4000213c:	24870001 	addiu	a3,a0,1
40002140:	a0860000 	sb	a2,0(a0)
40002144:	00072021 	addu	a0,zero,a3
40002148:	1460fff7 	bnez	v1,40002128 <printf+0xc74>
4000214c:	00000000 	nop
40002150:	24a426a0 	addiu	a0,a1,9888
40002154:	90830000 	lbu	v1,0(a0)
40002158:	00000000 	nop
4000215c:	10600032 	beqz	v1,40002228 <printf+0xd74>
40002160:	00000000 	nop
40002164:	24820001 	addiu	v0,a0,1
40002168:	3c05ff20 	lui	a1,0xff20
4000216c:	3c040001 	lui	a0,0x1
40002170:	34a51004 	ori	a1,a1,0x1004
40002174:	34840000 	ori	a0,a0,0x0
40002178:	8ca50000 	lw	a1,0(a1)
4000217c:	00000000 	nop
40002180:	00a4202b 	sltu	a0,a1,a0
40002184:	1480fff8 	bnez	a0,40002168 <printf+0xcb4>
40002188:	00000000 	nop
4000218c:	00031e00 	sll	v1,v1,0x18
40002190:	3c04ff20 	lui	a0,0xff20
40002194:	00031e03 	sra	v1,v1,0x18
40002198:	34841000 	ori	a0,a0,0x1000
4000219c:	ac830000 	sw	v1,0(a0)
400021a0:	90430000 	lbu	v1,0(v0)
400021a4:	00000000 	nop
400021a8:	24420001 	addiu	v0,v0,1
400021ac:	1460ffee 	bnez	v1,40002168 <printf+0xcb4>
400021b0:	00000000 	nop
400021b4:	0800088a 	j	40002228 <printf+0xd74>
400021b8:	00000000 	nop
400021bc:	3c04ff20 	lui	a0,0xff20
400021c0:	3c030001 	lui	v1,0x1
400021c4:	34841004 	ori	a0,a0,0x1004
400021c8:	34630000 	ori	v1,v1,0x0
400021cc:	8c840000 	lw	a0,0(a0)
400021d0:	00000000 	nop
400021d4:	0083182b 	sltu	v1,a0,v1
400021d8:	1460fff8 	bnez	v1,400021bc <printf+0xd08>
400021dc:	00000000 	nop
400021e0:	3c04ff20 	lui	a0,0xff20
400021e4:	24030025 	li	v1,37
400021e8:	34841000 	ori	a0,a0,0x1000
400021ec:	ac830000 	sw	v1,0(a0)
400021f0:	80420000 	lb	v0,0(v0)
400021f4:	00000000 	nop
400021f8:	3c04ff20 	lui	a0,0xff20
400021fc:	3c030001 	lui	v1,0x1
40002200:	34841004 	ori	a0,a0,0x1004
40002204:	34630000 	ori	v1,v1,0x0
40002208:	8c840000 	lw	a0,0(a0)
4000220c:	00000000 	nop
40002210:	0083182b 	sltu	v1,a0,v1
40002214:	1460fff8 	bnez	v1,400021f8 <printf+0xd44>
40002218:	00000000 	nop
4000221c:	3c03ff20 	lui	v1,0xff20
40002220:	34631000 	ori	v1,v1,0x1000
40002224:	ac620000 	sw	v0,0(v1)
40002228:	26420001 	addiu	v0,s2,1
4000222c:	0800053b 	j	400014ec <printf+0x38>
40002230:	00000000 	nop
40002234:	2405000a 	li	a1,10
40002238:	14650013 	bne	v1,a1,40002288 <printf+0xdd4>
4000223c:	00000000 	nop
40002240:	16200011 	bnez	s1,40002288 <printf+0xdd4>
40002244:	00000000 	nop
40002248:	3c05ff20 	lui	a1,0xff20
4000224c:	3c030001 	lui	v1,0x1
40002250:	34a51004 	ori	a1,a1,0x1004
40002254:	34630000 	ori	v1,v1,0x0
40002258:	8ca50000 	lw	a1,0(a1)
4000225c:	00000000 	nop
40002260:	00a3182b 	sltu	v1,a1,v1
40002264:	1460fff8 	bnez	v1,40002248 <printf+0xd94>
40002268:	00000000 	nop
4000226c:	3c05ff20 	lui	a1,0xff20
40002270:	2403000d 	li	v1,13
40002274:	34a51000 	ori	a1,a1,0x1000
40002278:	aca30000 	sw	v1,0(a1)
4000227c:	90830000 	lbu	v1,0(a0)
40002280:	00000000 	nop
40002284:	24110000 	li	s1,0
40002288:	3c05ff20 	lui	a1,0xff20
4000228c:	3c040001 	lui	a0,0x1
40002290:	34a51004 	ori	a1,a1,0x1004
40002294:	34840000 	ori	a0,a0,0x0
40002298:	8ca50000 	lw	a1,0(a1)
4000229c:	00000000 	nop
400022a0:	00a4202b 	sltu	a0,a1,a0
400022a4:	1480fff8 	bnez	a0,40002288 <printf+0xdd4>
400022a8:	00000000 	nop
400022ac:	00032600 	sll	a0,v1,0x18
400022b0:	3c03ff20 	lui	v1,0xff20
400022b4:	24420001 	addiu	v0,v0,1
400022b8:	00042603 	sra	a0,a0,0x18
400022bc:	34631000 	ori	v1,v1,0x1000
400022c0:	ac640000 	sw	a0,0(v1)
400022c4:	0800053b 	j	400014ec <printf+0x38>
400022c8:	00000000 	nop
400022cc:	24020000 	li	v0,0
400022d0:	8fb00034 	lw	s0,52(sp)
400022d4:	00000000 	nop
400022d8:	8fb10038 	lw	s1,56(sp)
400022dc:	00000000 	nop
400022e0:	8fb2003c 	lw	s2,60(sp)
400022e4:	00000000 	nop
400022e8:	8fb30040 	lw	s3,64(sp)
400022ec:	00000000 	nop
400022f0:	8fbf0044 	lw	ra,68(sp)
400022f4:	00000000 	nop
400022f8:	27bd0048 	addiu	sp,sp,72
400022fc:	03e00008 	jr	ra
40002300:	00000000 	nop

40002304 <exit>:
40002304:	27bdffe8 	addiu	sp,sp,-24
40002308:	afbf0014 	sw	ra,20(sp)
4000230c:	00041021 	addu	v0,zero,a0
40002310:	3c034000 	lui	v1,0x4000
40002314:	2464251f 	addiu	a0,v1,9503
40002318:	00022821 	addu	a1,zero,v0
4000231c:	0c00052d 	jal	400014b4 <printf>
40002320:	00000000 	nop
40002324:	080008c9 	j	40002324 <exit+0x20>
40002328:	00000000 	nop

Disassembly of section .rodata:

4000232c <imem-0xb4>:
4000232c:	400001f8 	0x400001f8
40002330:	40000734 	0x40000734
40002334:	4000022c 	0x4000022c
40002338:	40000290 	0x40000290
4000233c:	400002c4 	0x400002c4
40002340:	400002f8 	0x400002f8
40002344:	40000734 	0x40000734
40002348:	40000734 	0x40000734
4000234c:	40000734 	0x40000734
40002350:	400003ec 	0x400003ec
40002354:	40000420 	0x40000420
40002358:	40000260 	0x40000260
4000235c:	40000734 	0x40000734
40002360:	40000278 	0x40000278
40002364:	40000734 	0x40000734
40002368:	40000734 	0x40000734
4000236c:	40000734 	0x40000734
40002370:	40000734 	0x40000734
40002374:	40000734 	0x40000734
40002378:	40000744 	0x40000744
4000237c:	40000744 	0x40000744
40002380:	4000032c 	0x4000032c
40002384:	40000734 	0x40000734
40002388:	40000358 	0x40000358
4000238c:	40000734 	0x40000734
40002390:	4000037c 	0x4000037c
40002394:	40000734 	0x40000734
40002398:	400003b8 	0x400003b8
4000239c:	40000734 	0x40000734
400023a0:	40000454 	0x40000454
400023a4:	400006b0 	0x400006b0
400023a8:	40000734 	0x40000734
400023ac:	40000734 	0x40000734
400023b0:	40000648 	0x40000648
400023b4:	4000067c 	0x4000067c
400023b8:	40000734 	0x40000734
400023bc:	40000734 	0x40000734
400023c0:	40000734 	0x40000734
400023c4:	4000050c 	0x4000050c
400023c8:	400006e4 	0x400006e4
400023cc:	40000710 	0x40000710
400023d0:	40000540 	0x40000540
400023d4:	40000564 	0x40000564
400023d8:	40000588 	0x40000588
400023dc:	40000634 	0x40000634

400023e0 <imem>:
400023e0:	8fa40000 	lw	a0,0(sp)
400023e4:	27a50004 	addiu	a1,sp,4
400023e8:	24a60004 	addiu	a2,a1,4
400023ec:	00041080 	sll	v0,a0,0x2
400023f0:	00c23021 	addu	a2,a2,v0
400023f4:	0c100016 	jal	40400058 <utoa.out+0x3fd97d>
400023f8:	00000000 	nop
400023fc:	3402000a 	li	v0,0xa
40002400:	0000000c 	syscall
40002404:	3c011001 	lui	at,0x1001
40002408:	34280000 	ori	t0,at,0x0
4000240c:	00044880 	sll	t1,a0,0x2
40002410:	01094821 	addu	t1,t0,t1
40002414:	8d2a0000 	lw	t2,0(t1)
40002418:	00055880 	sll	t3,a1,0x2
4000241c:	010b5821 	addu	t3,t0,t3
40002420:	8d6c0000 	lw	t4,0(t3)
40002424:	018a682a 	slt	t5,t4,t2
40002428:	11a00003 	beqz	t5,40002438 <imem+0x58>
4000242c:	ad2c0000 	sw	t4,0(t1)
40002430:	ad6a0000 	sw	t2,0(t3)
40002434:	03e00008 	jr	ra
40002438:	27bdfff4 	addiu	sp,sp,-12
4000243c:	afbf0008 	sw	ra,8(sp)
40002440:	afb10004 	sw	s1,4(sp)
40002444:	afb00000 	sw	s0,0(sp)
40002448:	24100000 	li	s0,0
4000244c:	2a080008 	slti	t0,s0,8
40002450:	1100000b 	beqz	t0,40002480 <imem+0xa0>
40002454:	26110001 	addiu	s1,s0,1
40002458:	2a280008 	slti	t0,s1,8
4000245c:	11000006 	beqz	t0,40002478 <imem+0x98>
40002460:	26040000 	addiu	a0,s0,0
40002464:	26250000 	addiu	a1,s1,0
40002468:	0c100009 	jal	40400024 <utoa.out+0x3fd949>
4000246c:	26310001 	addiu	s1,s1,1
40002470:	0810001e 	j	40400078 <utoa.out+0x3fd99d>
40002474:	26100001 	addiu	s0,s0,1
40002478:	0810001b 	j	4040006c <utoa.out+0x3fd991>
4000247c:	8fbf0008 	lw	ra,8(sp)
40002480:	8fb10004 	lw	s1,4(sp)
40002484:	8fb00000 	lw	s0,0(sp)
40002488:	27bd000c 	addiu	sp,sp,12
4000248c:	03e00008 	jr	ra

40002490 <A>:
40002490:	00000016 	0x16
40002494:	00000005 	0x5
40002498:	fffffff7 	0xfffffff7
4000249c:	00000003 	sra	zero,zero,0x0
400024a0:	ffffffef 	0xffffffef
400024a4:	00000026 	xor	zero,zero,zero
400024a8:	00000000 	nop
400024ac:	0000000b 	0xb

400024b0 <outData>:
400024b0:	ffffffef 	0xffffffef
400024b4:	fffffff7 	0xfffffff7
400024b8:	00000000 	nop
400024bc:	00000003 	sra	zero,zero,0x0
400024c0:	00000005 	0x5
400024c4:	0000000b 	0xb
400024c8:	00000016 	0x16
400024cc:	00000026 	xor	zero,zero,zero
400024d0:	4000183c 	0x4000183c
400024d4:	400016ac 	0x400016ac
400024d8:	400021bc 	0x400021bc
400024dc:	400021bc 	0x400021bc
400024e0:	400021bc 	0x400021bc
400024e4:	40001e80 	0x40001e80
400024e8:	400021bc 	0x400021bc
400024ec:	400021bc 	0x400021bc
400024f0:	400021bc 	0x400021bc
400024f4:	40001a9c 	0x40001a9c

Disassembly of section .rodata.str1.1:

400024f8 <.rodata.str1.1>:
400024f8:	75736552 	jalx	45cd9548 <__stack_top+0x1cd9548>
400024fc:	203a746c 	addi	k0,at,29804
40002500:	52006425 	0x52006425
40002504:	4c555345 	0x4c555345
40002508:	50203a54 	0x50203a54
4000250c:	00535341 	0x535341
40002510:	55534552 	0x55534552
40002514:	203a544c 	addi	k0,at,21580
40002518:	4c494146 	0x4c494146
4000251c:	70003000 	0x70003000
40002520:	72676f72 	0x72676f72
40002524:	72206d61 	0x72206d61
40002528:	72757465 	0x72757465
4000252c:	2064656e 	addi	a0,v1,25966
40002530:	65206425 	0x65206425
40002534:	20746978 	addi	s4,v1,27000
40002538:	74617473 	jalx	4185d1cc <utoa.out+0x185aaf1>
4000253c:	000a7375 	0xa7375

Disassembly of section .eh_frame:

40002540 <.eh_frame>:
40002540:	00000010 	mfhi	zero
40002544:	00000000 	nop
40002548:	00527a01 	0x527a01
4000254c:	011f7c01 	0x11f7c01
40002550:	001d0d0b 	0x1d0d0b
40002554:	00000018 	mult	zero,zero
40002558:	00000018 	mult	zero,zero
4000255c:	40000020 	0x40000020
40002560:	00000874 	0x874
40002564:	a00e4400 	sb	t6,17408(zero)
40002568:	019f4c03 	0x19f4c03
4000256c:	03900291 	0x3900291
40002570:	00000010 	mfhi	zero
40002574:	00000034 	0x34
40002578:	400008d8 	0x400008d8
4000257c:	00000038 	0x38
40002580:	00000000 	nop
40002584:	00000010 	mfhi	zero
40002588:	00000048 	0x48
4000258c:	40000910 	0x40000910
40002590:	00000068 	0x68
40002594:	00000000 	nop
40002598:	00000010 	mfhi	zero
4000259c:	0000005c 	0x5c
400025a0:	40000978 	0x40000978
400025a4:	00000030 	0x30
400025a8:	00000000 	nop
400025ac:	00000010 	mfhi	zero
400025b0:	00000070 	0x70
400025b4:	400009a8 	0x400009a8
400025b8:	00000030 	0x30
400025bc:	00000000 	nop
400025c0:	00000020 	add	zero,zero,zero
400025c4:	00000084 	0x84
400025c8:	400009d8 	0x400009d8
400025cc:	0000011c 	0x11c
400025d0:	380e4400 	xori	t6,zero,0x4400
400025d4:	94019f58 	lhu	at,-24744(zero)
400025d8:	92039302 	lbu	v1,-27902(s0)
400025dc:	90059104 	lbu	a1,-28412(zero)
400025e0:	00000006 	srlv	zero,zero,zero
400025e4:	00000020 	add	zero,zero,zero
400025e8:	000000a8 	0xa8
400025ec:	40000af4 	0x40000af4
400025f0:	0000014c 	syscall	0x5
400025f4:	400e4400 	0x400e4400
400025f8:	95019f5c 	lhu	at,-24740(t0)
400025fc:	93039402 	lbu	v1,-27646(t8)
40002600:	91059204 	lbu	a1,-28156(t0)
40002604:	00079006 	srlv	s2,a3,zero
40002608:	00000024 	and	zero,zero,zero
4000260c:	000000cc 	syscall	0x3
40002610:	40000c40 	0x40000c40
40002614:	00000438 	0x438
40002618:	280e4400 	slti	t6,zero,17408
4000261c:	96019760 	lhu	at,-26784(s0)
40002620:	94039502 	lhu	v1,-27390(zero)
40002624:	92059304 	lbu	a1,-27900(s0)
40002628:	90079106 	lbu	a3,-28410(zero)
4000262c:	00000008 	jr	zero
40002630:	00000020 	add	zero,zero,zero
40002634:	000000f4 	0xf4
40002638:	40001078 	0x40001078
4000263c:	00000334 	0x334
40002640:	180e4400 	0x180e4400
40002644:	94019558 	lhu	at,-27304(zero)
40002648:	92039302 	lbu	v1,-27902(s0)
4000264c:	90059104 	lbu	a1,-28412(zero)
40002650:	00000006 	srlv	zero,zero,zero
40002654:	00000010 	mfhi	zero
40002658:	00000118 	0x118
4000265c:	400013ac 	0x400013ac
40002660:	00000108 	0x108
40002664:	00000000 	nop
40002668:	0000001c 	0x1c
4000266c:	0000012c 	0x12c
40002670:	400014b4 	0x400014b4
40002674:	00000e50 	0xe50
40002678:	480e4400 	0x480e4400
4000267c:	93019f54 	lbu	at,-24748(t8)
40002680:	91039202 	lbu	v1,-28158(t0)
40002684:	00059004 	sllv	s2,a1,zero
40002688:	00000014 	0x14
4000268c:	0000014c 	syscall	0x5
40002690:	40002304 	0x40002304
40002694:	00000028 	0x28
40002698:	180e4400 	0x180e4400
4000269c:	00019f44 	0x19f44

Disassembly of section .bss:

400026a0 <i2h.hex>:
	...

400026a9 <l2h.hex>:
	...

400026ba <itoa.buf>:
	...

400026c5 <itoa.out>:
	...

400026d0 <utoa.buf>:
	...

400026db <utoa.out>:
	...

Disassembly of section .reginfo:

00000000 <.reginfo>:
   0:	a0000000 	sb	zero,0(zero)
	...

Disassembly of section .pdr:

00000000 <.pdr>:
   0:	40000020 	0x40000020
   4:	80030000 	lb	v1,0(zero)
   8:	fffffffc 	0xfffffffc
	...
  14:	000001a0 	0x1a0
  18:	0000001d 	0x1d
  1c:	0000001f 	0x1f
  20:	40000894 	0x40000894
	...
  38:	0000001d 	0x1d
  3c:	0000001f 	0x1f
  40:	400008b0 	0x400008b0
	...
  58:	0000001d 	0x1d
  5c:	0000001f 	0x1f
  60:	400008d8 	0x400008d8
	...
  78:	0000001d 	0x1d
  7c:	0000001f 	0x1f
  80:	40000910 	0x40000910
	...
  98:	0000001d 	0x1d
  9c:	0000001f 	0x1f
  a0:	40000978 	0x40000978
	...
  b8:	0000001d 	0x1d
  bc:	0000001f 	0x1f
  c0:	400009a8 	0x400009a8
	...
  d8:	0000001d 	0x1d
  dc:	0000001f 	0x1f
  e0:	400009d8 	0x400009d8
  e4:	801f0000 	lb	ra,0(zero)
  e8:	fffffffc 	0xfffffffc
	...
  f4:	00000038 	0x38
  f8:	0000001d 	0x1d
  fc:	0000001f 	0x1f
 100:	40000af4 	0x40000af4
 104:	803f0000 	lb	ra,0(at)
 108:	fffffffc 	0xfffffffc
	...
 114:	00000040 	ssnop
 118:	0000001d 	0x1d
 11c:	0000001f 	0x1f
 120:	40000c40 	0x40000c40
 124:	00ff0000 	0xff0000
 128:	fffffffc 	0xfffffffc
	...
 134:	00000028 	0x28
 138:	0000001d 	0x1d
 13c:	0000001f 	0x1f
 140:	40001078 	0x40001078
 144:	003f0000 	0x3f0000
 148:	fffffffc 	0xfffffffc
	...
 154:	00000018 	mult	zero,zero
 158:	0000001d 	0x1d
 15c:	0000001f 	0x1f
 160:	400013ac 	0x400013ac
	...
 178:	0000001d 	0x1d
 17c:	0000001f 	0x1f
 180:	400014b4 	0x400014b4
 184:	800f0000 	lb	t7,0(zero)
 188:	fffffffc 	0xfffffffc
	...
 194:	00000048 	0x48
 198:	0000001d 	0x1d
 19c:	0000001f 	0x1f
 1a0:	40002304 	0x40002304
 1a4:	80000000 	lb	zero,0(zero)
 1a8:	fffffffc 	0xfffffffc
	...
 1b4:	00000018 	mult	zero,zero
 1b8:	0000001d 	0x1d
 1bc:	0000001f 	0x1f

Disassembly of section .comment:

00000000 <.comment>:
   0:	3a434347 	xori	v1,s2,0x4347
   4:	72632820 	0x72632820
   8:	7473736f 	jalx	1cdcdbc <mem_size-0x2323244>
   c:	2d6c6f6f 	sltiu	t4,t3,28527
  10:	3120474e 	andi	zero,t1,0x474e
  14:	2e30322e 	sltiu	s0,s1,12846
  18:	34202930 	ori	zero,at,0x2930
  1c:	322e382e 	andi	t6,s1,0x382e
	...

Disassembly of section .gnu.attributes:

00000000 <.gnu.attributes>:
   0:	00000f41 	0xf41
   4:	756e6700 	jalx	5b99c00 <mem_size+0x1b99c00>
   8:	00070100 	sll	zero,a3,0x4
   c:	03040000 	0x3040000
