
output/adpcm.MIPSI.elf:     file format elf32-littlemips


Disassembly of section .text:

40000000 <mips_startup>:
40000000:	3c1d4400 	lui	sp,0x4400
40000004:	0c000008 	jal	40000020 <main>
40000008:	27bd0000 	addiu	sp,sp,0

4000000c <__end_loop>:
	...
40000018:	1000fffc 	b	4000000c <__end_loop>
4000001c:	00000000 	nop

40000020 <main>:
40000020:	27bdfec8 	addiu	sp,sp,-312
40000024:	afbf0134 	sw	ra,308(sp)
40000028:	afb70130 	sw	s7,304(sp)
4000002c:	afb6012c 	sw	s6,300(sp)
40000030:	afb50128 	sw	s5,296(sp)
40000034:	afb40124 	sw	s4,292(sp)
40000038:	afb30120 	sw	s3,288(sp)
4000003c:	afb2011c 	sw	s2,284(sp)
40000040:	afb10118 	sw	s1,280(sp)
40000044:	afb00114 	sw	s0,276(sp)
40000048:	3c024000 	lui	v0,0x4000
4000004c:	3c034000 	lui	v1,0x4000
40000050:	ac4041e0 	sw	zero,16864(v0)
40000054:	3c054000 	lui	a1,0x4000
40000058:	ac604210 	sw	zero,16912(v1)
4000005c:	3c044000 	lui	a0,0x4000
40000060:	aca04240 	sw	zero,16960(a1)
40000064:	244241e0 	addiu	v0,v0,16864
40000068:	ac804270 	sw	zero,17008(a0)
4000006c:	24634210 	addiu	v1,v1,16912
40000070:	ac400004 	sw	zero,4(v0)
40000074:	24a54240 	addiu	a1,a1,16960
40000078:	ac600004 	sw	zero,4(v1)
4000007c:	24844270 	addiu	a0,a0,17008
40000080:	aca00004 	sw	zero,4(a1)
40000084:	ac800004 	sw	zero,4(a0)
40000088:	ac400008 	sw	zero,8(v0)
4000008c:	ac600008 	sw	zero,8(v1)
40000090:	aca00008 	sw	zero,8(a1)
40000094:	ac800008 	sw	zero,8(a0)
40000098:	ac40000c 	sw	zero,12(v0)
4000009c:	ac60000c 	sw	zero,12(v1)
400000a0:	aca0000c 	sw	zero,12(a1)
400000a4:	ac80000c 	sw	zero,12(a0)
400000a8:	ac400010 	sw	zero,16(v0)
400000ac:	ac600010 	sw	zero,16(v1)
400000b0:	aca00010 	sw	zero,16(a1)
400000b4:	ac800010 	sw	zero,16(a0)
400000b8:	ac400014 	sw	zero,20(v0)
400000bc:	ac600014 	sw	zero,20(v1)
400000c0:	aca00014 	sw	zero,20(a1)
400000c4:	3c024000 	lui	v0,0x4000
400000c8:	ac800014 	sw	zero,20(a0)
400000cc:	3c034000 	lui	v1,0x4000
400000d0:	ac4041c8 	sw	zero,16840(v0)
400000d4:	3c044000 	lui	a0,0x4000
400000d8:	ac6041f8 	sw	zero,16888(v1)
400000dc:	3c054000 	lui	a1,0x4000
400000e0:	ac804228 	sw	zero,16936(a0)
400000e4:	244241c8 	addiu	v0,v0,16840
400000e8:	aca04258 	sw	zero,16984(a1)
400000ec:	246341f8 	addiu	v1,v1,16888
400000f0:	ac400004 	sw	zero,4(v0)
400000f4:	24844228 	addiu	a0,a0,16936
400000f8:	ac600004 	sw	zero,4(v1)
400000fc:	24a54258 	addiu	a1,a1,16984
40000100:	ac800004 	sw	zero,4(a0)
40000104:	aca00004 	sw	zero,4(a1)
40000108:	ac400008 	sw	zero,8(v0)
4000010c:	ac600008 	sw	zero,8(v1)
40000110:	ac800008 	sw	zero,8(a0)
40000114:	aca00008 	sw	zero,8(a1)
40000118:	ac40000c 	sw	zero,12(v0)
4000011c:	ac60000c 	sw	zero,12(v1)
40000120:	ac80000c 	sw	zero,12(a0)
40000124:	aca0000c 	sw	zero,12(a1)
40000128:	ac400010 	sw	zero,16(v0)
4000012c:	ac600010 	sw	zero,16(v1)
40000130:	ac800010 	sw	zero,16(a0)
40000134:	aca00010 	sw	zero,16(a1)
40000138:	ac400014 	sw	zero,20(v0)
4000013c:	ac600014 	sw	zero,20(v1)
40000140:	ac800014 	sw	zero,20(a0)
40000144:	aca00014 	sw	zero,20(a1)
40000148:	3c024000 	lui	v0,0x4000
4000014c:	24030008 	li	v1,8
40000150:	afa300e0 	sw	v1,224(sp)
40000154:	24030020 	li	v1,32
40000158:	afa300cc 	sw	v1,204(sp)
4000015c:	24100000 	li	s0,0
40000160:	afb000d8 	sw	s0,216(sp)
40000164:	24444168 	addiu	a0,v0,16744
40000168:	24060060 	li	a2,96
4000016c:	00102821 	addu	a1,zero,s0
40000170:	0c000da8 	jal	400036a0 <memset>
40000174:	00000000 	nop
40000178:	afb000dc 	sw	s0,220(sp)
4000017c:	00107021 	addu	t6,zero,s0
40000180:	00106821 	addu	t5,zero,s0
40000184:	0010c021 	addu	t8,zero,s0
40000188:	00107821 	addu	t7,zero,s0
4000018c:	0010a021 	addu	s4,zero,s0
40000190:	00108821 	addu	s1,zero,s0
40000194:	00101821 	addu	v1,zero,s0
40000198:	00102821 	addu	a1,zero,s0
4000019c:	afb000f4 	sw	s0,244(sp)
400001a0:	00104021 	addu	t0,zero,s0
400001a4:	0010c821 	addu	t9,zero,s0
400001a8:	afb000d4 	sw	s0,212(sp)
400001ac:	00109021 	addu	s2,zero,s0
400001b0:	afb000d0 	sw	s0,208(sp)
400001b4:	afb000bc 	sw	s0,188(sp)
400001b8:	afb000c4 	sw	s0,196(sp)
400001bc:	00102021 	addu	a0,zero,s0
400001c0:	afb000b8 	sw	s0,184(sp)
400001c4:	00103821 	addu	a3,zero,s0
400001c8:	00103021 	addu	a2,zero,s0
400001cc:	afb000b4 	sw	s0,180(sp)
400001d0:	afb000c8 	sw	s0,200(sp)
400001d4:	00105021 	addu	t2,zero,s0
400001d8:	afb0010c 	sw	s0,268(sp)
400001dc:	afb000f0 	sw	s0,240(sp)
400001e0:	afb000e8 	sw	s0,232(sp)
400001e4:	00105821 	addu	t3,zero,s0
400001e8:	afb000f8 	sw	s0,248(sp)
400001ec:	afb00108 	sw	s0,264(sp)
400001f0:	00104821 	addu	t1,zero,s0
400001f4:	afb00104 	sw	s0,260(sp)
400001f8:	afb000ec 	sw	s0,236(sp)
400001fc:	afb000e4 	sw	s0,228(sp)
40000200:	afb000c0 	sw	s0,192(sp)
40000204:	afb00110 	sw	s0,272(sp)
40000208:	afb00100 	sw	s0,256(sp)
4000020c:	afb000fc 	sw	s0,252(sp)
40000210:	00089821 	addu	s3,zero,t0
40000214:	afb20074 	sw	s2,116(sp)
40000218:	afb90078 	sw	t9,120(sp)
4000021c:	afa3007c 	sw	v1,124(sp)
40000220:	afa50080 	sw	a1,128(sp)
40000224:	afb80088 	sw	t8,136(sp)
40000228:	afaf008c 	sw	t7,140(sp)
4000022c:	afb10090 	sw	s1,144(sp)
40000230:	afb40094 	sw	s4,148(sp)
40000234:	afae0098 	sw	t6,152(sp)
40000238:	afad009c 	sw	t5,156(sp)
4000023c:	afab00a8 	sw	t3,168(sp)
40000240:	afa900ac 	sw	t1,172(sp)
40000244:	afaa00b0 	sw	t2,176(sp)
40000248:	3c024000 	lui	v0,0x4000
4000024c:	afa20084 	sw	v0,132(sp)
40000250:	244b4168 	addiu	t3,v0,16744
40000254:	ad6e005c 	sw	t6,92(t3)
40000258:	ad6d0058 	sw	t5,88(t3)
4000025c:	ad780054 	sw	t8,84(t3)
40000260:	ad6f0050 	sw	t7,80(t3)
40000264:	ad74004c 	sw	s4,76(t3)
40000268:	ad710048 	sw	s1,72(t3)
4000026c:	ad630044 	sw	v1,68(t3)
40000270:	ad650040 	sw	a1,64(t3)
40000274:	8fa200f4 	lw	v0,244(sp)
40000278:	00000000 	nop
4000027c:	ad62003c 	sw	v0,60(t3)
40000280:	00134021 	addu	t0,zero,s3
40000284:	ad680038 	sw	t0,56(t3)
40000288:	ad790034 	sw	t9,52(t3)
4000028c:	8fa900d4 	lw	t1,212(sp)
40000290:	00000000 	nop
40000294:	ad690030 	sw	t1,48(t3)
40000298:	ad72002c 	sw	s2,44(t3)
4000029c:	8fb200d0 	lw	s2,208(sp)
400002a0:	00000000 	nop
400002a4:	ad720028 	sw	s2,40(t3)
400002a8:	8faa00bc 	lw	t2,188(sp)
400002ac:	00000000 	nop
400002b0:	ad6a0024 	sw	t2,36(t3)
400002b4:	8fa200c4 	lw	v0,196(sp)
400002b8:	00000000 	nop
400002bc:	ad620020 	sw	v0,32(t3)
400002c0:	ad64001c 	sw	a0,28(t3)
400002c4:	0004b021 	addu	s6,zero,a0
400002c8:	8fa400b8 	lw	a0,184(sp)
400002cc:	00000000 	nop
400002d0:	ad640018 	sw	a0,24(t3)
400002d4:	241800d4 	li	t8,212
400002d8:	afb800a0 	sw	t8,160(sp)
400002dc:	2414ffd4 	li	s4,-44
400002e0:	3c0c4000 	lui	t4,0x4000
400002e4:	ad670014 	sw	a3,20(t3)
400002e8:	2417000c 	li	s7,12
400002ec:	afb700a4 	sw	s7,164(sp)
400002f0:	2413fd90 	li	s3,-624
400002f4:	24100030 	li	s0,48
400002f8:	ad660010 	sw	a2,16(t3)
400002fc:	00f80018 	mult	a3,t8
40000300:	00003812 	mflo	a3
40000304:	8fb900b4 	lw	t9,180(sp)
40000308:	00000000 	nop
4000030c:	03340018 	mult	t9,s4
40000310:	00007012 	mflo	t6
40000314:	00d40018 	mult	a2,s4
40000318:	00006812 	mflo	t5
4000031c:	8fb100c8 	lw	s1,200(sp)
40000320:	00000000 	nop
40000324:	02370018 	mult	s1,s7
40000328:	00007812 	mflo	t7
4000032c:	258c3a7c 	addiu	t4,t4,14972
40000330:	8fa600fc 	lw	a2,252(sp)
40000334:	00000000 	nop
40000338:	0006c080 	sll	t8,a2,0x2
4000033c:	240605a8 	li	a2,1448
40000340:	0008a821 	addu	s5,zero,t0
40000344:	0198b821 	addu	s7,t4,t8
40000348:	ad79000c 	sw	t9,12(t3)
4000034c:	02d30018 	mult	s6,s3
40000350:	00006012 	mflo	t4
40000354:	00ee7021 	addu	t6,a3,t6
40000358:	00900018 	mult	a0,s0
4000035c:	00003812 	mflo	a3
40000360:	01afc021 	addu	t8,t5,t7
40000364:	2404f36c 	li	a0,-3220
40000368:	2405fcb8 	li	a1,-840
4000036c:	01460018 	mult	t2,a2
40000370:	00006812 	mflo	t5
40000374:	018e7821 	addu	t7,t4,t6
40000378:	000219c0 	sll	v1,v0,0x7
4000037c:	00f87021 	addu	t6,a3,t8
40000380:	8ee20000 	lw	v0,0(s7)
40000384:	00000000 	nop
40000388:	ad710008 	sw	s1,8(t3)
4000038c:	24113c90 	li	s1,15504
40000390:	240c0edc 	li	t4,3804
40000394:	3c194000 	lui	t9,0x4000
40000398:	3c074000 	lui	a3,0x4000
4000039c:	8fa80074 	lw	t0,116(sp)
400003a0:	00000000 	nop
400003a4:	01040018 	mult	t0,a0
400003a8:	0000c012 	mflo	t8
400003ac:	01af7821 	addu	t7,t5,t7
400003b0:	02450018 	mult	s2,a1
400003b4:	00006812 	mflo	t5
400003b8:	006e7021 	addu	t6,v1,t6
400003bc:	8ee30004 	lw	v1,4(s7)
400003c0:	00000000 	nop
400003c4:	ad620004 	sw	v0,4(t3)
400003c8:	8fa20084 	lw	v0,132(sp)
400003cc:	00000000 	nop
400003d0:	ac434168 	sw	v1,16744(v0)
400003d4:	272341e0 	addiu	v1,t9,16864
400003d8:	24e241c8 	addiu	v0,a3,16840
400003dc:	8fa80078 	lw	t0,120(sp)
400003e0:	00000000 	nop
400003e4:	01110018 	mult	t0,s1
400003e8:	00005812 	mflo	t3
400003ec:	030fc021 	addu	t8,t8,t7
400003f0:	012c0018 	mult	t1,t4
400003f4:	00007812 	mflo	t7
400003f8:	01ae6821 	addu	t5,t5,t6
400003fc:	8fa800f4 	lw	t0,244(sp)
40000400:	00000000 	nop
40000404:	010c0018 	mult	t0,t4
40000408:	00006012 	mflo	t4
4000040c:	0178c021 	addu	t8,t3,t8
40000410:	02b10018 	mult	s5,s1
40000414:	00005812 	mflo	t3
40000418:	01ed7821 	addu	t7,t7,t5
4000041c:	8c6e0004 	lw	t6,4(v1)
40000420:	00000000 	nop
40000424:	8c510004 	lw	s1,4(v0)
40000428:	00000000 	nop
4000042c:	8f2d41e0 	lw	t5,16864(t9)
40000430:	00000000 	nop
40000434:	8ce741c8 	lw	a3,16840(a3)
40000438:	00000000 	nop
4000043c:	8fa8007c 	lw	t0,124(sp)
40000440:	00000000 	nop
40000444:	01050018 	mult	t0,a1
40000448:	00002812 	mflo	a1
4000044c:	01986021 	addu	t4,t4,t8
40000450:	8fa80080 	lw	t0,128(sp)
40000454:	00000000 	nop
40000458:	01040018 	mult	t0,a0
4000045c:	00002012 	mflo	a0
40000460:	016f5821 	addu	t3,t3,t7
40000464:	01d10018 	mult	t6,s1
40000468:	00007012 	mflo	t6
4000046c:	01a70018 	mult	t5,a3
40000470:	0000c012 	mflo	t8
40000474:	8c6f0008 	lw	t7,8(v1)
40000478:	00000000 	nop
4000047c:	8c590008 	lw	t9,8(v0)
40000480:	00000000 	nop
40000484:	8fa70094 	lw	a3,148(sp)
40000488:	00000000 	nop
4000048c:	000739c0 	sll	a3,a3,0x7
40000490:	00ac6821 	addu	t5,a1,t4
40000494:	8fa50090 	lw	a1,144(sp)
40000498:	00000000 	nop
4000049c:	00a60018 	mult	a1,a2
400004a0:	00002812 	mflo	a1
400004a4:	008b6021 	addu	t4,a0,t3
400004a8:	01d85821 	addu	t3,t6,t8
400004ac:	01f90018 	mult	t7,t9
400004b0:	00007812 	mflo	t7
400004b4:	8c6e000c 	lw	t6,12(v1)
400004b8:	00000000 	nop
400004bc:	8c58000c 	lw	t8,12(v0)
400004c0:	00000000 	nop
400004c4:	8fa40088 	lw	a0,136(sp)
400004c8:	00000000 	nop
400004cc:	00900018 	mult	a0,s0
400004d0:	00002012 	mflo	a0
400004d4:	00ed3821 	addu	a3,a3,t5
400004d8:	8fa6008c 	lw	a2,140(sp)
400004dc:	00000000 	nop
400004e0:	00d30018 	mult	a2,s3
400004e4:	00003012 	mflo	a2
400004e8:	00ac6821 	addu	t5,a1,t4
400004ec:	016f4821 	addu	t1,t3,t7
400004f0:	01d80018 	mult	t6,t8
400004f4:	00005812 	mflo	t3
400004f8:	8c6a0010 	lw	t2,16(v1)
400004fc:	00000000 	nop
40000500:	8c4c0010 	lw	t4,16(v0)
40000504:	00000000 	nop
40000508:	8fa50098 	lw	a1,152(sp)
4000050c:	00000000 	nop
40000510:	00b40018 	mult	a1,s4
40000514:	00002812 	mflo	a1
40000518:	00873821 	addu	a3,a0,a3
4000051c:	8fa400a0 	lw	a0,160(sp)
40000520:	00000000 	nop
40000524:	8fa8009c 	lw	t0,156(sp)
40000528:	00000000 	nop
4000052c:	01040018 	mult	t0,a0
40000530:	00002012 	mflo	a0
40000534:	00cd3021 	addu	a2,a2,t5
40000538:	8fb700e4 	lw	s7,228(sp)
4000053c:	00000000 	nop
40000540:	8fa800c0 	lw	t0,192(sp)
40000544:	00000000 	nop
40000548:	02e80018 	mult	s7,t0
4000054c:	00006812 	mflo	t5
40000550:	8fa80110 	lw	t0,272(sp)
40000554:	00000000 	nop
40000558:	8fae0100 	lw	t6,256(sp)
4000055c:	00000000 	nop
40000560:	010e0018 	mult	t0,t6
40000564:	00007012 	mflo	t6
40000568:	012b4021 	addu	t0,t1,t3
4000056c:	014c0018 	mult	t2,t4
40000570:	00005012 	mflo	t2
40000574:	8c690014 	lw	t1,20(v1)
40000578:	00000000 	nop
4000057c:	8c4b0014 	lw	t3,20(v0)
40000580:	00000000 	nop
40000584:	01ae1821 	addu	v1,t5,t6
40000588:	8fa200d8 	lw	v0,216(sp)
4000058c:	00000000 	nop
40000590:	8fac00a4 	lw	t4,164(sp)
40000594:	00000000 	nop
40000598:	004c0018 	mult	v0,t4
4000059c:	00001012 	mflo	v0
400005a0:	00a72821 	addu	a1,a1,a3
400005a4:	8fa700dc 	lw	a3,220(sp)
400005a8:	00000000 	nop
400005ac:	00f40018 	mult	a3,s4
400005b0:	00003812 	mflo	a3
400005b4:	00862021 	addu	a0,a0,a2
400005b8:	010a3021 	addu	a2,t0,t2
400005bc:	012b0018 	mult	t1,t3
400005c0:	00004012 	mflo	t0
400005c4:	00031840 	sll	v1,v1,0x1
400005c8:	00c83021 	addu	a2,a2,t0
400005cc:	00451021 	addu	v0,v0,a1
400005d0:	00e42021 	addu	a0,a3,a0
400005d4:	00442821 	addu	a1,v0,a0
400005d8:	00069b83 	sra	s3,a2,0xe
400005dc:	00031bc3 	sra	v1,v1,0xf
400005e0:	00733021 	addu	a2,v1,s3
400005e4:	afa600dc 	sw	a2,220(sp)
400005e8:	00051bc3 	sra	v1,a1,0xf
400005ec:	00661823 	subu	v1,v1,a2
400005f0:	00032fc3 	sra	a1,v1,0x1f
400005f4:	00822023 	subu	a0,a0,v0
400005f8:	00651021 	addu	v0,v1,a1
400005fc:	00048bc3 	sra	s1,a0,0xf
40000600:	00452026 	xor	a0,v0,a1
40000604:	24020000 	li	v0,0
40000608:	8fa700cc 	lw	a3,204(sp)
4000060c:	00000000 	nop
40000610:	0800018b 	j	4000062c <main+0x60c>
40000614:	00000000 	nop
40000618:	24420001 	addiu	v0,v0,1
4000061c:	2405001d 	li	a1,29
40000620:	00a2282a 	slt	a1,a1,v0
40000624:	14a0000d 	bnez	a1,4000065c <main+0x63c>
40000628:	00000000 	nop
4000062c:	3c054000 	lui	a1,0x4000
40000630:	24a5390c 	addiu	a1,a1,14604
40000634:	00023080 	sll	a2,v0,0x2
40000638:	00a62821 	addu	a1,a1,a2
4000063c:	8ca50000 	lw	a1,0(a1)
40000640:	00000000 	nop
40000644:	00a70018 	mult	a1,a3
40000648:	00002812 	mflo	a1
4000064c:	00052bc3 	sra	a1,a1,0xf
40000650:	00a4282a 	slt	a1,a1,a0
40000654:	14a0fff0 	bnez	a1,40000618 <main+0x5f8>
40000658:	00000000 	nop
4000065c:	3c044000 	lui	a0,0x4000
40000660:	3c054000 	lui	a1,0x4000
40000664:	2410ffff 	li	s0,-1
40000668:	0203182a 	slt	v1,s0,v1
4000066c:	14600004 	bnez	v1,40000680 <main+0x660>
40000670:	00000000 	nop
40000674:	24a33a00 	addiu	v1,a1,14848
40000678:	080001a1 	j	40000684 <main+0x664>
4000067c:	00000000 	nop
40000680:	24833984 	addiu	v1,a0,14724
40000684:	00021080 	sll	v0,v0,0x2
40000688:	00621821 	addu	v1,v1,v0
4000068c:	3c024000 	lui	v0,0x4000
40000690:	8c630000 	lw	v1,0(v1)
40000694:	00000000 	nop
40000698:	afa300d8 	sw	v1,216(sp)
4000069c:	2404fffc 	li	a0,-4
400006a0:	afa400d4 	sw	a0,212(sp)
400006a4:	2442370c 	addiu	v0,v0,14092
400006a8:	0064a024 	and	s4,v1,a0
400006ac:	00541021 	addu	v0,v0,s4
400006b0:	8c420000 	lw	v0,0(v0)
400006b4:	00000000 	nop
400006b8:	00470018 	mult	v0,a3
400006bc:	00002012 	mflo	a0
400006c0:	3c034000 	lui	v1,0x4000
400006c4:	3c024000 	lui	v0,0x4000
400006c8:	3c164000 	lui	s6,0x4000
400006cc:	3c124000 	lui	s2,0x4000
400006d0:	000423c3 	sra	a0,a0,0xf
400006d4:	afa400f4 	sw	a0,244(sp)
400006d8:	246541e0 	addiu	a1,v1,16864
400006dc:	244641c8 	addiu	a2,v0,16840
400006e0:	0c000675 	jal	400019d4 <upzero>
400006e4:	00000000 	nop
400006e8:	26c54210 	addiu	a1,s6,16912
400006ec:	264641f8 	addiu	a2,s2,16888
400006f0:	8ca20004 	lw	v0,4(a1)
400006f4:	00000000 	nop
400006f8:	8cc70004 	lw	a3,4(a2)
400006fc:	00000000 	nop
40000700:	8ec34210 	lw	v1,16912(s6)
40000704:	00000000 	nop
40000708:	8e4441f8 	lw	a0,16888(s2)
4000070c:	00000000 	nop
40000710:	00470018 	mult	v0,a3
40000714:	00001012 	mflo	v0
40000718:	00640018 	mult	v1,a0
4000071c:	00002012 	mflo	a0
40000720:	8ca30008 	lw	v1,8(a1)
40000724:	00000000 	nop
40000728:	8cc70008 	lw	a3,8(a2)
4000072c:	00000000 	nop
40000730:	00441021 	addu	v0,v0,a0
40000734:	00670018 	mult	v1,a3
40000738:	00002012 	mflo	a0
4000073c:	8ca3000c 	lw	v1,12(a1)
40000740:	00000000 	nop
40000744:	8cc7000c 	lw	a3,12(a2)
40000748:	00000000 	nop
4000074c:	00441021 	addu	v0,v0,a0
40000750:	00670018 	mult	v1,a3
40000754:	00003812 	mflo	a3
40000758:	8ca40010 	lw	a0,16(a1)
4000075c:	00000000 	nop
40000760:	8cc90010 	lw	t1,16(a2)
40000764:	00000000 	nop
40000768:	8fb500e8 	lw	s5,232(sp)
4000076c:	00000000 	nop
40000770:	8fa300a8 	lw	v1,168(sp)
40000774:	00000000 	nop
40000778:	02a30018 	mult	s5,v1
4000077c:	00001812 	mflo	v1
40000780:	8fa80108 	lw	t0,264(sp)
40000784:	00000000 	nop
40000788:	8faa00f8 	lw	t2,248(sp)
4000078c:	00000000 	nop
40000790:	01480018 	mult	t2,t0
40000794:	00004012 	mflo	t0
40000798:	00471021 	addu	v0,v0,a3
4000079c:	00890018 	mult	a0,t1
400007a0:	00003812 	mflo	a3
400007a4:	8ca40014 	lw	a0,20(a1)
400007a8:	00000000 	nop
400007ac:	8cc90014 	lw	t1,20(a2)
400007b0:	00000000 	nop
400007b4:	00681821 	addu	v1,v1,t0
400007b8:	00471021 	addu	v0,v0,a3
400007bc:	00890018 	mult	a0,t1
400007c0:	00003812 	mflo	a3
400007c4:	00032040 	sll	a0,v1,0x1
400007c8:	00471821 	addu	v1,v0,a3
400007cc:	000413c3 	sra	v0,a0,0xf
400007d0:	00031b83 	sra	v1,v1,0xe
400007d4:	00431021 	addu	v0,v0,v1
400007d8:	afa200d0 	sw	v0,208(sp)
400007dc:	02222023 	subu	a0,s1,v0
400007e0:	000417c3 	sra	v0,a0,0x1f
400007e4:	24070234 	li	a3,564
400007e8:	8fa900e0 	lw	t1,224(sp)
400007ec:	00000000 	nop
400007f0:	01270018 	mult	t1,a3
400007f4:	00004012 	mflo	t0
400007f8:	00823821 	addu	a3,a0,v0
400007fc:	2404fffe 	li	a0,-2
40000800:	00442024 	and	a0,v0,a0
40000804:	00084303 	sra	t0,t0,0xc
40000808:	00e21026 	xor	v0,a3,v0
4000080c:	0102102a 	slt	v0,t0,v0
40000810:	14400004 	bnez	v0,40000824 <main+0x804>
40000814:	00000000 	nop
40000818:	24820003 	addiu	v0,a0,3
4000081c:	0800020a 	j	40000828 <main+0x808>
40000820:	00000000 	nop
40000824:	24820002 	addiu	v0,a0,2
40000828:	3c044000 	lui	a0,0x4000
4000082c:	24843f54 	addiu	a0,a0,16212
40000830:	00025080 	sll	t2,v0,0x2
40000834:	008a2021 	addu	a0,a0,t2
40000838:	8c840000 	lw	a0,0(a0)
4000083c:	00000000 	nop
40000840:	00890018 	mult	a0,t1
40000844:	00002012 	mflo	a0
40000848:	0004b3c3 	sra	s6,a0,0xf
4000084c:	8fa400f4 	lw	a0,244(sp)
40000850:	00000000 	nop
40000854:	02645821 	addu	t3,s3,a0
40000858:	afab00c0 	sw	t3,192(sp)
4000085c:	00767821 	addu	t7,v1,s6
40000860:	afaf00a8 	sw	t7,168(sp)
40000864:	8fa30104 	lw	v1,260(sp)
40000868:	00000000 	nop
4000086c:	006b0018 	mult	v1,t3
40000870:	00003812 	mflo	a3
40000874:	8fa3010c 	lw	v1,268(sp)
40000878:	00000000 	nop
4000087c:	006f0018 	mult	v1,t7
40000880:	00002012 	mflo	a0
40000884:	3c0e4000 	lui	t6,0x4000
40000888:	3c0d4000 	lui	t5,0x4000
4000088c:	8fa30110 	lw	v1,272(sp)
40000890:	00000000 	nop
40000894:	00034880 	sll	t1,v1,0x2
40000898:	24030000 	li	v1,0
4000089c:	8fa800ac 	lw	t0,172(sp)
400008a0:	00000000 	nop
400008a4:	010b0018 	mult	t0,t3
400008a8:	00006012 	mflo	t4
400008ac:	2418007f 	li	t8,127
400008b0:	8fa800b0 	lw	t0,176(sp)
400008b4:	00000000 	nop
400008b8:	010f0018 	mult	t0,t7
400008bc:	00004012 	mflo	t0
400008c0:	0207582a 	slt	t3,s0,a3
400008c4:	8faf00ec 	lw	t7,236(sp)
400008c8:	00000000 	nop
400008cc:	01f80018 	mult	t7,t8
400008d0:	0000c812 	mflo	t9
400008d4:	8fb100f8 	lw	s1,248(sp)
400008d8:	00000000 	nop
400008dc:	11600002 	beqz	t3,400008e8 <main+0x8c8>
400008e0:	00000000 	nop
400008e4:	00694823 	subu	t1,v1,t1
400008e8:	00115880 	sll	t3,s1,0x2
400008ec:	0204902a 	slt	s2,s0,a0
400008f0:	02f80018 	mult	s7,t8
400008f4:	00007812 	mflo	t7
400008f8:	8fb000f0 	lw	s0,240(sp)
400008fc:	00000000 	nop
40000900:	02180018 	mult	s0,t8
40000904:	00008012 	mflo	s0
40000908:	12400002 	beqz	s2,40000914 <main+0x8f4>
4000090c:	00000000 	nop
40000910:	006b5823 	subu	t3,v1,t3
40000914:	25ce384c 	addiu	t6,t6,14412
40000918:	01d49021 	addu	s2,t6,s4
4000091c:	02b80018 	mult	s5,t8
40000920:	00007012 	mflo	t6
40000924:	0019c1c3 	sra	t8,t9,0x7
40000928:	8e590000 	lw	t9,0(s2)
4000092c:	00000000 	nop
40000930:	0319c821 	addu	t9,t8,t9
40000934:	2b380000 	slti	t8,t9,0
40000938:	13000002 	beqz	t8,40000944 <main+0x924>
4000093c:	00000000 	nop
40000940:	0003c821 	addu	t9,zero,v1
40000944:	25ad3f64 	addiu	t5,t5,16228
40000948:	01aa6821 	addu	t5,t5,t2
4000094c:	001051c3 	sra	t2,s0,0x7
40000950:	8dad0000 	lw	t5,0(t5)
40000954:	00000000 	nop
40000958:	014dc021 	addu	t8,t2,t5
4000095c:	2b0a0000 	slti	t2,t8,0
40000960:	11400002 	beqz	t2,4000096c <main+0x94c>
40000964:	00000000 	nop
40000968:	0003c021 	addu	t8,zero,v1
4000096c:	000c57c3 	sra	t2,t4,0x1f
40000970:	240cff00 	li	t4,-256
40000974:	014c5024 	and	t2,t2,t4
40000978:	000949c3 	sra	t1,t1,0x7
4000097c:	000f69c3 	sra	t5,t7,0x7
40000980:	012d4821 	addu	t1,t1,t5
40000984:	354a0080 	ori	t2,t2,0x80
40000988:	012a7821 	addu	t7,t1,t2
4000098c:	240a3000 	li	t2,12288
40000990:	014f482a 	slt	t1,t2,t7
40000994:	11200002 	beqz	t1,400009a0 <main+0x980>
40000998:	00000000 	nop
4000099c:	000a7821 	addu	t7,zero,t2
400009a0:	000847c3 	sra	t0,t0,0x1f
400009a4:	010c4024 	and	t0,t0,t4
400009a8:	000b49c3 	sra	t1,t3,0x7
400009ac:	000e59c3 	sra	t3,t6,0x7
400009b0:	012b4821 	addu	t1,t1,t3
400009b4:	35080080 	ori	t0,t0,0x80
400009b8:	01286821 	addu	t5,t1,t0
400009bc:	240800ff 	li	t0,255
400009c0:	014d582a 	slt	t3,t2,t5
400009c4:	8fa90110 	lw	t1,272(sp)
400009c8:	00000000 	nop
400009cc:	01280018 	mult	t1,t0
400009d0:	00004812 	mflo	t1
400009d4:	11600002 	beqz	t3,400009e0 <main+0x9c0>
400009d8:	00000000 	nop
400009dc:	000a6821 	addu	t5,zero,t2
400009e0:	240a4800 	li	t2,18432
400009e4:	0159582a 	slt	t3,t2,t9
400009e8:	02280018 	mult	s1,t0
400009ec:	00004012 	mflo	t0
400009f0:	11600002 	beqz	t3,400009fc <main+0x9dc>
400009f4:	00000000 	nop
400009f8:	000ac821 	addu	t9,zero,t2
400009fc:	0019a821 	addu	s5,zero,t9
40000a00:	240a5800 	li	t2,22528
40000a04:	0158582a 	slt	t3,t2,t8
40000a08:	11600002 	beqz	t3,40000a14 <main+0x9f4>
40000a0c:	00000000 	nop
40000a10:	000ac021 	addu	t8,zero,t2
40000a14:	00189821 	addu	s3,zero,t8
40000a18:	29ebd000 	slti	t3,t7,-12288
40000a1c:	240ad000 	li	t2,-12288
40000a20:	11600002 	beqz	t3,40000a2c <main+0xa0c>
40000a24:	00000000 	nop
40000a28:	000a7821 	addu	t7,zero,t2
40000a2c:	29abd000 	slti	t3,t5,-12288
40000a30:	3c0c4000 	lui	t4,0x4000
40000a34:	afac00e0 	sw	t4,224(sp)
40000a38:	11600002 	beqz	t3,40000a44 <main+0xa24>
40000a3c:	00000000 	nop
40000a40:	000a6821 	addu	t5,zero,t2
40000a44:	00073fc3 	sra	a3,a3,0x1f
40000a48:	240afe80 	li	t2,-384
40000a4c:	00094a03 	sra	t1,t1,0x8
40000a50:	00ea3824 	and	a3,a3,t2
40000a54:	01273821 	addu	a3,t1,a3
40000a58:	240b3c00 	li	t3,15360
40000a5c:	016f4823 	subu	t1,t3,t7
40000a60:	24ee00c0 	addiu	t6,a3,192
40000a64:	012e602a 	slt	t4,t1,t6
40000a68:	3c074000 	lui	a3,0x4000
40000a6c:	11800002 	beqz	t4,40000a78 <main+0xa58>
40000a70:	00000000 	nop
40000a74:	00097021 	addu	t6,zero,t1
40000a78:	000467c3 	sra	t4,a0,0x1f
40000a7c:	00082203 	sra	a0,t0,0x8
40000a80:	018a4024 	and	t0,t4,t2
40000a84:	00884021 	addu	t0,a0,t0
40000a88:	016d2023 	subu	a0,t3,t5
40000a8c:	250a00c0 	addiu	t2,t0,192
40000a90:	008a402a 	slt	t0,a0,t2
40000a94:	11000002 	beqz	t0,40000aa0 <main+0xa80>
40000a98:	00000000 	nop
40000a9c:	00045021 	addu	t2,zero,a0
40000aa0:	afaf00e4 	sw	t7,228(sp)
40000aa4:	00694023 	subu	t0,v1,t1
40000aa8:	01c8482a 	slt	t1,t6,t0
40000aac:	11200002 	beqz	t1,40000ab8 <main+0xa98>
40000ab0:	00000000 	nop
40000ab4:	00087021 	addu	t6,zero,t0
40000ab8:	afae0110 	sw	t6,272(sp)
40000abc:	afad00e8 	sw	t5,232(sp)
40000ac0:	00641823 	subu	v1,v1,a0
40000ac4:	0143202a 	slt	a0,t2,v1
40000ac8:	00164021 	addu	t0,zero,s6
40000acc:	10800002 	beqz	a0,40000ad8 <main+0xab8>
40000ad0:	00000000 	nop
40000ad4:	00035021 	addu	t2,zero,v1
40000ad8:	afaa00f8 	sw	t2,248(sp)
40000adc:	8fb100fc 	lw	s1,252(sp)
40000ae0:	00000000 	nop
40000ae4:	00111fc2 	srl	v1,s1,0x1f
40000ae8:	02231821 	addu	v1,s1,v1
40000aec:	00031840 	sll	v1,v1,0x1
40000af0:	0002a180 	sll	s4,v0,0x6
40000af4:	24f24288 	addiu	s2,a3,17032
40000af8:	8fa200d4 	lw	v0,212(sp)
40000afc:	00000000 	nop
40000b00:	0062b024 	and	s6,v1,v0
40000b04:	26310002 	addiu	s1,s1,2
40000b08:	afb100fc 	sw	s1,252(sp)
40000b0c:	24170063 	li	s7,99
40000b10:	00082021 	addu	a0,zero,t0
40000b14:	00088021 	addu	s0,zero,t0
40000b18:	0c000675 	jal	400019d4 <upzero>
40000b1c:	00000000 	nop
40000b20:	8fa500d8 	lw	a1,216(sp)
40000b24:	00000000 	nop
40000b28:	02851025 	or	v0,s4,a1
40000b2c:	02562021 	addu	a0,s2,s6
40000b30:	02f1182a 	slt	v1,s7,s1
40000b34:	ac820000 	sw	v0,0(a0)
40000b38:	14600073 	bnez	v1,40000d08 <main+0xce8>
40000b3c:	00000000 	nop
40000b40:	afb500ec 	sw	s5,236(sp)
40000b44:	00151102 	srl	v0,s5,0x4
40000b48:	afb300f0 	sw	s3,240(sp)
40000b4c:	00132102 	srl	a0,s3,0x4
40000b50:	3043007c 	andi	v1,v0,0x7c
40000b54:	8fa200e0 	lw	v0,224(sp)
40000b58:	00000000 	nop
40000b5c:	2442388c 	addiu	v0,v0,14476
40000b60:	3084007c 	andi	a0,a0,0x7c
40000b64:	00431821 	addu	v1,v0,v1
40000b68:	00441021 	addu	v0,v0,a0
40000b6c:	24040009 	li	a0,9
40000b70:	001532c3 	sra	a2,s5,0xb
40000b74:	2405000b 	li	a1,11
40000b78:	00133ac3 	sra	a3,s3,0xb
40000b7c:	00862023 	subu	a0,a0,a2
40000b80:	8c660000 	lw	a2,0(v1)
40000b84:	00000000 	nop
40000b88:	00a71823 	subu	v1,a1,a3
40000b8c:	8c420000 	lw	v0,0(v0)
40000b90:	00000000 	nop
40000b94:	00862007 	srav	a0,a2,a0
40000b98:	00621007 	srav	v0,v0,v1
40000b9c:	000418c0 	sll	v1,a0,0x3
40000ba0:	afa300cc 	sw	v1,204(sp)
40000ba4:	8fa300dc 	lw	v1,220(sp)
40000ba8:	00000000 	nop
40000bac:	8fa400f4 	lw	a0,244(sp)
40000bb0:	00000000 	nop
40000bb4:	00834021 	addu	t0,a0,v1
40000bb8:	000210c0 	sll	v0,v0,0x3
40000bbc:	afa200e0 	sw	v0,224(sp)
40000bc0:	8fa200d0 	lw	v0,208(sp)
40000bc4:	00000000 	nop
40000bc8:	02024821 	addu	t1,s0,v0
40000bcc:	3c024000 	lui	v0,0x4000
40000bd0:	244a4168 	addiu	t2,v0,16744
40000bd4:	8c424168 	lw	v0,16744(v0)
40000bd8:	00000000 	nop
40000bdc:	afa200c8 	sw	v0,200(sp)
40000be0:	8d420004 	lw	v0,4(t2)
40000be4:	00000000 	nop
40000be8:	afa200b4 	sw	v0,180(sp)
40000bec:	8d460008 	lw	a2,8(t2)
40000bf0:	00000000 	nop
40000bf4:	8d47000c 	lw	a3,12(t2)
40000bf8:	00000000 	nop
40000bfc:	8d420010 	lw	v0,16(t2)
40000c00:	00000000 	nop
40000c04:	afa200b8 	sw	v0,184(sp)
40000c08:	8d440014 	lw	a0,20(t2)
40000c0c:	00000000 	nop
40000c10:	8d420018 	lw	v0,24(t2)
40000c14:	00000000 	nop
40000c18:	afa200c4 	sw	v0,196(sp)
40000c1c:	8d42001c 	lw	v0,28(t2)
40000c20:	00000000 	nop
40000c24:	afa200bc 	sw	v0,188(sp)
40000c28:	8d4b0020 	lw	t3,32(t2)
40000c2c:	00000000 	nop
40000c30:	afab00d0 	sw	t3,208(sp)
40000c34:	8d520024 	lw	s2,36(t2)
40000c38:	00000000 	nop
40000c3c:	8d4b0028 	lw	t3,40(t2)
40000c40:	00000000 	nop
40000c44:	afab00d4 	sw	t3,212(sp)
40000c48:	8d59002c 	lw	t9,44(t2)
40000c4c:	00000000 	nop
40000c50:	8d530030 	lw	s3,48(t2)
40000c54:	00000000 	nop
40000c58:	8d4b0034 	lw	t3,52(t2)
40000c5c:	00000000 	nop
40000c60:	afab00f4 	sw	t3,244(sp)
40000c64:	8d450038 	lw	a1,56(t2)
40000c68:	00000000 	nop
40000c6c:	8d43003c 	lw	v1,60(t2)
40000c70:	00000000 	nop
40000c74:	8d510040 	lw	s1,64(t2)
40000c78:	00000000 	nop
40000c7c:	8d540044 	lw	s4,68(t2)
40000c80:	00000000 	nop
40000c84:	8d4f0048 	lw	t7,72(t2)
40000c88:	00000000 	nop
40000c8c:	8d58004c 	lw	t8,76(t2)
40000c90:	00000000 	nop
40000c94:	8d4d0050 	lw	t5,80(t2)
40000c98:	00000000 	nop
40000c9c:	8d4e0054 	lw	t6,84(t2)
40000ca0:	00000000 	nop
40000ca4:	8d4b0058 	lw	t3,88(t2)
40000ca8:	00000000 	nop
40000cac:	afab00dc 	sw	t3,220(sp)
40000cb0:	8d4a005c 	lw	t2,92(t2)
40000cb4:	00000000 	nop
40000cb8:	afaa00d8 	sw	t2,216(sp)
40000cbc:	8faa010c 	lw	t2,268(sp)
40000cc0:	00000000 	nop
40000cc4:	8fab00a8 	lw	t3,168(sp)
40000cc8:	00000000 	nop
40000ccc:	afab010c 	sw	t3,268(sp)
40000cd0:	8fab0108 	lw	t3,264(sp)
40000cd4:	00000000 	nop
40000cd8:	afa90108 	sw	t1,264(sp)
40000cdc:	8fa90104 	lw	t1,260(sp)
40000ce0:	00000000 	nop
40000ce4:	8fac00c0 	lw	t4,192(sp)
40000ce8:	00000000 	nop
40000cec:	afac0104 	sw	t4,260(sp)
40000cf0:	8fa20100 	lw	v0,256(sp)
40000cf4:	00000000 	nop
40000cf8:	afa200c0 	sw	v0,192(sp)
40000cfc:	afa80100 	sw	t0,256(sp)
40000d00:	08000085 	j	40000214 <main+0x1f4>
40000d04:	00000000 	nop
40000d08:	3c024000 	lui	v0,0x4000
40000d0c:	2442374c 	addiu	v0,v0,14156
40000d10:	00051880 	sll	v1,a1,0x2
40000d14:	00431021 	addu	v0,v0,v1
40000d18:	8c420000 	lw	v0,0(v0)
40000d1c:	00000000 	nop
40000d20:	afa20010 	sw	v0,16(sp)
40000d24:	240a0000 	li	t2,0
40000d28:	24180008 	li	t8,8
40000d2c:	24190020 	li	t9,32
40000d30:	afaa0104 	sw	t2,260(sp)
40000d34:	afaa0100 	sw	t2,256(sp)
40000d38:	000a2021 	addu	a0,zero,t2
40000d3c:	afaa00fc 	sw	t2,252(sp)
40000d40:	afaa00f8 	sw	t2,248(sp)
40000d44:	afaa00f4 	sw	t2,244(sp)
40000d48:	afaa00f0 	sw	t2,240(sp)
40000d4c:	afaa00ec 	sw	t2,236(sp)
40000d50:	afaa00e8 	sw	t2,232(sp)
40000d54:	afaa00e4 	sw	t2,228(sp)
40000d58:	000a5821 	addu	t3,zero,t2
40000d5c:	afaa00e0 	sw	t2,224(sp)
40000d60:	afaa00dc 	sw	t2,220(sp)
40000d64:	afaa00d8 	sw	t2,216(sp)
40000d68:	afaa00d4 	sw	t2,212(sp)
40000d6c:	afaa00d0 	sw	t2,208(sp)
40000d70:	afaa00cc 	sw	t2,204(sp)
40000d74:	afaa00c8 	sw	t2,200(sp)
40000d78:	000a2821 	addu	a1,zero,t2
40000d7c:	afaa00c4 	sw	t2,196(sp)
40000d80:	000a3021 	addu	a2,zero,t2
40000d84:	000a6021 	addu	t4,zero,t2
40000d88:	000a3821 	addu	a3,zero,t2
40000d8c:	000a7021 	addu	t6,zero,t2
40000d90:	afaa00b0 	sw	t2,176(sp)
40000d94:	000a9021 	addu	s2,zero,t2
40000d98:	afaa00ac 	sw	t2,172(sp)
40000d9c:	000a4021 	addu	t0,zero,t2
40000da0:	000a8021 	addu	s0,zero,t2
40000da4:	000a4821 	addu	t1,zero,t2
40000da8:	000a7821 	addu	t7,zero,t2
40000dac:	afaa00a8 	sw	t2,168(sp)
40000db0:	000a9821 	addu	s3,zero,t2
40000db4:	afaa010c 	sw	t2,268(sp)
40000db8:	000a1021 	addu	v0,zero,t2
40000dbc:	000a6821 	addu	t5,zero,t2
40000dc0:	afb20060 	sw	s2,96(sp)
40000dc4:	afb3006c 	sw	s3,108(sp)
40000dc8:	afb9007c 	sw	t9,124(sp)
40000dcc:	afb80088 	sw	t8,136(sp)
40000dd0:	afa200b4 	sw	v0,180(sp)
40000dd4:	afa900b8 	sw	t1,184(sp)
40000dd8:	afa700bc 	sw	a3,188(sp)
40000ddc:	afac0074 	sw	t4,116(sp)
40000de0:	afb00084 	sw	s0,132(sp)
40000de4:	afaf0108 	sw	t7,264(sp)
40000de8:	afa600c0 	sw	a2,192(sp)
40000dec:	afab0090 	sw	t3,144(sp)
40000df0:	afae0110 	sw	t6,272(sp)
40000df4:	afaa0094 	sw	t2,148(sp)
40000df8:	afad0098 	sw	t5,152(sp)
40000dfc:	afa8009c 	sw	t0,156(sp)
40000e00:	afa500a0 	sw	a1,160(sp)
40000e04:	afa400a4 	sw	a0,164(sp)
40000e08:	000d17c2 	srl	v0,t5,0x1f
40000e0c:	01a21021 	addu	v0,t5,v0
40000e10:	3c034000 	lui	v1,0x4000
40000e14:	00021040 	sll	v0,v0,0x1
40000e18:	2404fffc 	li	a0,-4
40000e1c:	24634288 	addiu	v1,v1,17032
40000e20:	00441024 	and	v0,v0,a0
40000e24:	00621021 	addu	v0,v1,v0
40000e28:	8c430000 	lw	v1,0(v0)
40000e2c:	00000000 	nop
40000e30:	afa30070 	sw	v1,112(sp)
40000e34:	3c024000 	lui	v0,0x4000
40000e38:	2442370c 	addiu	v0,v0,14092
40000e3c:	3065003c 	andi	a1,v1,0x3c
40000e40:	afa5005c 	sw	a1,92(sp)
40000e44:	3c034000 	lui	v1,0x4000
40000e48:	3c044000 	lui	a0,0x4000
40000e4c:	00451021 	addu	v0,v0,a1
40000e50:	24654240 	addiu	a1,v1,16960
40000e54:	24864228 	addiu	a2,a0,16936
40000e58:	8c420000 	lw	v0,0(v0)
40000e5c:	00000000 	nop
40000e60:	00590018 	mult	v0,t9
40000e64:	00001012 	mflo	v0
40000e68:	8c964228 	lw	s6,16936(a0)
40000e6c:	00000000 	nop
40000e70:	8c744240 	lw	s4,16960(v1)
40000e74:	00000000 	nop
40000e78:	8cd30004 	lw	s3,4(a2)
40000e7c:	00000000 	nop
40000e80:	8cb70004 	lw	s7,4(a1)
40000e84:	00000000 	nop
40000e88:	8cc30008 	lw	v1,8(a2)
40000e8c:	00000000 	nop
40000e90:	afa30050 	sw	v1,80(sp)
40000e94:	8ca30008 	lw	v1,8(a1)
40000e98:	00000000 	nop
40000e9c:	afa3004c 	sw	v1,76(sp)
40000ea0:	8cc3000c 	lw	v1,12(a2)
40000ea4:	00000000 	nop
40000ea8:	afa30058 	sw	v1,88(sp)
40000eac:	8ca3000c 	lw	v1,12(a1)
40000eb0:	00000000 	nop
40000eb4:	afa30054 	sw	v1,84(sp)
40000eb8:	8cc30010 	lw	v1,16(a2)
40000ebc:	00000000 	nop
40000ec0:	afa30068 	sw	v1,104(sp)
40000ec4:	8ca30010 	lw	v1,16(a1)
40000ec8:	00000000 	nop
40000ecc:	afa30064 	sw	v1,100(sp)
40000ed0:	8cc30014 	lw	v1,20(a2)
40000ed4:	00000000 	nop
40000ed8:	afa30080 	sw	v1,128(sp)
40000edc:	8ca30014 	lw	v1,20(a1)
40000ee0:	00000000 	nop
40000ee4:	afa30078 	sw	v1,120(sp)
40000ee8:	3c114000 	lui	s1,0x4000
40000eec:	3c104000 	lui	s0,0x4000
40000ef0:	0002abc3 	sra	s5,v0,0xf
40000ef4:	afb5008c 	sw	s5,140(sp)
40000ef8:	00152021 	addu	a0,zero,s5
40000efc:	00089021 	addu	s2,zero,t0
40000f00:	0c000675 	jal	400019d4 <upzero>
40000f04:	00000000 	nop
40000f08:	26254270 	addiu	a1,s1,17008
40000f0c:	26064258 	addiu	a2,s0,16984
40000f10:	8ca40004 	lw	a0,4(a1)
40000f14:	00000000 	nop
40000f18:	8cc90004 	lw	t1,4(a2)
40000f1c:	00000000 	nop
40000f20:	8e234270 	lw	v1,17008(s1)
40000f24:	00000000 	nop
40000f28:	8e084258 	lw	t0,16984(s0)
40000f2c:	00000000 	nop
40000f30:	02f30018 	mult	s7,s3
40000f34:	00001012 	mflo	v0
40000f38:	02960018 	mult	s4,s6
40000f3c:	00003812 	mflo	a3
40000f40:	00890018 	mult	a0,t1
40000f44:	00002012 	mflo	a0
40000f48:	00680018 	mult	v1,t0
40000f4c:	00004812 	mflo	t1
40000f50:	8ca80008 	lw	t0,8(a1)
40000f54:	00000000 	nop
40000f58:	8ccb0008 	lw	t3,8(a2)
40000f5c:	00000000 	nop
40000f60:	00471821 	addu	v1,v0,a3
40000f64:	8fa20050 	lw	v0,80(sp)
40000f68:	00000000 	nop
40000f6c:	8fa7004c 	lw	a3,76(sp)
40000f70:	00000000 	nop
40000f74:	00e20018 	mult	a3,v0
40000f78:	00005012 	mflo	t2
40000f7c:	00891021 	addu	v0,a0,t1
40000f80:	010b0018 	mult	t0,t3
40000f84:	00004812 	mflo	t1
40000f88:	8ca4000c 	lw	a0,12(a1)
40000f8c:	00000000 	nop
40000f90:	8ccc000c 	lw	t4,12(a2)
40000f94:	00000000 	nop
40000f98:	3c084000 	lui	t0,0x4000
40000f9c:	8fa70070 	lw	a3,112(sp)
40000fa0:	00000000 	nop
40000fa4:	00073983 	sra	a3,a3,0x6
40000fa8:	006a1821 	addu	v1,v1,t2
40000fac:	8faa0058 	lw	t2,88(sp)
40000fb0:	00000000 	nop
40000fb4:	8fab0054 	lw	t3,84(sp)
40000fb8:	00000000 	nop
40000fbc:	016a0018 	mult	t3,t2
40000fc0:	00005812 	mflo	t3
40000fc4:	00491021 	addu	v0,v0,t1
40000fc8:	008c0018 	mult	a0,t4
40000fcc:	00005012 	mflo	t2
40000fd0:	8ca90010 	lw	t1,16(a1)
40000fd4:	00000000 	nop
40000fd8:	8cce0010 	lw	t6,16(a2)
40000fdc:	00000000 	nop
40000fe0:	8fb600a8 	lw	s6,168(sp)
40000fe4:	00000000 	nop
40000fe8:	8fa4006c 	lw	a0,108(sp)
40000fec:	00000000 	nop
40000ff0:	02c40018 	mult	s6,a0
40000ff4:	00002012 	mflo	a0
40000ff8:	8fb0010c 	lw	s0,268(sp)
40000ffc:	00000000 	nop
40001000:	8fac00b4 	lw	t4,180(sp)
40001004:	00000000 	nop
40001008:	020c0018 	mult	s0,t4
4000100c:	00006812 	mflo	t5
40001010:	006b1821 	addu	v1,v1,t3
40001014:	8fab0068 	lw	t3,104(sp)
40001018:	00000000 	nop
4000101c:	8fac0064 	lw	t4,100(sp)
40001020:	00000000 	nop
40001024:	018b0018 	mult	t4,t3
40001028:	00005812 	mflo	t3
4000102c:	25083f54 	addiu	t0,t0,16212
40001030:	00076080 	sll	t4,a3,0x2
40001034:	8fb300b0 	lw	s3,176(sp)
40001038:	00000000 	nop
4000103c:	8fa70060 	lw	a3,96(sp)
40001040:	00000000 	nop
40001044:	02670018 	mult	s3,a3
40001048:	00007812 	mflo	t7
4000104c:	8fb400ac 	lw	s4,172(sp)
40001050:	00000000 	nop
40001054:	02920018 	mult	s4,s2
40001058:	0000c812 	mflo	t9
4000105c:	004a3821 	addu	a3,v0,t2
40001060:	012e0018 	mult	t1,t6
40001064:	00007012 	mflo	t6
40001068:	8caa0014 	lw	t2,20(a1)
4000106c:	00000000 	nop
40001070:	8cd80014 	lw	t8,20(a2)
40001074:	00000000 	nop
40001078:	008d4821 	addu	t1,a0,t5
4000107c:	010c1021 	addu	v0,t0,t4
40001080:	01f92021 	addu	a0,t7,t9
40001084:	006b1821 	addu	v1,v1,t3
40001088:	8fa80080 	lw	t0,128(sp)
4000108c:	00000000 	nop
40001090:	8fab0078 	lw	t3,120(sp)
40001094:	00000000 	nop
40001098:	01680018 	mult	t3,t0
4000109c:	00005812 	mflo	t3
400010a0:	00ee3821 	addu	a3,a3,t6
400010a4:	01580018 	mult	t2,t8
400010a8:	00005012 	mflo	t2
400010ac:	00094040 	sll	t0,t1,0x1
400010b0:	006b4821 	addu	t1,v1,t3
400010b4:	00042040 	sll	a0,a0,0x1
400010b8:	00ea1821 	addu	v1,a3,t2
400010bc:	8c4a0000 	lw	t2,0(v0)
400010c0:	00000000 	nop
400010c4:	8fa20010 	lw	v0,16(sp)
400010c8:	00000000 	nop
400010cc:	8fa7007c 	lw	a3,124(sp)
400010d0:	00000000 	nop
400010d4:	00470018 	mult	v0,a3
400010d8:	00003812 	mflo	a3
400010dc:	00091383 	sra	v0,t1,0xe
400010e0:	00085bc3 	sra	t3,t0,0xf
400010e4:	8fa80088 	lw	t0,136(sp)
400010e8:	00000000 	nop
400010ec:	01480018 	mult	t2,t0
400010f0:	00005012 	mflo	t2
400010f4:	00044bc3 	sra	t1,a0,0xf
400010f8:	00034383 	sra	t0,v1,0xe
400010fc:	01625821 	addu	t3,t3,v0
40001100:	afab0078 	sw	t3,120(sp)
40001104:	00071bc3 	sra	v1,a3,0xf
40001108:	000a53c3 	sra	t2,t2,0xf
4000110c:	afaa0070 	sw	t2,112(sp)
40001110:	01283821 	addu	a3,t1,t0
40001114:	00551021 	addu	v0,v0,s5
40001118:	afa20088 	sw	v0,136(sp)
4000111c:	010a2021 	addu	a0,t0,t2
40001120:	afa40080 	sw	a0,128(sp)
40001124:	01474021 	addu	t0,t2,a3
40001128:	006b5021 	addu	t2,v1,t3
4000112c:	3c094000 	lui	t1,0x4000
40001130:	8fa300b8 	lw	v1,184(sp)
40001134:	00000000 	nop
40001138:	00620018 	mult	v1,v0
4000113c:	0000c812 	mflo	t9
40001140:	afb90048 	sw	t9,72(sp)
40001144:	3c0d4000 	lui	t5,0x4000
40001148:	2418ffff 	li	t8,-1
4000114c:	8fa300bc 	lw	v1,188(sp)
40001150:	00000000 	nop
40001154:	00640018 	mult	v1,a0
40001158:	0000a812 	mflo	s5
4000115c:	24110000 	li	s1,0
40001160:	00107880 	sll	t7,s0,0x2
40001164:	01481823 	subu	v1,t2,t0
40001168:	afa3007c 	sw	v1,124(sp)
4000116c:	240e000c 	li	t6,12
40001170:	afae0064 	sw	t6,100(sp)
40001174:	2407ffd4 	li	a3,-44
40001178:	240b007f 	li	t3,127
4000117c:	8fb00084 	lw	s0,132(sp)
40001180:	00000000 	nop
40001184:	02020018 	mult	s0,v0
40001188:	00009012 	mflo	s2
4000118c:	8fa20074 	lw	v0,116(sp)
40001190:	00000000 	nop
40001194:	00440018 	mult	v0,a0
40001198:	00001012 	mflo	v0
4000119c:	afa20030 	sw	v0,48(sp)
400011a0:	0319c82a 	slt	t9,t8,t9
400011a4:	8fa200c0 	lw	v0,192(sp)
400011a8:	00000000 	nop
400011ac:	00470018 	mult	v0,a3
400011b0:	00001012 	mflo	v0
400011b4:	afa2006c 	sw	v0,108(sp)
400011b8:	006e0018 	mult	v1,t6
400011bc:	00001012 	mflo	v0
400011c0:	afa20068 	sw	v0,104(sp)
400011c4:	8fa20108 	lw	v0,264(sp)
400011c8:	00000000 	nop
400011cc:	004b0018 	mult	v0,t3
400011d0:	00007012 	mflo	t6
400011d4:	13200002 	beqz	t9,400011e0 <main+0x11c0>
400011d8:	00000000 	nop
400011dc:	022f7823 	subu	t7,s1,t7
400011e0:	8fa30110 	lw	v1,272(sp)
400011e4:	00000000 	nop
400011e8:	0014c880 	sll	t9,s4,0x2
400011ec:	00142021 	addu	a0,zero,s4
400011f0:	0315102a 	slt	v0,t8,s5
400011f4:	afb50060 	sw	s5,96(sp)
400011f8:	02cb0018 	mult	s6,t3
400011fc:	0000b812 	mflo	s7
40001200:	006b0018 	mult	v1,t3
40001204:	0000a012 	mflo	s4
40001208:	10400002 	beqz	v0,40001214 <main+0x11f4>
4000120c:	00000000 	nop
40001210:	0239c823 	subu	t9,s1,t9
40001214:	010a1821 	addu	v1,t0,t2
40001218:	afa30074 	sw	v1,116(sp)
4000121c:	afa80084 	sw	t0,132(sp)
40001220:	2522384c 	addiu	v0,t1,14412
40001224:	240900d4 	li	t1,212
40001228:	240a0030 	li	t2,48
4000122c:	8fa8005c 	lw	t0,92(sp)
40001230:	00000000 	nop
40001234:	0048c021 	addu	t8,v0,t0
40001238:	026b0018 	mult	s3,t3
4000123c:	0000b012 	mflo	s6
40001240:	240bfd90 	li	t3,-624
40001244:	8fa200e4 	lw	v0,228(sp)
40001248:	00000000 	nop
4000124c:	00490018 	mult	v0,t1
40001250:	00001012 	mflo	v0
40001254:	afa2005c 	sw	v0,92(sp)
40001258:	00670018 	mult	v1,a3
4000125c:	00001012 	mflo	v0
40001260:	afa20054 	sw	v0,84(sp)
40001264:	8fa200c4 	lw	v0,196(sp)
40001268:	00000000 	nop
4000126c:	004a0018 	mult	v0,t2
40001270:	00001012 	mflo	v0
40001274:	afa20058 	sw	v0,88(sp)
40001278:	000e11c3 	sra	v0,t6,0x7
4000127c:	8f100000 	lw	s0,0(t8)
40001280:	00000000 	nop
40001284:	240e05a8 	li	t6,1448
40001288:	8fa300e8 	lw	v1,232(sp)
4000128c:	00000000 	nop
40001290:	006b0018 	mult	v1,t3
40001294:	00001812 	mflo	v1
40001298:	afa30050 	sw	v1,80(sp)
4000129c:	2418fcb8 	li	t8,-840
400012a0:	00504021 	addu	t0,v0,s0
400012a4:	2410f36c 	li	s0,-3220
400012a8:	8fa200ec 	lw	v0,236(sp)
400012ac:	00000000 	nop
400012b0:	004e0018 	mult	v0,t6
400012b4:	00001012 	mflo	v0
400012b8:	afa2004c 	sw	v0,76(sp)
400012bc:	24150edc 	li	s5,3804
400012c0:	8fa200c8 	lw	v0,200(sp)
400012c4:	00000000 	nop
400012c8:	00580018 	mult	v0,t8
400012cc:	00001012 	mflo	v0
400012d0:	afa20044 	sw	v0,68(sp)
400012d4:	29020000 	slti	v0,t0,0
400012d8:	8fa300f0 	lw	v1,240(sp)
400012dc:	00000000 	nop
400012e0:	00700018 	mult	v1,s0
400012e4:	00001812 	mflo	v1
400012e8:	afa30040 	sw	v1,64(sp)
400012ec:	8fa300cc 	lw	v1,204(sp)
400012f0:	00000000 	nop
400012f4:	00750018 	mult	v1,s5
400012f8:	00001812 	mflo	v1
400012fc:	afa3003c 	sw	v1,60(sp)
40001300:	10400002 	beqz	v0,4000130c <main+0x12ec>
40001304:	00000000 	nop
40001308:	00114021 	addu	t0,zero,s1
4000130c:	25a23f64 	addiu	v0,t5,16228
40001310:	004c6021 	addu	t4,v0,t4
40001314:	001411c3 	sra	v0,s4,0x7
40001318:	8d8c0000 	lw	t4,0(t4)
4000131c:	00000000 	nop
40001320:	004ca021 	addu	s4,v0,t4
40001324:	2a820000 	slti	v0,s4,0
40001328:	10400002 	beqz	v0,40001334 <main+0x1314>
4000132c:	00000000 	nop
40001330:	0011a021 	addu	s4,zero,s1
40001334:	001217c3 	sra	v0,s2,0x1f
40001338:	2412ff00 	li	s2,-256
4000133c:	00521024 	and	v0,v0,s2
40001340:	000f61c3 	sra	t4,t7,0x7
40001344:	001779c3 	sra	t7,s7,0x7
40001348:	018f6021 	addu	t4,t4,t7
4000134c:	34420080 	ori	v0,v0,0x80
40001350:	0182b821 	addu	s7,t4,v0
40001354:	240c3000 	li	t4,12288
40001358:	24023c90 	li	v0,15504
4000135c:	0197782a 	slt	t7,t4,s7
40001360:	8fb300f4 	lw	s3,244(sp)
40001364:	00000000 	nop
40001368:	02620018 	mult	s3,v0
4000136c:	00001812 	mflo	v1
40001370:	afa30038 	sw	v1,56(sp)
40001374:	8fa300d0 	lw	v1,208(sp)
40001378:	00000000 	nop
4000137c:	00620018 	mult	v1,v0
40001380:	00001012 	mflo	v0
40001384:	afa20034 	sw	v0,52(sp)
40001388:	11e00002 	beqz	t7,40001394 <main+0x1374>
4000138c:	00000000 	nop
40001390:	000cb821 	addu	s7,zero,t4
40001394:	8fa20030 	lw	v0,48(sp)
40001398:	00000000 	nop
4000139c:	000217c3 	sra	v0,v0,0x1f
400013a0:	00521024 	and	v0,v0,s2
400013a4:	001969c3 	sra	t5,t9,0x7
400013a8:	001679c3 	sra	t7,s6,0x7
400013ac:	01af6821 	addu	t5,t5,t7
400013b0:	34420080 	ori	v0,v0,0x80
400013b4:	01a2b021 	addu	s6,t5,v0
400013b8:	240f00ff 	li	t7,255
400013bc:	0196102a 	slt	v0,t4,s6
400013c0:	8fa3010c 	lw	v1,268(sp)
400013c4:	00000000 	nop
400013c8:	006f0018 	mult	v1,t7
400013cc:	00006812 	mflo	t5
400013d0:	10400002 	beqz	v0,400013dc <main+0x13bc>
400013d4:	00000000 	nop
400013d8:	000cb021 	addu	s6,zero,t4
400013dc:	24194800 	li	t9,18432
400013e0:	0328902a 	slt	s2,t9,t0
400013e4:	008f0018 	mult	a0,t7
400013e8:	00006012 	mflo	t4
400013ec:	8fa200f8 	lw	v0,248(sp)
400013f0:	00000000 	nop
400013f4:	00550018 	mult	v0,s5
400013f8:	00001012 	mflo	v0
400013fc:	afa20030 	sw	v0,48(sp)
40001400:	8fa200d4 	lw	v0,212(sp)
40001404:	00000000 	nop
40001408:	00500018 	mult	v0,s0
4000140c:	00001012 	mflo	v0
40001410:	afa2002c 	sw	v0,44(sp)
40001414:	12400002 	beqz	s2,40001420 <main+0x1400>
40001418:	00000000 	nop
4000141c:	00194021 	addu	t0,zero,t9
40001420:	afa80108 	sw	t0,264(sp)
40001424:	24025800 	li	v0,22528
40001428:	0054782a 	slt	t7,v0,s4
4000142c:	11e00002 	beqz	t7,40001438 <main+0x1418>
40001430:	00000000 	nop
40001434:	0002a021 	addu	s4,zero,v0
40001438:	afb40110 	sw	s4,272(sp)
4000143c:	2af9d000 	slti	t9,s7,-12288
40001440:	240fd000 	li	t7,-12288
40001444:	8fa200fc 	lw	v0,252(sp)
40001448:	00000000 	nop
4000144c:	00580018 	mult	v0,t8
40001450:	00001012 	mflo	v0
40001454:	afa20028 	sw	v0,40(sp)
40001458:	8fa200d8 	lw	v0,216(sp)
4000145c:	00000000 	nop
40001460:	004e0018 	mult	v0,t6
40001464:	00001012 	mflo	v0
40001468:	afa20024 	sw	v0,36(sp)
4000146c:	13200002 	beqz	t9,40001478 <main+0x1458>
40001470:	00000000 	nop
40001474:	000fb821 	addu	s7,zero,t7
40001478:	2ac2d000 	slti	v0,s6,-12288
4000147c:	3c034000 	lui	v1,0x4000
40001480:	afa30020 	sw	v1,32(sp)
40001484:	10400002 	beqz	v0,40001490 <main+0x1470>
40001488:	00000000 	nop
4000148c:	000fb021 	addu	s6,zero,t7
40001490:	8fa20048 	lw	v0,72(sp)
40001494:	00000000 	nop
40001498:	000217c3 	sra	v0,v0,0x1f
4000149c:	240efe80 	li	t6,-384
400014a0:	000d4203 	sra	t0,t5,0x8
400014a4:	004e1024 	and	v0,v0,t6
400014a8:	01021021 	addu	v0,t0,v0
400014ac:	240d3c00 	li	t5,15360
400014b0:	8fa300dc 	lw	v1,220(sp)
400014b4:	00000000 	nop
400014b8:	006b0018 	mult	v1,t3
400014bc:	0000a812 	mflo	s5
400014c0:	01b74023 	subu	t0,t5,s7
400014c4:	244b00c0 	addiu	t3,v0,192
400014c8:	8fa20100 	lw	v0,256(sp)
400014cc:	00000000 	nop
400014d0:	004a0018 	mult	v0,t2
400014d4:	00001012 	mflo	v0
400014d8:	afa20018 	sw	v0,24(sp)
400014dc:	8fa200e0 	lw	v0,224(sp)
400014e0:	00000000 	nop
400014e4:	00490018 	mult	v0,t1
400014e8:	00001012 	mflo	v0
400014ec:	afa20014 	sw	v0,20(sp)
400014f0:	010b482a 	slt	t1,t0,t3
400014f4:	3c024000 	lui	v0,0x4000
400014f8:	afa20048 	sw	v0,72(sp)
400014fc:	8fa20104 	lw	v0,260(sp)
40001500:	00000000 	nop
40001504:	00470018 	mult	v0,a3
40001508:	00001012 	mflo	v0
4000150c:	afa2001c 	sw	v0,28(sp)
40001510:	8fa20090 	lw	v0,144(sp)
40001514:	00000000 	nop
40001518:	00470018 	mult	v0,a3
4000151c:	00008012 	mflo	s0
40001520:	11200002 	beqz	t1,4000152c <main+0x150c>
40001524:	00000000 	nop
40001528:	00085821 	addu	t3,zero,t0
4000152c:	afb700a8 	sw	s7,168(sp)
40001530:	8fa20060 	lw	v0,96(sp)
40001534:	00000000 	nop
40001538:	00021fc3 	sra	v1,v0,0x1f
4000153c:	000c1203 	sra	v0,t4,0x8
40001540:	006e1824 	and	v1,v1,t6
40001544:	00431021 	addu	v0,v0,v1
40001548:	01b6a023 	subu	s4,t5,s6
4000154c:	afb600b0 	sw	s6,176(sp)
40001550:	244700c0 	addiu	a3,v0,192
40001554:	0287102a 	slt	v0,s4,a3
40001558:	8fa30094 	lw	v1,148(sp)
4000155c:	00000000 	nop
40001560:	10400002 	beqz	v0,4000156c <main+0x154c>
40001564:	00000000 	nop
40001568:	00143821 	addu	a3,zero,s4
4000156c:	00079821 	addu	s3,zero,a3
40001570:	02289023 	subu	s2,s1,t0
40001574:	8fa20064 	lw	v0,100(sp)
40001578:	00000000 	nop
4000157c:	00620018 	mult	v1,v0
40001580:	0000b012 	mflo	s6
40001584:	0172b82a 	slt	s7,t3,s2
40001588:	afab010c 	sw	t3,268(sp)
4000158c:	8fa40070 	lw	a0,112(sp)
40001590:	00000000 	nop
40001594:	0c000675 	jal	400019d4 <upzero>
40001598:	00000000 	nop
4000159c:	12e00002 	beqz	s7,400015a8 <main+0x1588>
400015a0:	00000000 	nop
400015a4:	afb2010c 	sw	s2,268(sp)
400015a8:	02341023 	subu	v0,s1,s4
400015ac:	00132021 	addu	a0,zero,s3
400015b0:	0082182a 	slt	v1,a0,v0
400015b4:	8fac00a0 	lw	t4,160(sp)
400015b8:	00000000 	nop
400015bc:	8fad0098 	lw	t5,152(sp)
400015c0:	00000000 	nop
400015c4:	10600002 	beqz	v1,400015d0 <main+0x15b0>
400015c8:	00000000 	nop
400015cc:	00022021 	addu	a0,zero,v0
400015d0:	afa400ac 	sw	a0,172(sp)
400015d4:	8fa2006c 	lw	v0,108(sp)
400015d8:	00000000 	nop
400015dc:	8fa30068 	lw	v1,104(sp)
400015e0:	00000000 	nop
400015e4:	00432021 	addu	a0,v0,v1
400015e8:	8fa2005c 	lw	v0,92(sp)
400015ec:	00000000 	nop
400015f0:	8fa30054 	lw	v1,84(sp)
400015f4:	00000000 	nop
400015f8:	00431821 	addu	v1,v0,v1
400015fc:	000c11c0 	sll	v0,t4,0x7
40001600:	8fa50058 	lw	a1,88(sp)
40001604:	00000000 	nop
40001608:	00a42021 	addu	a0,a1,a0
4000160c:	8fa50050 	lw	a1,80(sp)
40001610:	00000000 	nop
40001614:	00a31821 	addu	v1,a1,v1
40001618:	00441021 	addu	v0,v0,a0
4000161c:	8fa4004c 	lw	a0,76(sp)
40001620:	00000000 	nop
40001624:	00831821 	addu	v1,a0,v1
40001628:	8fa40044 	lw	a0,68(sp)
4000162c:	00000000 	nop
40001630:	00821021 	addu	v0,a0,v0
40001634:	8fa40040 	lw	a0,64(sp)
40001638:	00000000 	nop
4000163c:	00831821 	addu	v1,a0,v1
40001640:	8fa4003c 	lw	a0,60(sp)
40001644:	00000000 	nop
40001648:	00821021 	addu	v0,a0,v0
4000164c:	8fa40038 	lw	a0,56(sp)
40001650:	00000000 	nop
40001654:	00831821 	addu	v1,a0,v1
40001658:	8fa40034 	lw	a0,52(sp)
4000165c:	00000000 	nop
40001660:	00821021 	addu	v0,a0,v0
40001664:	8fa40030 	lw	a0,48(sp)
40001668:	00000000 	nop
4000166c:	00832821 	addu	a1,a0,v1
40001670:	8fa3002c 	lw	v1,44(sp)
40001674:	00000000 	nop
40001678:	00623021 	addu	a2,v1,v0
4000167c:	8faf0108 	lw	t7,264(sp)
40001680:	00000000 	nop
40001684:	000f2102 	srl	a0,t7,0x4
40001688:	8fae0110 	lw	t6,272(sp)
4000168c:	00000000 	nop
40001690:	000e1902 	srl	v1,t6,0x4
40001694:	8fab00a4 	lw	t3,164(sp)
40001698:	00000000 	nop
4000169c:	000b11c0 	sll	v0,t3,0x7
400016a0:	8fa70028 	lw	a3,40(sp)
400016a4:	00000000 	nop
400016a8:	00e52821 	addu	a1,a3,a1
400016ac:	8fa70024 	lw	a3,36(sp)
400016b0:	00000000 	nop
400016b4:	00e63821 	addu	a3,a3,a2
400016b8:	3084007c 	andi	a0,a0,0x7c
400016bc:	8fa60020 	lw	a2,32(sp)
400016c0:	00000000 	nop
400016c4:	24c6388c 	addiu	a2,a2,14476
400016c8:	3063007c 	andi	v1,v1,0x7c
400016cc:	00452821 	addu	a1,v0,a1
400016d0:	02a71021 	addu	v0,s5,a3
400016d4:	00c42021 	addu	a0,a2,a0
400016d8:	00c31821 	addu	v1,a2,v1
400016dc:	24080009 	li	t0,9
400016e0:	000f52c3 	sra	t2,t7,0xb
400016e4:	2407000b 	li	a3,11
400016e8:	000e4ac3 	sra	t1,t6,0xb
400016ec:	8fa60018 	lw	a2,24(sp)
400016f0:	00000000 	nop
400016f4:	00c53021 	addu	a2,a2,a1
400016f8:	8fa50014 	lw	a1,20(sp)
400016fc:	00000000 	nop
40001700:	00a21021 	addu	v0,a1,v0
40001704:	02021021 	addu	v0,s0,v0
40001708:	010a2823 	subu	a1,t0,t2
4000170c:	8c880000 	lw	t0,0(a0)
40001710:	00000000 	nop
40001714:	00e92023 	subu	a0,a3,t1
40001718:	8c690000 	lw	t1,0(v1)
4000171c:	00000000 	nop
40001720:	8fa3001c 	lw	v1,28(sp)
40001724:	00000000 	nop
40001728:	00661821 	addu	v1,v1,a2
4000172c:	8fa60048 	lw	a2,72(sp)
40001730:	00000000 	nop
40001734:	24c64418 	addiu	a2,a2,17432
40001738:	000d5080 	sll	t2,t5,0x2
4000173c:	00a83807 	srav	a3,t0,a1
40001740:	00892807 	srav	a1,t1,a0
40001744:	02c31821 	addu	v1,s6,v1
40001748:	00ca2021 	addu	a0,a2,t2
4000174c:	00023383 	sra	a2,v0,0xe
40001750:	25ad0002 	addiu	t5,t5,2
40001754:	0007c8c0 	sll	t9,a3,0x3
40001758:	8fa2008c 	lw	v0,140(sp)
4000175c:	00000000 	nop
40001760:	8fa70078 	lw	a3,120(sp)
40001764:	00000000 	nop
40001768:	00471021 	addu	v0,v0,a3
4000176c:	0005c0c0 	sll	t8,a1,0x3
40001770:	00032b83 	sra	a1,v1,0xe
40001774:	ac860000 	sw	a2,0(a0)
40001778:	29a30064 	slti	v1,t5,100
4000177c:	ac850004 	sw	a1,4(a0)
40001780:	8faa0104 	lw	t2,260(sp)
40001784:	00000000 	nop
40001788:	8fa40100 	lw	a0,256(sp)
4000178c:	00000000 	nop
40001790:	afa40104 	sw	a0,260(sp)
40001794:	afab0100 	sw	t3,256(sp)
40001798:	8fa400fc 	lw	a0,252(sp)
4000179c:	00000000 	nop
400017a0:	8fa500f8 	lw	a1,248(sp)
400017a4:	00000000 	nop
400017a8:	afa500fc 	sw	a1,252(sp)
400017ac:	8fa500f4 	lw	a1,244(sp)
400017b0:	00000000 	nop
400017b4:	afa500f8 	sw	a1,248(sp)
400017b8:	8fa500f0 	lw	a1,240(sp)
400017bc:	00000000 	nop
400017c0:	afa500f4 	sw	a1,244(sp)
400017c4:	8fa500ec 	lw	a1,236(sp)
400017c8:	00000000 	nop
400017cc:	afa500f0 	sw	a1,240(sp)
400017d0:	8fa500e8 	lw	a1,232(sp)
400017d4:	00000000 	nop
400017d8:	afa500ec 	sw	a1,236(sp)
400017dc:	8fa500e4 	lw	a1,228(sp)
400017e0:	00000000 	nop
400017e4:	afa500e8 	sw	a1,232(sp)
400017e8:	8fa50074 	lw	a1,116(sp)
400017ec:	00000000 	nop
400017f0:	afa500e4 	sw	a1,228(sp)
400017f4:	8fab00e0 	lw	t3,224(sp)
400017f8:	00000000 	nop
400017fc:	8fa500dc 	lw	a1,220(sp)
40001800:	00000000 	nop
40001804:	afa500e0 	sw	a1,224(sp)
40001808:	8fa500d8 	lw	a1,216(sp)
4000180c:	00000000 	nop
40001810:	afa500dc 	sw	a1,220(sp)
40001814:	8fa500d4 	lw	a1,212(sp)
40001818:	00000000 	nop
4000181c:	afa500d8 	sw	a1,216(sp)
40001820:	8fa500d0 	lw	a1,208(sp)
40001824:	00000000 	nop
40001828:	afa500d4 	sw	a1,212(sp)
4000182c:	8fa500cc 	lw	a1,204(sp)
40001830:	00000000 	nop
40001834:	afa500d0 	sw	a1,208(sp)
40001838:	8fa500c8 	lw	a1,200(sp)
4000183c:	00000000 	nop
40001840:	afa500cc 	sw	a1,204(sp)
40001844:	afac00c8 	sw	t4,200(sp)
40001848:	8fa500c4 	lw	a1,196(sp)
4000184c:	00000000 	nop
40001850:	8fa600c0 	lw	a2,192(sp)
40001854:	00000000 	nop
40001858:	afa600c4 	sw	a2,196(sp)
4000185c:	8fa6007c 	lw	a2,124(sp)
40001860:	00000000 	nop
40001864:	8fac00bc 	lw	t4,188(sp)
40001868:	00000000 	nop
4000186c:	8fa70080 	lw	a3,128(sp)
40001870:	00000000 	nop
40001874:	8fb2009c 	lw	s2,156(sp)
40001878:	00000000 	nop
4000187c:	8fa80084 	lw	t0,132(sp)
40001880:	00000000 	nop
40001884:	8fb000b8 	lw	s0,184(sp)
40001888:	00000000 	nop
4000188c:	8fa90088 	lw	t1,136(sp)
40001890:	00000000 	nop
40001894:	8fb300b4 	lw	s3,180(sp)
40001898:	00000000 	nop
4000189c:	1460fd48 	bnez	v1,40000dc0 <main+0xda0>
400018a0:	00000000 	nop
400018a4:	00118021 	addu	s0,zero,s1
400018a8:	3c024000 	lui	v0,0x4000
400018ac:	3c044000 	lui	a0,0x4000
400018b0:	24434288 	addiu	v1,v0,17032
400018b4:	00111080 	sll	v0,s1,0x2
400018b8:	24853c0c 	addiu	a1,a0,15372
400018bc:	00622023 	subu	a0,v1,v0
400018c0:	00a21823 	subu	v1,a1,v0
400018c4:	8c820000 	lw	v0,0(a0)
400018c8:	00000000 	nop
400018cc:	8c630000 	lw	v1,0(v1)
400018d0:	00000000 	nop
400018d4:	00431026 	xor	v0,v0,v1
400018d8:	2c420001 	sltiu	v0,v0,1
400018dc:	2631ffff 	addiu	s1,s1,-1
400018e0:	00508021 	addu	s0,v0,s0
400018e4:	24020000 	li	v0,0
400018e8:	2403ffce 	li	v1,-50
400018ec:	1623ffee 	bne	s1,v1,400018a8 <main+0x1888>
400018f0:	00000000 	nop
400018f4:	3c034000 	lui	v1,0x4000
400018f8:	3c054000 	lui	a1,0x4000
400018fc:	24644418 	addiu	a0,v1,17432
40001900:	00021880 	sll	v1,v0,0x2
40001904:	24a63d9c 	addiu	a2,a1,15772
40001908:	00832823 	subu	a1,a0,v1
4000190c:	00c32023 	subu	a0,a2,v1
40001910:	8ca30000 	lw	v1,0(a1)
40001914:	00000000 	nop
40001918:	8c840000 	lw	a0,0(a0)
4000191c:	00000000 	nop
40001920:	00641826 	xor	v1,v1,a0
40001924:	2c630001 	sltiu	v1,v1,1
40001928:	2442ffff 	addiu	v0,v0,-1
4000192c:	00708021 	addu	s0,v1,s0
40001930:	2403ff9c 	li	v1,-100
40001934:	1443ffef 	bne	v0,v1,400018f4 <main+0x18d4>
40001938:	00000000 	nop
4000193c:	3c024000 	lui	v0,0x4000
40001940:	24443f74 	addiu	a0,v0,16244
40001944:	24110096 	li	s1,150
40001948:	00102821 	addu	a1,zero,s0
4000194c:	0c000a0a 	jal	40002828 <printf>
40001950:	00000000 	nop
40001954:	16110005 	bne	s0,s1,4000196c <main+0x194c>
40001958:	00000000 	nop
4000195c:	3c024000 	lui	v0,0x4000
40001960:	24443f80 	addiu	a0,v0,16256
40001964:	0800065d 	j	40001974 <main+0x1954>
40001968:	00000000 	nop
4000196c:	3c024000 	lui	v0,0x4000
40001970:	24443f8e 	addiu	a0,v0,16270
40001974:	0c000a0a 	jal	40002828 <printf>
40001978:	00000000 	nop
4000197c:	00101021 	addu	v0,zero,s0
40001980:	8fb00114 	lw	s0,276(sp)
40001984:	00000000 	nop
40001988:	8fb10118 	lw	s1,280(sp)
4000198c:	00000000 	nop
40001990:	8fb2011c 	lw	s2,284(sp)
40001994:	00000000 	nop
40001998:	8fb30120 	lw	s3,288(sp)
4000199c:	00000000 	nop
400019a0:	8fb40124 	lw	s4,292(sp)
400019a4:	00000000 	nop
400019a8:	8fb50128 	lw	s5,296(sp)
400019ac:	00000000 	nop
400019b0:	8fb6012c 	lw	s6,300(sp)
400019b4:	00000000 	nop
400019b8:	8fb70130 	lw	s7,304(sp)
400019bc:	00000000 	nop
400019c0:	8fbf0134 	lw	ra,308(sp)
400019c4:	00000000 	nop
400019c8:	27bd0138 	addiu	sp,sp,312
400019cc:	03e00008 	jr	ra
400019d0:	00000000 	nop

400019d4 <upzero>:
400019d4:	10800058 	beqz	a0,40001b38 <upzero+0x164>
400019d8:	00000000 	nop
400019dc:	8ca20000 	lw	v0,0(a1)
400019e0:	00000000 	nop
400019e4:	00440018 	mult	v0,a0
400019e8:	00001812 	mflo	v1
400019ec:	8cc70000 	lw	a3,0(a2)
400019f0:	00000000 	nop
400019f4:	240200ff 	li	v0,255
400019f8:	000347c3 	sra	t0,v1,0x1f
400019fc:	2403ff00 	li	v1,-256
40001a00:	01034024 	and	t0,t0,v1
40001a04:	00e20018 	mult	a3,v0
40001a08:	00004812 	mflo	t1
40001a0c:	35070080 	ori	a3,t0,0x80
40001a10:	00094203 	sra	t0,t1,0x8
40001a14:	00e83821 	addu	a3,a3,t0
40001a18:	acc70000 	sw	a3,0(a2)
40001a1c:	8ca70004 	lw	a3,4(a1)
40001a20:	00000000 	nop
40001a24:	00e40018 	mult	a3,a0
40001a28:	00003812 	mflo	a3
40001a2c:	8cc80004 	lw	t0,4(a2)
40001a30:	00000000 	nop
40001a34:	00073fc3 	sra	a3,a3,0x1f
40001a38:	00e33824 	and	a3,a3,v1
40001a3c:	01020018 	mult	t0,v0
40001a40:	00004012 	mflo	t0
40001a44:	34e70080 	ori	a3,a3,0x80
40001a48:	00084203 	sra	t0,t0,0x8
40001a4c:	00e83821 	addu	a3,a3,t0
40001a50:	acc70004 	sw	a3,4(a2)
40001a54:	8ca70008 	lw	a3,8(a1)
40001a58:	00000000 	nop
40001a5c:	00e40018 	mult	a3,a0
40001a60:	00003812 	mflo	a3
40001a64:	8cc80008 	lw	t0,8(a2)
40001a68:	00000000 	nop
40001a6c:	00073fc3 	sra	a3,a3,0x1f
40001a70:	00e33824 	and	a3,a3,v1
40001a74:	01020018 	mult	t0,v0
40001a78:	00004012 	mflo	t0
40001a7c:	34e70080 	ori	a3,a3,0x80
40001a80:	00084203 	sra	t0,t0,0x8
40001a84:	00e83821 	addu	a3,a3,t0
40001a88:	acc70008 	sw	a3,8(a2)
40001a8c:	8ca7000c 	lw	a3,12(a1)
40001a90:	00000000 	nop
40001a94:	00e40018 	mult	a3,a0
40001a98:	00003812 	mflo	a3
40001a9c:	8cc8000c 	lw	t0,12(a2)
40001aa0:	00000000 	nop
40001aa4:	00073fc3 	sra	a3,a3,0x1f
40001aa8:	00e33824 	and	a3,a3,v1
40001aac:	01020018 	mult	t0,v0
40001ab0:	00004012 	mflo	t0
40001ab4:	34e70080 	ori	a3,a3,0x80
40001ab8:	00084203 	sra	t0,t0,0x8
40001abc:	00e83821 	addu	a3,a3,t0
40001ac0:	acc7000c 	sw	a3,12(a2)
40001ac4:	8ca70010 	lw	a3,16(a1)
40001ac8:	00000000 	nop
40001acc:	00e40018 	mult	a3,a0
40001ad0:	00003812 	mflo	a3
40001ad4:	8cc80010 	lw	t0,16(a2)
40001ad8:	00000000 	nop
40001adc:	00073fc3 	sra	a3,a3,0x1f
40001ae0:	00e33824 	and	a3,a3,v1
40001ae4:	01020018 	mult	t0,v0
40001ae8:	00004012 	mflo	t0
40001aec:	34e70080 	ori	a3,a3,0x80
40001af0:	00084203 	sra	t0,t0,0x8
40001af4:	00e83821 	addu	a3,a3,t0
40001af8:	acc70010 	sw	a3,16(a2)
40001afc:	8ca70014 	lw	a3,20(a1)
40001b00:	00000000 	nop
40001b04:	00e40018 	mult	a3,a0
40001b08:	00004012 	mflo	t0
40001b0c:	8cc70014 	lw	a3,20(a2)
40001b10:	00000000 	nop
40001b14:	000847c3 	sra	t0,t0,0x1f
40001b18:	01031824 	and	v1,t0,v1
40001b1c:	00e20018 	mult	a3,v0
40001b20:	00003812 	mflo	a3
40001b24:	34620080 	ori	v0,v1,0x80
40001b28:	00071a03 	sra	v1,a3,0x8
40001b2c:	00431021 	addu	v0,v0,v1
40001b30:	080006f2 	j	40001bc8 <upzero+0x1f4>
40001b34:	00000000 	nop
40001b38:	240200ff 	li	v0,255
40001b3c:	8cc30000 	lw	v1,0(a2)
40001b40:	00000000 	nop
40001b44:	00620018 	mult	v1,v0
40001b48:	00001812 	mflo	v1
40001b4c:	00031a03 	sra	v1,v1,0x8
40001b50:	acc30000 	sw	v1,0(a2)
40001b54:	8cc30004 	lw	v1,4(a2)
40001b58:	00000000 	nop
40001b5c:	00620018 	mult	v1,v0
40001b60:	00001812 	mflo	v1
40001b64:	00031a03 	sra	v1,v1,0x8
40001b68:	acc30004 	sw	v1,4(a2)
40001b6c:	8cc30008 	lw	v1,8(a2)
40001b70:	00000000 	nop
40001b74:	00620018 	mult	v1,v0
40001b78:	00001812 	mflo	v1
40001b7c:	00031a03 	sra	v1,v1,0x8
40001b80:	acc30008 	sw	v1,8(a2)
40001b84:	8cc3000c 	lw	v1,12(a2)
40001b88:	00000000 	nop
40001b8c:	00620018 	mult	v1,v0
40001b90:	00001812 	mflo	v1
40001b94:	00031a03 	sra	v1,v1,0x8
40001b98:	acc3000c 	sw	v1,12(a2)
40001b9c:	8cc30010 	lw	v1,16(a2)
40001ba0:	00000000 	nop
40001ba4:	00620018 	mult	v1,v0
40001ba8:	00001812 	mflo	v1
40001bac:	00031a03 	sra	v1,v1,0x8
40001bb0:	acc30010 	sw	v1,16(a2)
40001bb4:	8cc30014 	lw	v1,20(a2)
40001bb8:	00000000 	nop
40001bbc:	00620018 	mult	v1,v0
40001bc0:	00001012 	mflo	v0
40001bc4:	00021203 	sra	v0,v0,0x8
40001bc8:	acc20014 	sw	v0,20(a2)
40001bcc:	8ca20010 	lw	v0,16(a1)
40001bd0:	00000000 	nop
40001bd4:	aca20014 	sw	v0,20(a1)
40001bd8:	8ca2000c 	lw	v0,12(a1)
40001bdc:	00000000 	nop
40001be0:	aca20010 	sw	v0,16(a1)
40001be4:	8ca20008 	lw	v0,8(a1)
40001be8:	00000000 	nop
40001bec:	aca2000c 	sw	v0,12(a1)
40001bf0:	8ca20000 	lw	v0,0(a1)
40001bf4:	00000000 	nop
40001bf8:	aca20004 	sw	v0,4(a1)
40001bfc:	aca40000 	sw	a0,0(a1)
40001c00:	03e00008 	jr	ra
40001c04:	00000000 	nop

40001c08 <legup_start_counter>:
40001c08:	3c02f100 	lui	v0,0xf100
40001c0c:	000420c0 	sll	a0,a0,0x3
40001c10:	00822021 	addu	a0,a0,v0
40001c14:	24020001 	li	v0,1
40001c18:	ac820000 	sw	v0,0(a0)
40001c1c:	03e00008 	jr	ra
40001c20:	00000000 	nop

40001c24 <legup_stop_counter>:
40001c24:	3c02f100 	lui	v0,0xf100
40001c28:	000420c0 	sll	a0,a0,0x3
40001c2c:	24430004 	addiu	v1,v0,4
40001c30:	00831821 	addu	v1,a0,v1
40001c34:	24050001 	li	a1,1
40001c38:	ac650000 	sw	a1,0(v1)
40001c3c:	00821021 	addu	v0,a0,v0
40001c40:	8c420000 	lw	v0,0(v0)
40001c44:	03e00008 	jr	ra
40001c48:	00000000 	nop

40001c4c <printc_uart>:
40001c4c:	3c03ff20 	lui	v1,0xff20
40001c50:	3c020001 	lui	v0,0x1
40001c54:	34631004 	ori	v1,v1,0x1004
40001c58:	34420000 	ori	v0,v0,0x0
40001c5c:	8c630000 	lw	v1,0(v1)
40001c60:	00000000 	nop
40001c64:	0062102b 	sltu	v0,v1,v0
40001c68:	1440fff8 	bnez	v0,40001c4c <printc_uart>
40001c6c:	00000000 	nop
40001c70:	3c02ff20 	lui	v0,0xff20
40001c74:	34421000 	ori	v0,v0,0x1000
40001c78:	ac440000 	sw	a0,0(v0)
40001c7c:	03e00008 	jr	ra
40001c80:	00000000 	nop

40001c84 <print_uart>:
40001c84:	90830000 	lbu	v1,0(a0)
40001c88:	00000000 	nop
40001c8c:	10600015 	beqz	v1,40001ce4 <print_uart+0x60>
40001c90:	00000000 	nop
40001c94:	24820001 	addiu	v0,a0,1
40001c98:	3c05ff20 	lui	a1,0xff20
40001c9c:	3c040001 	lui	a0,0x1
40001ca0:	34a51004 	ori	a1,a1,0x1004
40001ca4:	34840000 	ori	a0,a0,0x0
40001ca8:	8ca50000 	lw	a1,0(a1)
40001cac:	00000000 	nop
40001cb0:	00a4202b 	sltu	a0,a1,a0
40001cb4:	1480fff8 	bnez	a0,40001c98 <print_uart+0x14>
40001cb8:	00000000 	nop
40001cbc:	00031e00 	sll	v1,v1,0x18
40001cc0:	3c04ff20 	lui	a0,0xff20
40001cc4:	00031e03 	sra	v1,v1,0x18
40001cc8:	34841000 	ori	a0,a0,0x1000
40001ccc:	ac830000 	sw	v1,0(a0)
40001cd0:	90430000 	lbu	v1,0(v0)
40001cd4:	00000000 	nop
40001cd8:	24420001 	addiu	v0,v0,1
40001cdc:	1460ffee 	bnez	v1,40001c98 <print_uart+0x14>
40001ce0:	00000000 	nop
40001ce4:	03e00008 	jr	ra
40001ce8:	00000000 	nop

40001cec <_i2h>:
40001cec:	2882000a 	slti	v0,a0,10
40001cf0:	14400004 	bnez	v0,40001d04 <_i2h+0x18>
40001cf4:	00000000 	nop
40001cf8:	24020057 	li	v0,87
40001cfc:	08000742 	j	40001d08 <_i2h+0x1c>
40001d00:	00000000 	nop
40001d04:	24020030 	li	v0,48
40001d08:	00441021 	addu	v0,v0,a0
40001d0c:	00021600 	sll	v0,v0,0x18
40001d10:	00021603 	sra	v0,v0,0x18
40001d14:	03e00008 	jr	ra
40001d18:	00000000 	nop

40001d1c <_i2H>:
40001d1c:	2882000a 	slti	v0,a0,10
40001d20:	14400004 	bnez	v0,40001d34 <_i2H+0x18>
40001d24:	00000000 	nop
40001d28:	24020037 	li	v0,55
40001d2c:	0800074e 	j	40001d38 <_i2H+0x1c>
40001d30:	00000000 	nop
40001d34:	24020030 	li	v0,48
40001d38:	00441021 	addu	v0,v0,a0
40001d3c:	00021600 	sll	v0,v0,0x18
40001d40:	00021603 	sra	v0,v0,0x18
40001d44:	03e00008 	jr	ra
40001d48:	00000000 	nop

40001d4c <i2h>:
40001d4c:	27bdffc8 	addiu	sp,sp,-56
40001d50:	afbf0034 	sw	ra,52(sp)
40001d54:	afb40030 	sw	s4,48(sp)
40001d58:	afb3002c 	sw	s3,44(sp)
40001d5c:	afb20028 	sw	s2,40(sp)
40001d60:	afb10024 	sw	s1,36(sp)
40001d64:	afb00020 	sw	s0,32(sp)
40001d68:	00048021 	addu	s0,zero,a0
40001d6c:	3c034000 	lui	v1,0x4000
40001d70:	3c044000 	lui	a0,0x4000
40001d74:	3c024000 	lui	v0,0x4000
40001d78:	10a00004 	beqz	a1,40001d8c <i2h+0x40>
40001d7c:	00000000 	nop
40001d80:	24921d1c 	addiu	s2,a0,7452
40001d84:	08000764 	j	40001d90 <i2h+0x44>
40001d88:	00000000 	nop
40001d8c:	24721cec 	addiu	s2,v1,7404
40001d90:	16000004 	bnez	s0,40001da4 <i2h+0x58>
40001d94:	00000000 	nop
40001d98:	24423f9c 	addiu	v0,v0,16284
40001d9c:	0800078b 	j	40001e2c <i2h+0xe0>
40001da0:	00000000 	nop
40001da4:	24130000 	li	s3,0
40001da8:	0013a021 	addu	s4,zero,s3
40001dac:	27b10014 	addiu	s1,sp,20
40001db0:	3204000f 	andi	a0,s0,0xf
40001db4:	00108102 	srl	s0,s0,0x4
40001db8:	26930001 	addiu	s3,s4,1
40001dbc:	0240f809 	jalr	s2
40001dc0:	00000000 	nop
40001dc4:	02341821 	addu	v1,s1,s4
40001dc8:	a0620000 	sb	v0,0(v1)
40001dcc:	1600fff6 	bnez	s0,40001da8 <i2h+0x5c>
40001dd0:	00000000 	nop
40001dd4:	3c024000 	lui	v0,0x4000
40001dd8:	244245a8 	addiu	v0,v0,17832
40001ddc:	24030000 	li	v1,0
40001de0:	00532021 	addu	a0,v0,s3
40001de4:	a0830000 	sb	v1,0(a0)
40001de8:	06800010 	bltz	s4,40001e2c <i2h+0xe0>
40001dec:	00000000 	nop
40001df0:	3c034000 	lui	v1,0x4000
40001df4:	24020000 	li	v0,0
40001df8:	00531023 	subu	v0,v0,s3
40001dfc:	246345a8 	addiu	v1,v1,17832
40001e00:	3c044000 	lui	a0,0x4000
40001e04:	02222823 	subu	a1,s1,v0
40001e08:	90a5ffff 	lbu	a1,-1(a1)
40001e0c:	00000000 	nop
40001e10:	24420001 	addiu	v0,v0,1
40001e14:	24660001 	addiu	a2,v1,1
40001e18:	a0650000 	sb	a1,0(v1)
40001e1c:	00061821 	addu	v1,zero,a2
40001e20:	1440fff7 	bnez	v0,40001e00 <i2h+0xb4>
40001e24:	00000000 	nop
40001e28:	248245a8 	addiu	v0,a0,17832
40001e2c:	8fb00020 	lw	s0,32(sp)
40001e30:	00000000 	nop
40001e34:	8fb10024 	lw	s1,36(sp)
40001e38:	00000000 	nop
40001e3c:	8fb20028 	lw	s2,40(sp)
40001e40:	00000000 	nop
40001e44:	8fb3002c 	lw	s3,44(sp)
40001e48:	00000000 	nop
40001e4c:	8fb40030 	lw	s4,48(sp)
40001e50:	00000000 	nop
40001e54:	8fbf0034 	lw	ra,52(sp)
40001e58:	00000000 	nop
40001e5c:	27bd0038 	addiu	sp,sp,56
40001e60:	03e00008 	jr	ra
40001e64:	00000000 	nop

40001e68 <l2h>:
40001e68:	27bdffc0 	addiu	sp,sp,-64
40001e6c:	afbf003c 	sw	ra,60(sp)
40001e70:	afb50038 	sw	s5,56(sp)
40001e74:	afb40034 	sw	s4,52(sp)
40001e78:	afb30030 	sw	s3,48(sp)
40001e7c:	afb2002c 	sw	s2,44(sp)
40001e80:	afb10028 	sw	s1,40(sp)
40001e84:	afb00024 	sw	s0,36(sp)
40001e88:	00058021 	addu	s0,zero,a1
40001e8c:	00048821 	addu	s1,zero,a0
40001e90:	3c034000 	lui	v1,0x4000
40001e94:	3c044000 	lui	a0,0x4000
40001e98:	3c024000 	lui	v0,0x4000
40001e9c:	10c00004 	beqz	a2,40001eb0 <l2h+0x48>
40001ea0:	00000000 	nop
40001ea4:	24941d1c 	addiu	s4,a0,7452
40001ea8:	080007ad 	j	40001eb4 <l2h+0x4c>
40001eac:	00000000 	nop
40001eb0:	24741cec 	addiu	s4,v1,7404
40001eb4:	02301825 	or	v1,s1,s0
40001eb8:	14600004 	bnez	v1,40001ecc <l2h+0x64>
40001ebc:	00000000 	nop
40001ec0:	24423f9c 	addiu	v0,v0,16284
40001ec4:	080007dc 	j	40001f70 <l2h+0x108>
40001ec8:	00000000 	nop
40001ecc:	24120000 	li	s2,0
40001ed0:	0012a821 	addu	s5,zero,s2
40001ed4:	27b30010 	addiu	s3,sp,16
40001ed8:	3224000f 	andi	a0,s1,0xf
40001edc:	00111102 	srl	v0,s1,0x4
40001ee0:	00101f00 	sll	v1,s0,0x1c
40001ee4:	26b20001 	addiu	s2,s5,1
40001ee8:	00438825 	or	s1,v0,v1
40001eec:	00108102 	srl	s0,s0,0x4
40001ef0:	0280f809 	jalr	s4
40001ef4:	00000000 	nop
40001ef8:	02752021 	addu	a0,s3,s5
40001efc:	02301825 	or	v1,s1,s0
40001f00:	a0820000 	sb	v0,0(a0)
40001f04:	1460fff2 	bnez	v1,40001ed0 <l2h+0x68>
40001f08:	00000000 	nop
40001f0c:	3c024000 	lui	v0,0x4000
40001f10:	244245b1 	addiu	v0,v0,17841
40001f14:	24030000 	li	v1,0
40001f18:	00522021 	addu	a0,v0,s2
40001f1c:	a0830000 	sb	v1,0(a0)
40001f20:	06a00013 	bltz	s5,40001f70 <l2h+0x108>
40001f24:	00000000 	nop
40001f28:	00032021 	addu	a0,zero,v1
40001f2c:	24080000 	li	t0,0
40001f30:	24650001 	addiu	a1,v1,1
40001f34:	24060001 	li	a2,1
40001f38:	3c024000 	lui	v0,0x4000
40001f3c:	00a6382b 	sltu	a3,a1,a2
40001f40:	244245b1 	addiu	v0,v0,17841
40001f44:	02723021 	addu	a2,s3,s2
40001f48:	00e83821 	addu	a3,a3,t0
40001f4c:	2652ffff 	addiu	s2,s2,-1
40001f50:	00872021 	addu	a0,a0,a3
40001f54:	90c6ffff 	lbu	a2,-1(a2)
40001f58:	00000000 	nop
40001f5c:	00431821 	addu	v1,v0,v1
40001f60:	a0660000 	sb	a2,0(v1)
40001f64:	00051821 	addu	v1,zero,a1
40001f68:	1e40fff1 	bgtz	s2,40001f30 <l2h+0xc8>
40001f6c:	00000000 	nop
40001f70:	8fb00024 	lw	s0,36(sp)
40001f74:	00000000 	nop
40001f78:	8fb10028 	lw	s1,40(sp)
40001f7c:	00000000 	nop
40001f80:	8fb2002c 	lw	s2,44(sp)
40001f84:	00000000 	nop
40001f88:	8fb30030 	lw	s3,48(sp)
40001f8c:	00000000 	nop
40001f90:	8fb40034 	lw	s4,52(sp)
40001f94:	00000000 	nop
40001f98:	8fb50038 	lw	s5,56(sp)
40001f9c:	00000000 	nop
40001fa0:	8fbf003c 	lw	ra,60(sp)
40001fa4:	00000000 	nop
40001fa8:	27bd0040 	addiu	sp,sp,64
40001fac:	03e00008 	jr	ra
40001fb0:	00000000 	nop

40001fb4 <itoa>:
40001fb4:	27bdffd8 	addiu	sp,sp,-40
40001fb8:	afb70024 	sw	s7,36(sp)
40001fbc:	afb60020 	sw	s6,32(sp)
40001fc0:	afb5001c 	sw	s5,28(sp)
40001fc4:	afb40018 	sw	s4,24(sp)
40001fc8:	afb30014 	sw	s3,20(sp)
40001fcc:	afb20010 	sw	s2,16(sp)
40001fd0:	afb1000c 	sw	s1,12(sp)
40001fd4:	afb00008 	sw	s0,8(sp)
40001fd8:	2402ffff 	li	v0,-1
40001fdc:	0044102a 	slt	v0,v0,a0
40001fe0:	14400006 	bnez	v0,40001ffc <itoa+0x48>
40001fe4:	00000000 	nop
40001fe8:	24020000 	li	v0,0
40001fec:	00442023 	subu	a0,v0,a0
40001ff0:	24020001 	li	v0,1
40001ff4:	08000806 	j	40002018 <itoa+0x64>
40001ff8:	00000000 	nop
40001ffc:	3c024000 	lui	v0,0x4000
40002000:	14800004 	bnez	a0,40002014 <itoa+0x60>
40002004:	00000000 	nop
40002008:	24423f9c 	addiu	v0,v0,16284
4000200c:	080008e8 	j	400023a0 <itoa+0x3ec>
40002010:	00000000 	nop
40002014:	24020000 	li	v0,0
40002018:	afa20004 	sw	v0,4(sp)
4000201c:	3c026666 	lui	v0,0x6666
40002020:	3c0551eb 	lui	a1,0x51eb
40002024:	34426667 	ori	v0,v0,0x6667
40002028:	00820018 	mult	a0,v0
4000202c:	00001810 	mfhi	v1
40002030:	3c061062 	lui	a2,0x1062
40002034:	34a5851f 	ori	a1,a1,0x851f
40002038:	00850018 	mult	a0,a1
4000203c:	00002810 	mfhi	a1
40002040:	3c0868db 	lui	t0,0x68db
40002044:	34c64dd3 	ori	a2,a2,0x4dd3
40002048:	00034883 	sra	t1,v1,0x2
4000204c:	00031fc2 	srl	v1,v1,0x1f
40002050:	00860018 	mult	a0,a2
40002054:	00003010 	mfhi	a2
40002058:	3c0714f8 	lui	a3,0x14f8
4000205c:	35088bad 	ori	t0,t0,0x8bad
40002060:	01236021 	addu	t4,t1,v1
40002064:	00051943 	sra	v1,a1,0x5
40002068:	000557c2 	srl	t2,a1,0x1f
4000206c:	00880018 	mult	a0,t0
40002070:	00004010 	mfhi	t0
40002074:	01820018 	mult	t4,v0
40002078:	00002810 	mfhi	a1
4000207c:	3c09431b 	lui	t1,0x431b
40002080:	34e7b589 	ori	a3,a3,0xb589
40002084:	006a5821 	addu	t3,v1,t2
40002088:	00061983 	sra	v1,a2,0x6
4000208c:	000637c2 	srl	a2,a2,0x1f
40002090:	00870018 	mult	a0,a3
40002094:	00005010 	mfhi	t2
40002098:	01620018 	mult	t3,v0
4000209c:	00003810 	mfhi	a3
400020a0:	3c0f6b5f 	lui	t7,0x6b5f
400020a4:	352dde83 	ori	t5,t1,0xde83
400020a8:	00664821 	addu	t1,v1,a2
400020ac:	2406000a 	li	a2,10
400020b0:	0008c303 	sra	t8,t0,0xc
400020b4:	000847c2 	srl	t0,t0,0x1f
400020b8:	0005c882 	srl	t9,a1,0x2
400020bc:	000587c2 	srl	s0,a1,0x1f
400020c0:	008d0018 	mult	a0,t5
400020c4:	00007010 	mfhi	t6
400020c8:	01220018 	mult	t1,v0
400020cc:	00006810 	mfhi	t5
400020d0:	3c054000 	lui	a1,0x4000
400020d4:	afa50000 	sw	a1,0(sp)
400020d8:	3c1155e6 	lui	s1,0x55e6
400020dc:	35efca6b 	ori	t7,t7,0xca6b
400020e0:	03084021 	addu	t0,t8,t0
400020e4:	03308021 	addu	s0,t9,s0
400020e8:	01860018 	mult	t4,a2
400020ec:	0000c812 	mflo	t9
400020f0:	000a9343 	sra	s2,t2,0xd
400020f4:	000a57c2 	srl	t2,t2,0x1f
400020f8:	00079882 	srl	s3,a3,0x2
400020fc:	00071fc2 	srl	v1,a3,0x1f
40002100:	008f0018 	mult	a0,t7
40002104:	0000c010 	mfhi	t8
40002108:	01020018 	mult	t0,v0
4000210c:	00007810 	mfhi	t7
40002110:	3c1444b8 	lui	s4,0x44b8
40002114:	36353b89 	ori	s5,s1,0x3b89
40002118:	024a5021 	addu	t2,s2,t2
4000211c:	02639821 	addu	s3,s3,v1
40002120:	02060018 	mult	s0,a2
40002124:	00008812 	mflo	s1
40002128:	00998023 	subu	s0,a0,t9
4000212c:	24a745c2 	addiu	a3,a1,17858
40002130:	24120000 	li	s2,0
40002134:	000eb483 	sra	s6,t6,0x12
40002138:	000ebfc2 	srl	s7,t6,0x1f
4000213c:	000d1882 	srl	v1,t5,0x2
40002140:	000d2fc2 	srl	a1,t5,0x1f
40002144:	00950018 	mult	a0,s5
40002148:	0000c810 	mfhi	t9
4000214c:	01420018 	mult	t2,v0
40002150:	00007010 	mfhi	t6
40002154:	36952fa1 	ori	s5,s4,0x2fa1
40002158:	02d76821 	addu	t5,s6,s7
4000215c:	0065a021 	addu	s4,v1,a1
40002160:	02660018 	mult	s3,a2
40002164:	00009812 	mflo	s3
40002168:	01918823 	subu	s1,t4,s1
4000216c:	0018b583 	sra	s6,t8,0x16
40002170:	0018bfc2 	srl	s7,t8,0x1f
40002174:	000fc082 	srl	t8,t7,0x2
40002178:	000f1fc2 	srl	v1,t7,0x1f
4000217c:	26100030 	addiu	s0,s0,48
40002180:	a0f2000a 	sb	s2,10(a3)
40002184:	00950018 	mult	a0,s5
40002188:	00007810 	mfhi	t7
4000218c:	01a20018 	mult	t5,v0
40002190:	00006010 	mfhi	t4
40002194:	02d72021 	addu	a0,s6,s7
40002198:	0303a821 	addu	s5,t8,v1
4000219c:	02860018 	mult	s4,a2
400021a0:	0000a012 	mflo	s4
400021a4:	0173c023 	subu	t8,t3,s3
400021a8:	00195e43 	sra	t3,t9,0x19
400021ac:	0019cfc2 	srl	t9,t9,0x1f
400021b0:	000e1882 	srl	v1,t6,0x2
400021b4:	000e2fc2 	srl	a1,t6,0x1f
400021b8:	26320030 	addiu	s2,s1,48
400021bc:	a0f00009 	sb	s0,9(a3)
400021c0:	00820018 	mult	a0,v0
400021c4:	00007010 	mfhi	t6
400021c8:	01795821 	addu	t3,t3,t9
400021cc:	00658821 	addu	s1,v1,a1
400021d0:	02a60018 	mult	s5,a2
400021d4:	00008012 	mflo	s0
400021d8:	0134c823 	subu	t9,t1,s4
400021dc:	000f4f03 	sra	t1,t7,0x1c
400021e0:	000f9fc2 	srl	s3,t7,0x1f
400021e4:	000c1882 	srl	v1,t4,0x2
400021e8:	000c2fc2 	srl	a1,t4,0x1f
400021ec:	270f0030 	addiu	t7,t8,48
400021f0:	a0f20008 	sb	s2,8(a3)
400021f4:	01620018 	mult	t3,v0
400021f8:	00006010 	mfhi	t4
400021fc:	01334821 	addu	t1,t1,s3
40002200:	00659021 	addu	s2,v1,a1
40002204:	02260018 	mult	s1,a2
40002208:	0000c012 	mflo	t8
4000220c:	01104023 	subu	t0,t0,s0
40002210:	000e1882 	srl	v1,t6,0x2
40002214:	000e2fc2 	srl	a1,t6,0x1f
40002218:	272e0030 	addiu	t6,t9,48
4000221c:	a0ef0007 	sb	t7,7(a3)
40002220:	01220018 	mult	t1,v0
40002224:	00001010 	mfhi	v0
40002228:	00658021 	addu	s0,v1,a1
4000222c:	02460018 	mult	s2,a2
40002230:	0000c812 	mflo	t9
40002234:	01585023 	subu	t2,t2,t8
40002238:	000c1882 	srl	v1,t4,0x2
4000223c:	000c2fc2 	srl	a1,t4,0x1f
40002240:	250f0030 	addiu	t7,t0,48
40002244:	a0ee0006 	sb	t6,6(a3)
40002248:	00657021 	addu	t6,v1,a1
4000224c:	02060018 	mult	s0,a2
40002250:	00006012 	mflo	t4
40002254:	01b94023 	subu	t0,t5,t9
40002258:	00021883 	sra	v1,v0,0x2
4000225c:	00022fc2 	srl	a1,v0,0x1f
40002260:	25420030 	addiu	v0,t2,48
40002264:	a0ef0005 	sb	t7,5(a3)
40002268:	00655021 	addu	t2,v1,a1
4000226c:	01c60018 	mult	t6,a2
40002270:	00002812 	mflo	a1
40002274:	008c2023 	subu	a0,a0,t4
40002278:	25030030 	addiu	v1,t0,48
4000227c:	a0e20004 	sb	v0,4(a3)
40002280:	01460018 	mult	t2,a2
40002284:	00003012 	mflo	a2
40002288:	01652823 	subu	a1,t3,a1
4000228c:	24820030 	addiu	v0,a0,48
40002290:	a0e30003 	sb	v1,3(a3)
40002294:	01262023 	subu	a0,t1,a2
40002298:	24a30030 	addiu	v1,a1,48
4000229c:	a0e20002 	sb	v0,2(a3)
400022a0:	24020001 	li	v0,1
400022a4:	24840030 	addiu	a0,a0,48
400022a8:	a0e30001 	sb	v1,1(a3)
400022ac:	8fa30000 	lw	v1,0(sp)
400022b0:	00000000 	nop
400022b4:	a06445c2 	sb	a0,17858(v1)
400022b8:	080008ba 	j	400022e8 <itoa+0x334>
400022bc:	00000000 	nop
400022c0:	24030009 	li	v1,9
400022c4:	0062182a 	slt	v1,v1,v0
400022c8:	1460000c 	bnez	v1,400022fc <itoa+0x348>
400022cc:	00000000 	nop
400022d0:	3c034000 	lui	v1,0x4000
400022d4:	246345c2 	addiu	v1,v1,17858
400022d8:	00621821 	addu	v1,v1,v0
400022dc:	90640000 	lbu	a0,0(v1)
400022e0:	00000000 	nop
400022e4:	24420001 	addiu	v0,v0,1
400022e8:	308300ff 	andi	v1,a0,0xff
400022ec:	24040030 	li	a0,48
400022f0:	1064fff3 	beq	v1,a0,400022c0 <itoa+0x30c>
400022f4:	00000000 	nop
400022f8:	2442ffff 	addiu	v0,v0,-1
400022fc:	8fa30004 	lw	v1,4(sp)
40002300:	00000000 	nop
40002304:	10600004 	beqz	v1,40002318 <itoa+0x364>
40002308:	00000000 	nop
4000230c:	2403002d 	li	v1,45
40002310:	3c044000 	lui	a0,0x4000
40002314:	a08345cd 	sb	v1,17869(a0)
40002318:	2403000a 	li	v1,10
4000231c:	00622023 	subu	a0,v1,v0
40002320:	28830001 	slti	v1,a0,1
40002324:	10600004 	beqz	v1,40002338 <itoa+0x384>
40002328:	00000000 	nop
4000232c:	24040000 	li	a0,0
40002330:	080008e0 	j	40002380 <itoa+0x3cc>
40002334:	00000000 	nop
40002338:	3c034000 	lui	v1,0x4000
4000233c:	2405000a 	li	a1,10
40002340:	246345cd 	addiu	v1,v1,17869
40002344:	00a21023 	subu	v0,a1,v0
40002348:	8fa50004 	lw	a1,4(sp)
4000234c:	00000000 	nop
40002350:	00652821 	addu	a1,v1,a1
40002354:	3c034000 	lui	v1,0x4000
40002358:	246345c2 	addiu	v1,v1,17858
4000235c:	00621823 	subu	v1,v1,v0
40002360:	9063000a 	lbu	v1,10(v1)
40002364:	00000000 	nop
40002368:	2442ffff 	addiu	v0,v0,-1
4000236c:	24a60001 	addiu	a2,a1,1
40002370:	a0a30000 	sb	v1,0(a1)
40002374:	00062821 	addu	a1,zero,a2
40002378:	1440fff6 	bnez	v0,40002354 <itoa+0x3a0>
4000237c:	00000000 	nop
40002380:	3c024000 	lui	v0,0x4000
40002384:	244245cd 	addiu	v0,v0,17869
40002388:	8fa30004 	lw	v1,4(sp)
4000238c:	00000000 	nop
40002390:	00832021 	addu	a0,a0,v1
40002394:	24030000 	li	v1,0
40002398:	00442021 	addu	a0,v0,a0
4000239c:	a0830000 	sb	v1,0(a0)
400023a0:	8fb00008 	lw	s0,8(sp)
400023a4:	00000000 	nop
400023a8:	8fb1000c 	lw	s1,12(sp)
400023ac:	00000000 	nop
400023b0:	8fb20010 	lw	s2,16(sp)
400023b4:	00000000 	nop
400023b8:	8fb30014 	lw	s3,20(sp)
400023bc:	00000000 	nop
400023c0:	8fb40018 	lw	s4,24(sp)
400023c4:	00000000 	nop
400023c8:	8fb5001c 	lw	s5,28(sp)
400023cc:	00000000 	nop
400023d0:	8fb60020 	lw	s6,32(sp)
400023d4:	00000000 	nop
400023d8:	8fb70024 	lw	s7,36(sp)
400023dc:	00000000 	nop
400023e0:	27bd0028 	addiu	sp,sp,40
400023e4:	03e00008 	jr	ra
400023e8:	00000000 	nop

400023ec <utoa>:
400023ec:	27bdffe8 	addiu	sp,sp,-24
400023f0:	afb50014 	sw	s5,20(sp)
400023f4:	afb40010 	sw	s4,16(sp)
400023f8:	afb3000c 	sw	s3,12(sp)
400023fc:	afb20008 	sw	s2,8(sp)
40002400:	afb10004 	sw	s1,4(sp)
40002404:	afb00000 	sw	s0,0(sp)
40002408:	3c024000 	lui	v0,0x4000
4000240c:	14800019 	bnez	a0,40002474 <utoa+0x88>
40002410:	00000000 	nop
40002414:	24423f9c 	addiu	v0,v0,16284
40002418:	080009b9 	j	400026e4 <utoa+0x2f8>
4000241c:	00000000 	nop
40002420:	24020009 	li	v0,9
40002424:	0043102a 	slt	v0,v0,v1
40002428:	1440000a 	bnez	v0,40002454 <utoa+0x68>
4000242c:	00000000 	nop
40002430:	3c024000 	lui	v0,0x4000
40002434:	244245d8 	addiu	v0,v0,17880
40002438:	00431021 	addu	v0,v0,v1
4000243c:	90440000 	lbu	a0,0(v0)
40002440:	00000000 	nop
40002444:	24630001 	addiu	v1,v1,1
40002448:	0800099f 	j	4000267c <utoa+0x290>
4000244c:	00000000 	nop
40002450:	2463ffff 	addiu	v1,v1,-1
40002454:	2402000a 	li	v0,10
40002458:	00432023 	subu	a0,v0,v1
4000245c:	28820001 	slti	v0,a0,1
40002460:	1040008c 	beqz	v0,40002694 <utoa+0x2a8>
40002464:	00000000 	nop
40002468:	24040000 	li	a0,0
4000246c:	080009b4 	j	400026d0 <utoa+0x2e4>
40002470:	00000000 	nop
40002474:	3c03cccc 	lui	v1,0xcccc
40002478:	3c0251eb 	lui	v0,0x51eb
4000247c:	3463cccd 	ori	v1,v1,0xcccd
40002480:	3c051062 	lui	a1,0x1062
40002484:	3442851f 	ori	v0,v0,0x851f
40002488:	00830019 	multu	a0,v1
4000248c:	00003010 	mfhi	a2
40002490:	3c07d1b7 	lui	a3,0xd1b7
40002494:	34a54dd3 	ori	a1,a1,0x4dd3
40002498:	00820019 	multu	a0,v0
4000249c:	00001010 	mfhi	v0
400024a0:	000658c2 	srl	t3,a2,0x3
400024a4:	3c060a7c 	lui	a2,0xa7c
400024a8:	34e71759 	ori	a3,a3,0x1759
400024ac:	00850019 	multu	a0,a1
400024b0:	00004010 	mfhi	t0
400024b4:	00025142 	srl	t2,v0,0x5
400024b8:	01630019 	multu	t3,v1
400024bc:	00006010 	mfhi	t4
400024c0:	2405000a 	li	a1,10
400024c4:	3c024000 	lui	v0,0x4000
400024c8:	3c09431b 	lui	t1,0x431b
400024cc:	00870019 	multu	a0,a3
400024d0:	00003810 	mfhi	a3
400024d4:	00084182 	srl	t0,t0,0x6
400024d8:	01430019 	multu	t2,v1
400024dc:	00007010 	mfhi	t6
400024e0:	000c68c2 	srl	t5,t4,0x3
400024e4:	01650018 	mult	t3,a1
400024e8:	00006012 	mflo	t4
400024ec:	00047942 	srl	t7,a0,0x5
400024f0:	34c65ac5 	ori	a2,a2,0x5ac5
400024f4:	3c196b5f 	lui	t9,0x6b5f
400024f8:	3538de83 	ori	t8,t1,0xde83
400024fc:	01e60019 	multu	t7,a2
40002500:	00004810 	mfhi	t1
40002504:	00073b42 	srl	a3,a3,0xd
40002508:	01030019 	multu	t0,v1
4000250c:	00007810 	mfhi	t7
40002510:	000e70c2 	srl	t6,t6,0x3
40002514:	01a50018 	mult	t5,a1
40002518:	00006812 	mflo	t5
4000251c:	008c6023 	subu	t4,a0,t4
40002520:	244645d8 	addiu	a2,v0,17880
40002524:	24130000 	li	s3,0
40002528:	3c1255e6 	lui	s2,0x55e6
4000252c:	3731ca6b 	ori	s1,t9,0xca6b
40002530:	00980019 	multu	a0,t8
40002534:	00008010 	mfhi	s0
40002538:	000949c2 	srl	t1,t1,0x7
4000253c:	00e30019 	multu	a3,v1
40002540:	0000c810 	mfhi	t9
40002544:	000fc0c2 	srl	t8,t7,0x3
40002548:	01c50018 	mult	t6,a1
4000254c:	00007812 	mflo	t7
40002550:	016d7023 	subu	t6,t3,t5
40002554:	358d0030 	ori	t5,t4,0x30
40002558:	a0d3000a 	sb	s3,10(a2)
4000255c:	3c0c0004 	lui	t4,0x4
40002560:	36553b89 	ori	s5,s2,0x3b89
40002564:	00910019 	multu	a0,s1
40002568:	0000a010 	mfhi	s4
4000256c:	00105c82 	srl	t3,s0,0x12
40002570:	01230019 	multu	t1,v1
40002574:	00009810 	mfhi	s3
40002578:	001990c2 	srl	s2,t9,0x3
4000257c:	03050018 	mult	t8,a1
40002580:	00008812 	mflo	s1
40002584:	014f8023 	subu	s0,t2,t7
40002588:	35d90030 	ori	t9,t6,0x30
4000258c:	a0cd0009 	sb	t5,9(a2)
40002590:	00950019 	multu	a0,s5
40002594:	0000c010 	mfhi	t8
40002598:	00145582 	srl	t2,s4,0x16
4000259c:	01630019 	multu	t3,v1
400025a0:	00007810 	mfhi	t7
400025a4:	001370c2 	srl	t6,s3,0x3
400025a8:	02450018 	mult	s2,a1
400025ac:	00006812 	mflo	t5
400025b0:	01114023 	subu	t0,t0,s1
400025b4:	00042242 	srl	a0,a0,0x9
400025b8:	35914b83 	ori	s1,t4,0x4b83
400025bc:	360c0030 	ori	t4,s0,0x30
400025c0:	a0d90008 	sb	t9,8(a2)
400025c4:	00910019 	multu	a0,s1
400025c8:	0000c810 	mfhi	t9
400025cc:	00182642 	srl	a0,t8,0x19
400025d0:	01430019 	multu	t2,v1
400025d4:	0000c010 	mfhi	t8
400025d8:	000f78c2 	srl	t7,t7,0x3
400025dc:	01c50018 	mult	t6,a1
400025e0:	00007012 	mflo	t6
400025e4:	00ed6823 	subu	t5,a3,t5
400025e8:	35080030 	ori	t0,t0,0x30
400025ec:	a0cc0007 	sb	t4,7(a2)
400025f0:	001939c2 	srl	a3,t9,0x7
400025f4:	00830019 	multu	a0,v1
400025f8:	0000c810 	mfhi	t9
400025fc:	0018c0c2 	srl	t8,t8,0x3
40002600:	01e50018 	mult	t7,a1
40002604:	00007812 	mflo	t7
40002608:	012e6023 	subu	t4,t1,t6
4000260c:	35a90030 	ori	t1,t5,0x30
40002610:	a0c80006 	sb	t0,6(a2)
40002614:	00e30019 	multu	a3,v1
40002618:	00008010 	mfhi	s0
4000261c:	001970c2 	srl	t6,t9,0x3
40002620:	03050018 	mult	t8,a1
40002624:	00006812 	mflo	t5
40002628:	016f4023 	subu	t0,t3,t7
4000262c:	35830030 	ori	v1,t4,0x30
40002630:	a0c90005 	sb	t1,5(a2)
40002634:	001060c2 	srl	t4,s0,0x3
40002638:	01c50018 	mult	t6,a1
4000263c:	00005812 	mflo	t3
40002640:	014d4823 	subu	t1,t2,t5
40002644:	35080030 	ori	t0,t0,0x30
40002648:	a0c30004 	sb	v1,4(a2)
4000264c:	01850018 	mult	t4,a1
40002650:	00005012 	mflo	t2
40002654:	008b2823 	subu	a1,a0,t3
40002658:	35230030 	ori	v1,t1,0x30
4000265c:	a0c80003 	sb	t0,3(a2)
40002660:	00ea2023 	subu	a0,a3,t2
40002664:	34a50030 	ori	a1,a1,0x30
40002668:	a0c30002 	sb	v1,2(a2)
4000266c:	24030001 	li	v1,1
40002670:	34840030 	ori	a0,a0,0x30
40002674:	a0c50001 	sb	a1,1(a2)
40002678:	a04445d8 	sb	a0,17880(v0)
4000267c:	308200ff 	andi	v0,a0,0xff
40002680:	24040030 	li	a0,48
40002684:	1044ff66 	beq	v0,a0,40002420 <utoa+0x34>
40002688:	00000000 	nop
4000268c:	08000914 	j	40002450 <utoa+0x64>
40002690:	00000000 	nop
40002694:	3c054000 	lui	a1,0x4000
40002698:	2402000a 	li	v0,10
4000269c:	00431023 	subu	v0,v0,v1
400026a0:	24a345e3 	addiu	v1,a1,17891
400026a4:	3c054000 	lui	a1,0x4000
400026a8:	24a545d8 	addiu	a1,a1,17880
400026ac:	00a22823 	subu	a1,a1,v0
400026b0:	90a5000a 	lbu	a1,10(a1)
400026b4:	00000000 	nop
400026b8:	2442ffff 	addiu	v0,v0,-1
400026bc:	24660001 	addiu	a2,v1,1
400026c0:	a0650000 	sb	a1,0(v1)
400026c4:	00061821 	addu	v1,zero,a2
400026c8:	1440fff6 	bnez	v0,400026a4 <utoa+0x2b8>
400026cc:	00000000 	nop
400026d0:	3c024000 	lui	v0,0x4000
400026d4:	244245e3 	addiu	v0,v0,17891
400026d8:	24030000 	li	v1,0
400026dc:	00442021 	addu	a0,v0,a0
400026e0:	a0830000 	sb	v1,0(a0)
400026e4:	8fb00000 	lw	s0,0(sp)
400026e8:	00000000 	nop
400026ec:	8fb10004 	lw	s1,4(sp)
400026f0:	00000000 	nop
400026f4:	8fb20008 	lw	s2,8(sp)
400026f8:	00000000 	nop
400026fc:	8fb3000c 	lw	s3,12(sp)
40002700:	00000000 	nop
40002704:	8fb40010 	lw	s4,16(sp)
40002708:	00000000 	nop
4000270c:	8fb50014 	lw	s5,20(sp)
40002710:	00000000 	nop
40002714:	27bd0018 	addiu	sp,sp,24
40002718:	03e00008 	jr	ra
4000271c:	00000000 	nop

40002720 <puts>:
40002720:	24020000 	li	v0,0
40002724:	90830000 	lbu	v1,0(a0)
40002728:	00000000 	nop
4000272c:	1060002e 	beqz	v1,400027e8 <puts+0xc8>
40002730:	00000000 	nop
40002734:	2405000d 	li	a1,13
40002738:	14650005 	bne	v1,a1,40002750 <puts+0x30>
4000273c:	00000000 	nop
40002740:	2403000d 	li	v1,13
40002744:	24020001 	li	v0,1
40002748:	080009e9 	j	400027a4 <puts+0x84>
4000274c:	00000000 	nop
40002750:	2405000a 	li	a1,10
40002754:	14650013 	bne	v1,a1,400027a4 <puts+0x84>
40002758:	00000000 	nop
4000275c:	14400011 	bnez	v0,400027a4 <puts+0x84>
40002760:	00000000 	nop
40002764:	3c03ff20 	lui	v1,0xff20
40002768:	3c020001 	lui	v0,0x1
4000276c:	34631004 	ori	v1,v1,0x1004
40002770:	34420000 	ori	v0,v0,0x0
40002774:	8c630000 	lw	v1,0(v1)
40002778:	00000000 	nop
4000277c:	0062102b 	sltu	v0,v1,v0
40002780:	1440fff8 	bnez	v0,40002764 <puts+0x44>
40002784:	00000000 	nop
40002788:	3c03ff20 	lui	v1,0xff20
4000278c:	2402000d 	li	v0,13
40002790:	34631000 	ori	v1,v1,0x1000
40002794:	ac620000 	sw	v0,0(v1)
40002798:	90830000 	lbu	v1,0(a0)
4000279c:	00000000 	nop
400027a0:	24020000 	li	v0,0
400027a4:	3c06ff20 	lui	a2,0xff20
400027a8:	3c050001 	lui	a1,0x1
400027ac:	34c61004 	ori	a2,a2,0x1004
400027b0:	34a50000 	ori	a1,a1,0x0
400027b4:	8cc60000 	lw	a2,0(a2)
400027b8:	00000000 	nop
400027bc:	00c5282b 	sltu	a1,a2,a1
400027c0:	14a0fff8 	bnez	a1,400027a4 <puts+0x84>
400027c4:	00000000 	nop
400027c8:	00032e00 	sll	a1,v1,0x18
400027cc:	3c03ff20 	lui	v1,0xff20
400027d0:	24840001 	addiu	a0,a0,1
400027d4:	00052e03 	sra	a1,a1,0x18
400027d8:	34631000 	ori	v1,v1,0x1000
400027dc:	ac650000 	sw	a1,0(v1)
400027e0:	080009c9 	j	40002724 <puts+0x4>
400027e4:	00000000 	nop
400027e8:	3c03ff20 	lui	v1,0xff20
400027ec:	3c020001 	lui	v0,0x1
400027f0:	34631004 	ori	v1,v1,0x1004
400027f4:	34420000 	ori	v0,v0,0x0
400027f8:	8c630000 	lw	v1,0(v1)
400027fc:	00000000 	nop
40002800:	0062102b 	sltu	v0,v1,v0
40002804:	1440fff8 	bnez	v0,400027e8 <puts+0xc8>
40002808:	00000000 	nop
4000280c:	3c03ff20 	lui	v1,0xff20
40002810:	2402000a 	li	v0,10
40002814:	34631000 	ori	v1,v1,0x1000
40002818:	ac620000 	sw	v0,0(v1)
4000281c:	24020000 	li	v0,0
40002820:	03e00008 	jr	ra
40002824:	00000000 	nop

40002828 <printf>:
40002828:	27bdffb8 	addiu	sp,sp,-72
4000282c:	afbf0044 	sw	ra,68(sp)
40002830:	afb30040 	sw	s3,64(sp)
40002834:	afb2003c 	sw	s2,60(sp)
40002838:	afb10038 	sw	s1,56(sp)
4000283c:	afb00034 	sw	s0,52(sp)
40002840:	00048021 	addu	s0,zero,a0
40002844:	24020000 	li	v0,0
40002848:	27a3004c 	addiu	v1,sp,76
4000284c:	afa5004c 	sw	a1,76(sp)
40002850:	afa60050 	sw	a2,80(sp)
40002854:	afa70054 	sw	a3,84(sp)
40002858:	afa30010 	sw	v1,16(sp)
4000285c:	00028821 	addu	s1,zero,v0
40002860:	02022021 	addu	a0,s0,v0
40002864:	90830000 	lbu	v1,0(a0)
40002868:	00000000 	nop
4000286c:	10600374 	beqz	v1,40003640 <printf+0xe18>
40002870:	00000000 	nop
40002874:	2405000d 	li	a1,13
40002878:	14650005 	bne	v1,a1,40002890 <printf+0x68>
4000287c:	00000000 	nop
40002880:	2403000d 	li	v1,13
40002884:	24110001 	li	s1,1
40002888:	08000d7f 	j	400035fc <printf+0xdd4>
4000288c:	00000000 	nop
40002890:	24050025 	li	a1,37
40002894:	14650344 	bne	v1,a1,400035a8 <printf+0xd80>
40002898:	00000000 	nop
4000289c:	02021821 	addu	v1,s0,v0
400028a0:	90640001 	lbu	a0,1(v1)
400028a4:	00000000 	nop
400028a8:	2483ffd0 	addiu	v1,a0,-48
400028ac:	306300ff 	andi	v1,v1,0xff
400028b0:	24520001 	addiu	s2,v0,1
400028b4:	2c65000a 	sltiu	a1,v1,10
400028b8:	00021821 	addu	v1,zero,v0
400028bc:	00121021 	addu	v0,zero,s2
400028c0:	14a0fff6 	bnez	a1,4000289c <printf+0x74>
400028c4:	00000000 	nop
400028c8:	308200ff 	andi	v0,a0,0xff
400028cc:	2404006c 	li	a0,108
400028d0:	00441026 	xor	v0,v0,a0
400028d4:	14400002 	bnez	v0,400028e0 <printf+0xb8>
400028d8:	00000000 	nop
400028dc:	24720002 	addiu	s2,v1,2
400028e0:	02121021 	addu	v0,s0,s2
400028e4:	80430000 	lb	v1,0(v0)
400028e8:	00000000 	nop
400028ec:	24040057 	li	a0,87
400028f0:	0083202a 	slt	a0,a0,v1
400028f4:	14800011 	bnez	a0,4000293c <printf+0x114>
400028f8:	00000000 	nop
400028fc:	24040025 	li	a0,37
40002900:	1464030b 	bne	v1,a0,40003530 <printf+0xd08>
40002904:	00000000 	nop
40002908:	3c03ff20 	lui	v1,0xff20
4000290c:	3c020001 	lui	v0,0x1
40002910:	34631004 	ori	v1,v1,0x1004
40002914:	34420000 	ori	v0,v0,0x0
40002918:	8c630000 	lw	v1,0(v1)
4000291c:	00000000 	nop
40002920:	0062102b 	sltu	v0,v1,v0
40002924:	1440fff8 	bnez	v0,40002908 <printf+0xe0>
40002928:	00000000 	nop
4000292c:	3c03ff20 	lui	v1,0xff20
40002930:	24020025 	li	v0,37
40002934:	08000d65 	j	40003594 <printf+0xd6c>
40002938:	00000000 	nop
4000293c:	24040062 	li	a0,98
40002940:	0083202a 	slt	a0,a0,v1
40002944:	14800010 	bnez	a0,40002988 <printf+0x160>
40002948:	00000000 	nop
4000294c:	24040058 	li	a0,88
40002950:	146402f7 	bne	v1,a0,40003530 <printf+0xd08>
40002954:	00000000 	nop
40002958:	8fa30010 	lw	v1,16(sp)
4000295c:	00000000 	nop
40002960:	24640004 	addiu	a0,v1,4
40002964:	3c024000 	lui	v0,0x4000
40002968:	afa40010 	sw	a0,16(sp)
4000296c:	8c640000 	lw	a0,0(v1)
40002970:	00000000 	nop
40002974:	148000e4 	bnez	a0,40002d08 <printf+0x4e0>
40002978:	00000000 	nop
4000297c:	24443f9c 	addiu	a0,v0,16284
40002980:	08000b6a 	j	40002da8 <printf+0x580>
40002984:	00000000 	nop
40002988:	24040072 	li	a0,114
4000298c:	0083202a 	slt	a0,a0,v1
40002990:	1480000e 	bnez	a0,400029cc <printf+0x1a4>
40002994:	00000000 	nop
40002998:	2463ff9d 	addiu	v1,v1,-99
4000299c:	24040009 	li	a0,9
400029a0:	0083202b 	sltu	a0,a0,v1
400029a4:	148002e2 	bnez	a0,40003530 <printf+0xd08>
400029a8:	00000000 	nop
400029ac:	3c044000 	lui	a0,0x4000
400029b0:	00031880 	sll	v1,v1,0x2
400029b4:	24843f2c 	addiu	a0,a0,16172
400029b8:	00641821 	addu	v1,v1,a0
400029bc:	8c630000 	lw	v1,0(v1)
400029c0:	00000000 	nop
400029c4:	00600008 	jr	v1
400029c8:	00000000 	nop
400029cc:	24040073 	li	a0,115
400029d0:	10640057 	beq	v1,a0,40002b30 <printf+0x308>
400029d4:	00000000 	nop
400029d8:	24040075 	li	a0,117
400029dc:	10640032 	beq	v1,a0,40002aa8 <printf+0x280>
400029e0:	00000000 	nop
400029e4:	24040078 	li	a0,120
400029e8:	146402d1 	bne	v1,a0,40003530 <printf+0xd08>
400029ec:	00000000 	nop
400029f0:	8fa30010 	lw	v1,16(sp)
400029f4:	00000000 	nop
400029f8:	24640004 	addiu	a0,v1,4
400029fc:	3c024000 	lui	v0,0x4000
40002a00:	afa40010 	sw	a0,16(sp)
40002a04:	8c640000 	lw	a0,0(v1)
40002a08:	00000000 	nop
40002a0c:	1480007c 	bnez	a0,40002c00 <printf+0x3d8>
40002a10:	00000000 	nop
40002a14:	24443f9c 	addiu	a0,v0,16284
40002a18:	08000b28 	j	40002ca0 <printf+0x478>
40002a1c:	00000000 	nop
40002a20:	8fa20010 	lw	v0,16(sp)
40002a24:	00000000 	nop
40002a28:	24430004 	addiu	v1,v0,4
40002a2c:	afa30010 	sw	v1,16(sp)
40002a30:	8c440000 	lw	a0,0(v0)
40002a34:	00000000 	nop
40002a38:	0c0007ed 	jal	40001fb4 <itoa>
40002a3c:	00000000 	nop
40002a40:	90430000 	lbu	v1,0(v0)
40002a44:	00000000 	nop
40002a48:	106002d4 	beqz	v1,4000359c <printf+0xd74>
40002a4c:	00000000 	nop
40002a50:	24420001 	addiu	v0,v0,1
40002a54:	3c05ff20 	lui	a1,0xff20
40002a58:	3c040001 	lui	a0,0x1
40002a5c:	34a51004 	ori	a1,a1,0x1004
40002a60:	34840000 	ori	a0,a0,0x0
40002a64:	8ca50000 	lw	a1,0(a1)
40002a68:	00000000 	nop
40002a6c:	00a4202b 	sltu	a0,a1,a0
40002a70:	1480fff8 	bnez	a0,40002a54 <printf+0x22c>
40002a74:	00000000 	nop
40002a78:	00031e00 	sll	v1,v1,0x18
40002a7c:	3c04ff20 	lui	a0,0xff20
40002a80:	00031e03 	sra	v1,v1,0x18
40002a84:	34841000 	ori	a0,a0,0x1000
40002a88:	ac830000 	sw	v1,0(a0)
40002a8c:	90430000 	lbu	v1,0(v0)
40002a90:	00000000 	nop
40002a94:	24420001 	addiu	v0,v0,1
40002a98:	1460ffee 	bnez	v1,40002a54 <printf+0x22c>
40002a9c:	00000000 	nop
40002aa0:	08000d67 	j	4000359c <printf+0xd74>
40002aa4:	00000000 	nop
40002aa8:	8fa20010 	lw	v0,16(sp)
40002aac:	00000000 	nop
40002ab0:	24430004 	addiu	v1,v0,4
40002ab4:	afa30010 	sw	v1,16(sp)
40002ab8:	8c440000 	lw	a0,0(v0)
40002abc:	00000000 	nop
40002ac0:	0c0008fb 	jal	400023ec <utoa>
40002ac4:	00000000 	nop
40002ac8:	90430000 	lbu	v1,0(v0)
40002acc:	00000000 	nop
40002ad0:	106002b2 	beqz	v1,4000359c <printf+0xd74>
40002ad4:	00000000 	nop
40002ad8:	24420001 	addiu	v0,v0,1
40002adc:	3c05ff20 	lui	a1,0xff20
40002ae0:	3c040001 	lui	a0,0x1
40002ae4:	34a51004 	ori	a1,a1,0x1004
40002ae8:	34840000 	ori	a0,a0,0x0
40002aec:	8ca50000 	lw	a1,0(a1)
40002af0:	00000000 	nop
40002af4:	00a4202b 	sltu	a0,a1,a0
40002af8:	1480fff8 	bnez	a0,40002adc <printf+0x2b4>
40002afc:	00000000 	nop
40002b00:	00031e00 	sll	v1,v1,0x18
40002b04:	3c04ff20 	lui	a0,0xff20
40002b08:	00031e03 	sra	v1,v1,0x18
40002b0c:	34841000 	ori	a0,a0,0x1000
40002b10:	ac830000 	sw	v1,0(a0)
40002b14:	90430000 	lbu	v1,0(v0)
40002b18:	00000000 	nop
40002b1c:	24420001 	addiu	v0,v0,1
40002b20:	1460ffee 	bnez	v1,40002adc <printf+0x2b4>
40002b24:	00000000 	nop
40002b28:	08000d67 	j	4000359c <printf+0xd74>
40002b2c:	00000000 	nop
40002b30:	8fa20010 	lw	v0,16(sp)
40002b34:	00000000 	nop
40002b38:	24430004 	addiu	v1,v0,4
40002b3c:	afa30010 	sw	v1,16(sp)
40002b40:	8c420000 	lw	v0,0(v0)
40002b44:	00000000 	nop
40002b48:	90430000 	lbu	v1,0(v0)
40002b4c:	00000000 	nop
40002b50:	10600292 	beqz	v1,4000359c <printf+0xd74>
40002b54:	00000000 	nop
40002b58:	24420001 	addiu	v0,v0,1
40002b5c:	3c05ff20 	lui	a1,0xff20
40002b60:	3c040001 	lui	a0,0x1
40002b64:	34a51004 	ori	a1,a1,0x1004
40002b68:	34840000 	ori	a0,a0,0x0
40002b6c:	8ca50000 	lw	a1,0(a1)
40002b70:	00000000 	nop
40002b74:	00a4202b 	sltu	a0,a1,a0
40002b78:	1480fff8 	bnez	a0,40002b5c <printf+0x334>
40002b7c:	00000000 	nop
40002b80:	00031e00 	sll	v1,v1,0x18
40002b84:	3c04ff20 	lui	a0,0xff20
40002b88:	00031e03 	sra	v1,v1,0x18
40002b8c:	34841000 	ori	a0,a0,0x1000
40002b90:	ac830000 	sw	v1,0(a0)
40002b94:	90430000 	lbu	v1,0(v0)
40002b98:	00000000 	nop
40002b9c:	24420001 	addiu	v0,v0,1
40002ba0:	1460ffee 	bnez	v1,40002b5c <printf+0x334>
40002ba4:	00000000 	nop
40002ba8:	08000d67 	j	4000359c <printf+0xd74>
40002bac:	00000000 	nop
40002bb0:	8fa20010 	lw	v0,16(sp)
40002bb4:	00000000 	nop
40002bb8:	24430004 	addiu	v1,v0,4
40002bbc:	afa30010 	sw	v1,16(sp)
40002bc0:	8c420000 	lw	v0,0(v0)
40002bc4:	00000000 	nop
40002bc8:	3c04ff20 	lui	a0,0xff20
40002bcc:	3c030001 	lui	v1,0x1
40002bd0:	34841004 	ori	a0,a0,0x1004
40002bd4:	34630000 	ori	v1,v1,0x0
40002bd8:	8c840000 	lw	a0,0(a0)
40002bdc:	00000000 	nop
40002be0:	0083182b 	sltu	v1,a0,v1
40002be4:	1460fff8 	bnez	v1,40002bc8 <printf+0x3a0>
40002be8:	00000000 	nop
40002bec:	00021600 	sll	v0,v0,0x18
40002bf0:	3c03ff20 	lui	v1,0xff20
40002bf4:	00021603 	sra	v0,v0,0x18
40002bf8:	08000d65 	j	40003594 <printf+0xd6c>
40002bfc:	00000000 	nop
40002c00:	24050000 	li	a1,0
40002c04:	00051821 	addu	v1,zero,a1
40002c08:	3086000f 	andi	a2,a0,0xf
40002c0c:	2cc2000a 	sltiu	v0,a2,10
40002c10:	14400004 	bnez	v0,40002c24 <printf+0x3fc>
40002c14:	00000000 	nop
40002c18:	24070057 	li	a3,87
40002c1c:	08000b0a 	j	40002c28 <printf+0x400>
40002c20:	00000000 	nop
40002c24:	24070030 	li	a3,48
40002c28:	27a20014 	addiu	v0,sp,20
40002c2c:	00042102 	srl	a0,a0,0x4
40002c30:	24650001 	addiu	a1,v1,1
40002c34:	00e63021 	addu	a2,a3,a2
40002c38:	00433821 	addu	a3,v0,v1
40002c3c:	a0e60000 	sb	a2,0(a3)
40002c40:	1480fff0 	bnez	a0,40002c04 <printf+0x3dc>
40002c44:	00000000 	nop
40002c48:	3c044000 	lui	a0,0x4000
40002c4c:	248445a8 	addiu	a0,a0,17832
40002c50:	24060000 	li	a2,0
40002c54:	00853821 	addu	a3,a0,a1
40002c58:	a0e60000 	sb	a2,0(a3)
40002c5c:	04600010 	bltz	v1,40002ca0 <printf+0x478>
40002c60:	00000000 	nop
40002c64:	3c044000 	lui	a0,0x4000
40002c68:	24030000 	li	v1,0
40002c6c:	00651823 	subu	v1,v1,a1
40002c70:	248445a8 	addiu	a0,a0,17832
40002c74:	3c054000 	lui	a1,0x4000
40002c78:	00433023 	subu	a2,v0,v1
40002c7c:	90c6ffff 	lbu	a2,-1(a2)
40002c80:	00000000 	nop
40002c84:	24630001 	addiu	v1,v1,1
40002c88:	24870001 	addiu	a3,a0,1
40002c8c:	a0860000 	sb	a2,0(a0)
40002c90:	00072021 	addu	a0,zero,a3
40002c94:	1460fff7 	bnez	v1,40002c74 <printf+0x44c>
40002c98:	00000000 	nop
40002c9c:	24a445a8 	addiu	a0,a1,17832
40002ca0:	90830000 	lbu	v1,0(a0)
40002ca4:	00000000 	nop
40002ca8:	1060023c 	beqz	v1,4000359c <printf+0xd74>
40002cac:	00000000 	nop
40002cb0:	24820001 	addiu	v0,a0,1
40002cb4:	3c05ff20 	lui	a1,0xff20
40002cb8:	3c040001 	lui	a0,0x1
40002cbc:	34a51004 	ori	a1,a1,0x1004
40002cc0:	34840000 	ori	a0,a0,0x0
40002cc4:	8ca50000 	lw	a1,0(a1)
40002cc8:	00000000 	nop
40002ccc:	00a4202b 	sltu	a0,a1,a0
40002cd0:	1480fff8 	bnez	a0,40002cb4 <printf+0x48c>
40002cd4:	00000000 	nop
40002cd8:	00031e00 	sll	v1,v1,0x18
40002cdc:	3c04ff20 	lui	a0,0xff20
40002ce0:	00031e03 	sra	v1,v1,0x18
40002ce4:	34841000 	ori	a0,a0,0x1000
40002ce8:	ac830000 	sw	v1,0(a0)
40002cec:	90430000 	lbu	v1,0(v0)
40002cf0:	00000000 	nop
40002cf4:	24420001 	addiu	v0,v0,1
40002cf8:	1460ffee 	bnez	v1,40002cb4 <printf+0x48c>
40002cfc:	00000000 	nop
40002d00:	08000d67 	j	4000359c <printf+0xd74>
40002d04:	00000000 	nop
40002d08:	24050000 	li	a1,0
40002d0c:	00051821 	addu	v1,zero,a1
40002d10:	3086000f 	andi	a2,a0,0xf
40002d14:	2cc2000a 	sltiu	v0,a2,10
40002d18:	14400004 	bnez	v0,40002d2c <printf+0x504>
40002d1c:	00000000 	nop
40002d20:	24070037 	li	a3,55
40002d24:	08000b4c 	j	40002d30 <printf+0x508>
40002d28:	00000000 	nop
40002d2c:	24070030 	li	a3,48
40002d30:	27a20014 	addiu	v0,sp,20
40002d34:	00042102 	srl	a0,a0,0x4
40002d38:	24650001 	addiu	a1,v1,1
40002d3c:	00e63021 	addu	a2,a3,a2
40002d40:	00433821 	addu	a3,v0,v1
40002d44:	a0e60000 	sb	a2,0(a3)
40002d48:	1480fff0 	bnez	a0,40002d0c <printf+0x4e4>
40002d4c:	00000000 	nop
40002d50:	3c044000 	lui	a0,0x4000
40002d54:	248445a8 	addiu	a0,a0,17832
40002d58:	24060000 	li	a2,0
40002d5c:	00853821 	addu	a3,a0,a1
40002d60:	a0e60000 	sb	a2,0(a3)
40002d64:	04600010 	bltz	v1,40002da8 <printf+0x580>
40002d68:	00000000 	nop
40002d6c:	3c044000 	lui	a0,0x4000
40002d70:	24030000 	li	v1,0
40002d74:	00651823 	subu	v1,v1,a1
40002d78:	248445a8 	addiu	a0,a0,17832
40002d7c:	3c054000 	lui	a1,0x4000
40002d80:	00433023 	subu	a2,v0,v1
40002d84:	90c6ffff 	lbu	a2,-1(a2)
40002d88:	00000000 	nop
40002d8c:	24630001 	addiu	v1,v1,1
40002d90:	24870001 	addiu	a3,a0,1
40002d94:	a0860000 	sb	a2,0(a0)
40002d98:	00072021 	addu	a0,zero,a3
40002d9c:	1460fff7 	bnez	v1,40002d7c <printf+0x554>
40002da0:	00000000 	nop
40002da4:	24a445a8 	addiu	a0,a1,17832
40002da8:	90830000 	lbu	v1,0(a0)
40002dac:	00000000 	nop
40002db0:	106001fa 	beqz	v1,4000359c <printf+0xd74>
40002db4:	00000000 	nop
40002db8:	24820001 	addiu	v0,a0,1
40002dbc:	3c05ff20 	lui	a1,0xff20
40002dc0:	3c040001 	lui	a0,0x1
40002dc4:	34a51004 	ori	a1,a1,0x1004
40002dc8:	34840000 	ori	a0,a0,0x0
40002dcc:	8ca50000 	lw	a1,0(a1)
40002dd0:	00000000 	nop
40002dd4:	00a4202b 	sltu	a0,a1,a0
40002dd8:	1480fff8 	bnez	a0,40002dbc <printf+0x594>
40002ddc:	00000000 	nop
40002de0:	00031e00 	sll	v1,v1,0x18
40002de4:	3c04ff20 	lui	a0,0xff20
40002de8:	00031e03 	sra	v1,v1,0x18
40002dec:	34841000 	ori	a0,a0,0x1000
40002df0:	ac830000 	sw	v1,0(a0)
40002df4:	90430000 	lbu	v1,0(v0)
40002df8:	00000000 	nop
40002dfc:	24420001 	addiu	v0,v0,1
40002e00:	1460ffee 	bnez	v1,40002dbc <printf+0x594>
40002e04:	00000000 	nop
40002e08:	08000d67 	j	4000359c <printf+0xd74>
40002e0c:	00000000 	nop
40002e10:	26530001 	addiu	s3,s2,1
40002e14:	02131021 	addu	v0,s0,s3
40002e18:	80420000 	lb	v0,0(v0)
40002e1c:	00000000 	nop
40002e20:	24030058 	li	v1,88
40002e24:	10430091 	beq	v0,v1,4000306c <printf+0x844>
40002e28:	00000000 	nop
40002e2c:	24030078 	li	v1,120
40002e30:	1043002c 	beq	v0,v1,40002ee4 <printf+0x6bc>
40002e34:	00000000 	nop
40002e38:	24030064 	li	v1,100
40002e3c:	144301d7 	bne	v0,v1,4000359c <printf+0xd74>
40002e40:	00000000 	nop
40002e44:	8fa20010 	lw	v0,16(sp)
40002e48:	00000000 	nop
40002e4c:	24430008 	addiu	v1,v0,8
40002e50:	afa30010 	sw	v1,16(sp)
40002e54:	8c440004 	lw	a0,4(v0)
40002e58:	00000000 	nop
40002e5c:	0c0007ed 	jal	40001fb4 <itoa>
40002e60:	00000000 	nop
40002e64:	90430000 	lbu	v1,0(v0)
40002e68:	00000000 	nop
40002e6c:	14600005 	bnez	v1,40002e84 <printf+0x65c>
40002e70:	00000000 	nop
40002e74:	00139021 	addu	s2,zero,s3
40002e78:	26420001 	addiu	v0,s2,1
40002e7c:	08000a18 	j	40002860 <printf+0x38>
40002e80:	00000000 	nop
40002e84:	24420001 	addiu	v0,v0,1
40002e88:	3c05ff20 	lui	a1,0xff20
40002e8c:	3c040001 	lui	a0,0x1
40002e90:	34a51004 	ori	a1,a1,0x1004
40002e94:	34840000 	ori	a0,a0,0x0
40002e98:	8ca50000 	lw	a1,0(a1)
40002e9c:	00000000 	nop
40002ea0:	00a4202b 	sltu	a0,a1,a0
40002ea4:	1480fff8 	bnez	a0,40002e88 <printf+0x660>
40002ea8:	00000000 	nop
40002eac:	00031e00 	sll	v1,v1,0x18
40002eb0:	3c04ff20 	lui	a0,0xff20
40002eb4:	00031e03 	sra	v1,v1,0x18
40002eb8:	34841000 	ori	a0,a0,0x1000
40002ebc:	ac830000 	sw	v1,0(a0)
40002ec0:	90430000 	lbu	v1,0(v0)
40002ec4:	00000000 	nop
40002ec8:	24420001 	addiu	v0,v0,1
40002ecc:	1460ffee 	bnez	v1,40002e88 <printf+0x660>
40002ed0:	00000000 	nop
40002ed4:	00139021 	addu	s2,zero,s3
40002ed8:	26420001 	addiu	v0,s2,1
40002edc:	08000a18 	j	40002860 <printf+0x38>
40002ee0:	00000000 	nop
40002ee4:	8fa20010 	lw	v0,16(sp)
40002ee8:	00000000 	nop
40002eec:	24430004 	addiu	v1,v0,4
40002ef0:	afa30010 	sw	v1,16(sp)
40002ef4:	8c430000 	lw	v1,0(v0)
40002ef8:	00000000 	nop
40002efc:	24440008 	addiu	a0,v0,8
40002f00:	3c054000 	lui	a1,0x4000
40002f04:	afa40010 	sw	a0,16(sp)
40002f08:	8c440004 	lw	a0,4(v0)
40002f0c:	00000000 	nop
40002f10:	00641025 	or	v0,v1,a0
40002f14:	1440000a 	bnez	v0,40002f40 <printf+0x718>
40002f18:	00000000 	nop
40002f1c:	24a73f9c 	addiu	a3,a1,16284
40002f20:	90e30000 	lbu	v1,0(a3)
40002f24:	00000000 	nop
40002f28:	14600038 	bnez	v1,4000300c <printf+0x7e4>
40002f2c:	00000000 	nop
40002f30:	00139021 	addu	s2,zero,s3
40002f34:	26420001 	addiu	v0,s2,1
40002f38:	08000a18 	j	40002860 <printf+0x38>
40002f3c:	00000000 	nop
40002f40:	24060000 	li	a2,0
40002f44:	00062821 	addu	a1,zero,a2
40002f48:	3067000f 	andi	a3,v1,0xf
40002f4c:	2ce2000a 	sltiu	v0,a3,10
40002f50:	14400004 	bnez	v0,40002f64 <printf+0x73c>
40002f54:	00000000 	nop
40002f58:	24080057 	li	t0,87
40002f5c:	08000bda 	j	40002f68 <printf+0x740>
40002f60:	00000000 	nop
40002f64:	24080030 	li	t0,48
40002f68:	27a20020 	addiu	v0,sp,32
40002f6c:	00031902 	srl	v1,v1,0x4
40002f70:	00044f00 	sll	t1,a0,0x1c
40002f74:	24a60001 	addiu	a2,a1,1
40002f78:	00691825 	or	v1,v1,t1
40002f7c:	00042102 	srl	a0,a0,0x4
40002f80:	01074021 	addu	t0,t0,a3
40002f84:	00454821 	addu	t1,v0,a1
40002f88:	00643825 	or	a3,v1,a0
40002f8c:	a1280000 	sb	t0,0(t1)
40002f90:	14e0ffec 	bnez	a3,40002f44 <printf+0x71c>
40002f94:	00000000 	nop
40002f98:	3c034000 	lui	v1,0x4000
40002f9c:	246745b1 	addiu	a3,v1,17841
40002fa0:	24030000 	li	v1,0
40002fa4:	00e62021 	addu	a0,a3,a2
40002fa8:	a0830000 	sb	v1,0(a0)
40002fac:	04a0ffdc 	bltz	a1,40002f20 <printf+0x6f8>
40002fb0:	00000000 	nop
40002fb4:	24030000 	li	v1,0
40002fb8:	24c4ffff 	addiu	a0,a2,-1
40002fbc:	00032821 	addu	a1,zero,v1
40002fc0:	3c074000 	lui	a3,0x4000
40002fc4:	00443021 	addu	a2,v0,a0
40002fc8:	24e745b1 	addiu	a3,a3,17841
40002fcc:	90c80000 	lbu	t0,0(a2)
40002fd0:	00000000 	nop
40002fd4:	00e34821 	addu	t1,a3,v1
40002fd8:	28860001 	slti	a2,a0,1
40002fdc:	a1280000 	sb	t0,0(t1)
40002fe0:	14c0ffcf 	bnez	a2,40002f20 <printf+0x6f8>
40002fe4:	00000000 	nop
40002fe8:	24630001 	addiu	v1,v1,1
40002fec:	24060001 	li	a2,1
40002ff0:	0066302b 	sltu	a2,v1,a2
40002ff4:	24070000 	li	a3,0
40002ff8:	00c73021 	addu	a2,a2,a3
40002ffc:	2484ffff 	addiu	a0,a0,-1
40003000:	00a62821 	addu	a1,a1,a2
40003004:	08000bf0 	j	40002fc0 <printf+0x798>
40003008:	00000000 	nop
4000300c:	24e20001 	addiu	v0,a3,1
40003010:	3c05ff20 	lui	a1,0xff20
40003014:	3c040001 	lui	a0,0x1
40003018:	34a51004 	ori	a1,a1,0x1004
4000301c:	34840000 	ori	a0,a0,0x0
40003020:	8ca50000 	lw	a1,0(a1)
40003024:	00000000 	nop
40003028:	00a4202b 	sltu	a0,a1,a0
4000302c:	1480fff8 	bnez	a0,40003010 <printf+0x7e8>
40003030:	00000000 	nop
40003034:	00031e00 	sll	v1,v1,0x18
40003038:	3c04ff20 	lui	a0,0xff20
4000303c:	00031e03 	sra	v1,v1,0x18
40003040:	34841000 	ori	a0,a0,0x1000
40003044:	ac830000 	sw	v1,0(a0)
40003048:	90430000 	lbu	v1,0(v0)
4000304c:	00000000 	nop
40003050:	24420001 	addiu	v0,v0,1
40003054:	1460ffee 	bnez	v1,40003010 <printf+0x7e8>
40003058:	00000000 	nop
4000305c:	00139021 	addu	s2,zero,s3
40003060:	26420001 	addiu	v0,s2,1
40003064:	08000a18 	j	40002860 <printf+0x38>
40003068:	00000000 	nop
4000306c:	8fa20010 	lw	v0,16(sp)
40003070:	00000000 	nop
40003074:	24430004 	addiu	v1,v0,4
40003078:	afa30010 	sw	v1,16(sp)
4000307c:	8c430000 	lw	v1,0(v0)
40003080:	00000000 	nop
40003084:	24440008 	addiu	a0,v0,8
40003088:	3c054000 	lui	a1,0x4000
4000308c:	afa40010 	sw	a0,16(sp)
40003090:	8c440004 	lw	a0,4(v0)
40003094:	00000000 	nop
40003098:	00641025 	or	v0,v1,a0
4000309c:	1440000a 	bnez	v0,400030c8 <printf+0x8a0>
400030a0:	00000000 	nop
400030a4:	24a73f9c 	addiu	a3,a1,16284
400030a8:	90e30000 	lbu	v1,0(a3)
400030ac:	00000000 	nop
400030b0:	14600038 	bnez	v1,40003194 <printf+0x96c>
400030b4:	00000000 	nop
400030b8:	00139021 	addu	s2,zero,s3
400030bc:	26420001 	addiu	v0,s2,1
400030c0:	08000a18 	j	40002860 <printf+0x38>
400030c4:	00000000 	nop
400030c8:	24060000 	li	a2,0
400030cc:	00062821 	addu	a1,zero,a2
400030d0:	3067000f 	andi	a3,v1,0xf
400030d4:	2ce2000a 	sltiu	v0,a3,10
400030d8:	14400004 	bnez	v0,400030ec <printf+0x8c4>
400030dc:	00000000 	nop
400030e0:	24080037 	li	t0,55
400030e4:	08000c3c 	j	400030f0 <printf+0x8c8>
400030e8:	00000000 	nop
400030ec:	24080030 	li	t0,48
400030f0:	27a20020 	addiu	v0,sp,32
400030f4:	00031902 	srl	v1,v1,0x4
400030f8:	00044f00 	sll	t1,a0,0x1c
400030fc:	24a60001 	addiu	a2,a1,1
40003100:	00691825 	or	v1,v1,t1
40003104:	00042102 	srl	a0,a0,0x4
40003108:	01074021 	addu	t0,t0,a3
4000310c:	00454821 	addu	t1,v0,a1
40003110:	00643825 	or	a3,v1,a0
40003114:	a1280000 	sb	t0,0(t1)
40003118:	14e0ffec 	bnez	a3,400030cc <printf+0x8a4>
4000311c:	00000000 	nop
40003120:	3c034000 	lui	v1,0x4000
40003124:	246745b1 	addiu	a3,v1,17841
40003128:	24030000 	li	v1,0
4000312c:	00e62021 	addu	a0,a3,a2
40003130:	a0830000 	sb	v1,0(a0)
40003134:	04a0ffdc 	bltz	a1,400030a8 <printf+0x880>
40003138:	00000000 	nop
4000313c:	24030000 	li	v1,0
40003140:	24c4ffff 	addiu	a0,a2,-1
40003144:	00032821 	addu	a1,zero,v1
40003148:	3c074000 	lui	a3,0x4000
4000314c:	00443021 	addu	a2,v0,a0
40003150:	24e745b1 	addiu	a3,a3,17841
40003154:	90c80000 	lbu	t0,0(a2)
40003158:	00000000 	nop
4000315c:	00e34821 	addu	t1,a3,v1
40003160:	28860001 	slti	a2,a0,1
40003164:	a1280000 	sb	t0,0(t1)
40003168:	14c0ffcf 	bnez	a2,400030a8 <printf+0x880>
4000316c:	00000000 	nop
40003170:	24630001 	addiu	v1,v1,1
40003174:	24060001 	li	a2,1
40003178:	0066302b 	sltu	a2,v1,a2
4000317c:	24070000 	li	a3,0
40003180:	00c73021 	addu	a2,a2,a3
40003184:	2484ffff 	addiu	a0,a0,-1
40003188:	00a62821 	addu	a1,a1,a2
4000318c:	08000c52 	j	40003148 <printf+0x920>
40003190:	00000000 	nop
40003194:	24e20001 	addiu	v0,a3,1
40003198:	3c05ff20 	lui	a1,0xff20
4000319c:	3c040001 	lui	a0,0x1
400031a0:	34a51004 	ori	a1,a1,0x1004
400031a4:	34840000 	ori	a0,a0,0x0
400031a8:	8ca50000 	lw	a1,0(a1)
400031ac:	00000000 	nop
400031b0:	00a4202b 	sltu	a0,a1,a0
400031b4:	1480fff8 	bnez	a0,40003198 <printf+0x970>
400031b8:	00000000 	nop
400031bc:	00031e00 	sll	v1,v1,0x18
400031c0:	3c04ff20 	lui	a0,0xff20
400031c4:	00031e03 	sra	v1,v1,0x18
400031c8:	34841000 	ori	a0,a0,0x1000
400031cc:	ac830000 	sw	v1,0(a0)
400031d0:	90430000 	lbu	v1,0(v0)
400031d4:	00000000 	nop
400031d8:	24420001 	addiu	v0,v0,1
400031dc:	1460ffee 	bnez	v1,40003198 <printf+0x970>
400031e0:	00000000 	nop
400031e4:	00139021 	addu	s2,zero,s3
400031e8:	26420001 	addiu	v0,s2,1
400031ec:	08000a18 	j	40002860 <printf+0x38>
400031f0:	00000000 	nop
400031f4:	8fa20010 	lw	v0,16(sp)
400031f8:	00000000 	nop
400031fc:	24440004 	addiu	a0,v0,4
40003200:	26430001 	addiu	v1,s2,1
40003204:	afa40010 	sw	a0,16(sp)
40003208:	02032021 	addu	a0,s0,v1
4000320c:	90840000 	lbu	a0,0(a0)
40003210:	00000000 	nop
40003214:	24050068 	li	a1,104
40003218:	00852026 	xor	a0,a0,a1
4000321c:	14800002 	bnez	a0,40003228 <printf+0xa00>
40003220:	00000000 	nop
40003224:	00039021 	addu	s2,zero,v1
40003228:	26520001 	addiu	s2,s2,1
4000322c:	10800004 	beqz	a0,40003240 <printf+0xa18>
40003230:	00000000 	nop
40003234:	3403ffff 	li	v1,0xffff
40003238:	08000c91 	j	40003244 <printf+0xa1c>
4000323c:	00000000 	nop
40003240:	240300ff 	li	v1,255
40003244:	02122821 	addu	a1,s0,s2
40003248:	8c440000 	lw	a0,0(v0)
4000324c:	00000000 	nop
40003250:	80a20000 	lb	v0,0(a1)
40003254:	00000000 	nop
40003258:	00642024 	and	a0,v1,a0
4000325c:	24030058 	li	v1,88
40003260:	1043006b 	beq	v0,v1,40003410 <printf+0xbe8>
40003264:	00000000 	nop
40003268:	24030078 	li	v1,120
4000326c:	10430020 	beq	v0,v1,400032f0 <printf+0xac8>
40003270:	00000000 	nop
40003274:	24030064 	li	v1,100
40003278:	144300c8 	bne	v0,v1,4000359c <printf+0xd74>
4000327c:	00000000 	nop
40003280:	0c0007ed 	jal	40001fb4 <itoa>
40003284:	00000000 	nop
40003288:	90430000 	lbu	v1,0(v0)
4000328c:	00000000 	nop
40003290:	106000c2 	beqz	v1,4000359c <printf+0xd74>
40003294:	00000000 	nop
40003298:	24420001 	addiu	v0,v0,1
4000329c:	3c05ff20 	lui	a1,0xff20
400032a0:	3c040001 	lui	a0,0x1
400032a4:	34a51004 	ori	a1,a1,0x1004
400032a8:	34840000 	ori	a0,a0,0x0
400032ac:	8ca50000 	lw	a1,0(a1)
400032b0:	00000000 	nop
400032b4:	00a4202b 	sltu	a0,a1,a0
400032b8:	1480fff8 	bnez	a0,4000329c <printf+0xa74>
400032bc:	00000000 	nop
400032c0:	00031e00 	sll	v1,v1,0x18
400032c4:	3c04ff20 	lui	a0,0xff20
400032c8:	00031e03 	sra	v1,v1,0x18
400032cc:	34841000 	ori	a0,a0,0x1000
400032d0:	ac830000 	sw	v1,0(a0)
400032d4:	90430000 	lbu	v1,0(v0)
400032d8:	00000000 	nop
400032dc:	24420001 	addiu	v0,v0,1
400032e0:	1460ffee 	bnez	v1,4000329c <printf+0xa74>
400032e4:	00000000 	nop
400032e8:	08000d67 	j	4000359c <printf+0xd74>
400032ec:	00000000 	nop
400032f0:	3c024000 	lui	v0,0x4000
400032f4:	14800004 	bnez	a0,40003308 <printf+0xae0>
400032f8:	00000000 	nop
400032fc:	24443f9c 	addiu	a0,v0,16284
40003300:	08000cea 	j	400033a8 <printf+0xb80>
40003304:	00000000 	nop
40003308:	24050000 	li	a1,0
4000330c:	00051821 	addu	v1,zero,a1
40003310:	3086000f 	andi	a2,a0,0xf
40003314:	2cc2000a 	sltiu	v0,a2,10
40003318:	14400004 	bnez	v0,4000332c <printf+0xb04>
4000331c:	00000000 	nop
40003320:	24070057 	li	a3,87
40003324:	08000ccc 	j	40003330 <printf+0xb08>
40003328:	00000000 	nop
4000332c:	24070030 	li	a3,48
40003330:	27a20014 	addiu	v0,sp,20
40003334:	00042102 	srl	a0,a0,0x4
40003338:	24650001 	addiu	a1,v1,1
4000333c:	00e63021 	addu	a2,a3,a2
40003340:	00433821 	addu	a3,v0,v1
40003344:	a0e60000 	sb	a2,0(a3)
40003348:	1480fff0 	bnez	a0,4000330c <printf+0xae4>
4000334c:	00000000 	nop
40003350:	3c044000 	lui	a0,0x4000
40003354:	248445a8 	addiu	a0,a0,17832
40003358:	24060000 	li	a2,0
4000335c:	00853821 	addu	a3,a0,a1
40003360:	a0e60000 	sb	a2,0(a3)
40003364:	04600010 	bltz	v1,400033a8 <printf+0xb80>
40003368:	00000000 	nop
4000336c:	3c044000 	lui	a0,0x4000
40003370:	24030000 	li	v1,0
40003374:	00651823 	subu	v1,v1,a1
40003378:	248445a8 	addiu	a0,a0,17832
4000337c:	3c054000 	lui	a1,0x4000
40003380:	00433023 	subu	a2,v0,v1
40003384:	90c6ffff 	lbu	a2,-1(a2)
40003388:	00000000 	nop
4000338c:	24630001 	addiu	v1,v1,1
40003390:	24870001 	addiu	a3,a0,1
40003394:	a0860000 	sb	a2,0(a0)
40003398:	00072021 	addu	a0,zero,a3
4000339c:	1460fff7 	bnez	v1,4000337c <printf+0xb54>
400033a0:	00000000 	nop
400033a4:	24a445a8 	addiu	a0,a1,17832
400033a8:	90830000 	lbu	v1,0(a0)
400033ac:	00000000 	nop
400033b0:	1060007a 	beqz	v1,4000359c <printf+0xd74>
400033b4:	00000000 	nop
400033b8:	24820001 	addiu	v0,a0,1
400033bc:	3c05ff20 	lui	a1,0xff20
400033c0:	3c040001 	lui	a0,0x1
400033c4:	34a51004 	ori	a1,a1,0x1004
400033c8:	34840000 	ori	a0,a0,0x0
400033cc:	8ca50000 	lw	a1,0(a1)
400033d0:	00000000 	nop
400033d4:	00a4202b 	sltu	a0,a1,a0
400033d8:	1480fff8 	bnez	a0,400033bc <printf+0xb94>
400033dc:	00000000 	nop
400033e0:	00031e00 	sll	v1,v1,0x18
400033e4:	3c04ff20 	lui	a0,0xff20
400033e8:	00031e03 	sra	v1,v1,0x18
400033ec:	34841000 	ori	a0,a0,0x1000
400033f0:	ac830000 	sw	v1,0(a0)
400033f4:	90430000 	lbu	v1,0(v0)
400033f8:	00000000 	nop
400033fc:	24420001 	addiu	v0,v0,1
40003400:	1460ffee 	bnez	v1,400033bc <printf+0xb94>
40003404:	00000000 	nop
40003408:	08000d67 	j	4000359c <printf+0xd74>
4000340c:	00000000 	nop
40003410:	3c024000 	lui	v0,0x4000
40003414:	14800004 	bnez	a0,40003428 <printf+0xc00>
40003418:	00000000 	nop
4000341c:	24443f9c 	addiu	a0,v0,16284
40003420:	08000d32 	j	400034c8 <printf+0xca0>
40003424:	00000000 	nop
40003428:	24050000 	li	a1,0
4000342c:	00051821 	addu	v1,zero,a1
40003430:	3086000f 	andi	a2,a0,0xf
40003434:	2cc2000a 	sltiu	v0,a2,10
40003438:	14400004 	bnez	v0,4000344c <printf+0xc24>
4000343c:	00000000 	nop
40003440:	24070037 	li	a3,55
40003444:	08000d14 	j	40003450 <printf+0xc28>
40003448:	00000000 	nop
4000344c:	24070030 	li	a3,48
40003450:	27a20014 	addiu	v0,sp,20
40003454:	00042102 	srl	a0,a0,0x4
40003458:	24650001 	addiu	a1,v1,1
4000345c:	00e63021 	addu	a2,a3,a2
40003460:	00433821 	addu	a3,v0,v1
40003464:	a0e60000 	sb	a2,0(a3)
40003468:	1480fff0 	bnez	a0,4000342c <printf+0xc04>
4000346c:	00000000 	nop
40003470:	3c044000 	lui	a0,0x4000
40003474:	248445a8 	addiu	a0,a0,17832
40003478:	24060000 	li	a2,0
4000347c:	00853821 	addu	a3,a0,a1
40003480:	a0e60000 	sb	a2,0(a3)
40003484:	04600010 	bltz	v1,400034c8 <printf+0xca0>
40003488:	00000000 	nop
4000348c:	3c044000 	lui	a0,0x4000
40003490:	24030000 	li	v1,0
40003494:	00651823 	subu	v1,v1,a1
40003498:	248445a8 	addiu	a0,a0,17832
4000349c:	3c054000 	lui	a1,0x4000
400034a0:	00433023 	subu	a2,v0,v1
400034a4:	90c6ffff 	lbu	a2,-1(a2)
400034a8:	00000000 	nop
400034ac:	24630001 	addiu	v1,v1,1
400034b0:	24870001 	addiu	a3,a0,1
400034b4:	a0860000 	sb	a2,0(a0)
400034b8:	00072021 	addu	a0,zero,a3
400034bc:	1460fff7 	bnez	v1,4000349c <printf+0xc74>
400034c0:	00000000 	nop
400034c4:	24a445a8 	addiu	a0,a1,17832
400034c8:	90830000 	lbu	v1,0(a0)
400034cc:	00000000 	nop
400034d0:	10600032 	beqz	v1,4000359c <printf+0xd74>
400034d4:	00000000 	nop
400034d8:	24820001 	addiu	v0,a0,1
400034dc:	3c05ff20 	lui	a1,0xff20
400034e0:	3c040001 	lui	a0,0x1
400034e4:	34a51004 	ori	a1,a1,0x1004
400034e8:	34840000 	ori	a0,a0,0x0
400034ec:	8ca50000 	lw	a1,0(a1)
400034f0:	00000000 	nop
400034f4:	00a4202b 	sltu	a0,a1,a0
400034f8:	1480fff8 	bnez	a0,400034dc <printf+0xcb4>
400034fc:	00000000 	nop
40003500:	00031e00 	sll	v1,v1,0x18
40003504:	3c04ff20 	lui	a0,0xff20
40003508:	00031e03 	sra	v1,v1,0x18
4000350c:	34841000 	ori	a0,a0,0x1000
40003510:	ac830000 	sw	v1,0(a0)
40003514:	90430000 	lbu	v1,0(v0)
40003518:	00000000 	nop
4000351c:	24420001 	addiu	v0,v0,1
40003520:	1460ffee 	bnez	v1,400034dc <printf+0xcb4>
40003524:	00000000 	nop
40003528:	08000d67 	j	4000359c <printf+0xd74>
4000352c:	00000000 	nop
40003530:	3c04ff20 	lui	a0,0xff20
40003534:	3c030001 	lui	v1,0x1
40003538:	34841004 	ori	a0,a0,0x1004
4000353c:	34630000 	ori	v1,v1,0x0
40003540:	8c840000 	lw	a0,0(a0)
40003544:	00000000 	nop
40003548:	0083182b 	sltu	v1,a0,v1
4000354c:	1460fff8 	bnez	v1,40003530 <printf+0xd08>
40003550:	00000000 	nop
40003554:	3c04ff20 	lui	a0,0xff20
40003558:	24030025 	li	v1,37
4000355c:	34841000 	ori	a0,a0,0x1000
40003560:	ac830000 	sw	v1,0(a0)
40003564:	80420000 	lb	v0,0(v0)
40003568:	00000000 	nop
4000356c:	3c04ff20 	lui	a0,0xff20
40003570:	3c030001 	lui	v1,0x1
40003574:	34841004 	ori	a0,a0,0x1004
40003578:	34630000 	ori	v1,v1,0x0
4000357c:	8c840000 	lw	a0,0(a0)
40003580:	00000000 	nop
40003584:	0083182b 	sltu	v1,a0,v1
40003588:	1460fff8 	bnez	v1,4000356c <printf+0xd44>
4000358c:	00000000 	nop
40003590:	3c03ff20 	lui	v1,0xff20
40003594:	34631000 	ori	v1,v1,0x1000
40003598:	ac620000 	sw	v0,0(v1)
4000359c:	26420001 	addiu	v0,s2,1
400035a0:	08000a18 	j	40002860 <printf+0x38>
400035a4:	00000000 	nop
400035a8:	2405000a 	li	a1,10
400035ac:	14650013 	bne	v1,a1,400035fc <printf+0xdd4>
400035b0:	00000000 	nop
400035b4:	16200011 	bnez	s1,400035fc <printf+0xdd4>
400035b8:	00000000 	nop
400035bc:	3c05ff20 	lui	a1,0xff20
400035c0:	3c030001 	lui	v1,0x1
400035c4:	34a51004 	ori	a1,a1,0x1004
400035c8:	34630000 	ori	v1,v1,0x0
400035cc:	8ca50000 	lw	a1,0(a1)
400035d0:	00000000 	nop
400035d4:	00a3182b 	sltu	v1,a1,v1
400035d8:	1460fff8 	bnez	v1,400035bc <printf+0xd94>
400035dc:	00000000 	nop
400035e0:	3c05ff20 	lui	a1,0xff20
400035e4:	2403000d 	li	v1,13
400035e8:	34a51000 	ori	a1,a1,0x1000
400035ec:	aca30000 	sw	v1,0(a1)
400035f0:	90830000 	lbu	v1,0(a0)
400035f4:	00000000 	nop
400035f8:	24110000 	li	s1,0
400035fc:	3c05ff20 	lui	a1,0xff20
40003600:	3c040001 	lui	a0,0x1
40003604:	34a51004 	ori	a1,a1,0x1004
40003608:	34840000 	ori	a0,a0,0x0
4000360c:	8ca50000 	lw	a1,0(a1)
40003610:	00000000 	nop
40003614:	00a4202b 	sltu	a0,a1,a0
40003618:	1480fff8 	bnez	a0,400035fc <printf+0xdd4>
4000361c:	00000000 	nop
40003620:	00032600 	sll	a0,v1,0x18
40003624:	3c03ff20 	lui	v1,0xff20
40003628:	24420001 	addiu	v0,v0,1
4000362c:	00042603 	sra	a0,a0,0x18
40003630:	34631000 	ori	v1,v1,0x1000
40003634:	ac640000 	sw	a0,0(v1)
40003638:	08000a18 	j	40002860 <printf+0x38>
4000363c:	00000000 	nop
40003640:	24020000 	li	v0,0
40003644:	8fb00034 	lw	s0,52(sp)
40003648:	00000000 	nop
4000364c:	8fb10038 	lw	s1,56(sp)
40003650:	00000000 	nop
40003654:	8fb2003c 	lw	s2,60(sp)
40003658:	00000000 	nop
4000365c:	8fb30040 	lw	s3,64(sp)
40003660:	00000000 	nop
40003664:	8fbf0044 	lw	ra,68(sp)
40003668:	00000000 	nop
4000366c:	27bd0048 	addiu	sp,sp,72
40003670:	03e00008 	jr	ra
40003674:	00000000 	nop

40003678 <exit>:
40003678:	27bdffe8 	addiu	sp,sp,-24
4000367c:	afbf0014 	sw	ra,20(sp)
40003680:	00041021 	addu	v0,zero,a0
40003684:	3c034000 	lui	v1,0x4000
40003688:	24643f9e 	addiu	a0,v1,16286
4000368c:	00022821 	addu	a1,zero,v0
40003690:	0c000a0a 	jal	40002828 <printf>
40003694:	00000000 	nop
40003698:	08000da6 	j	40003698 <exit+0x20>
4000369c:	00000000 	nop

400036a0 <memset>:
400036a0:	10c00008 	beqz	a2,400036c4 <memset+0x24>
400036a4:	00000000 	nop
400036a8:	00041021 	addu	v0,zero,a0
400036ac:	24c6ffff 	addiu	a2,a2,-1
400036b0:	24430001 	addiu	v1,v0,1
400036b4:	a0450000 	sb	a1,0(v0)
400036b8:	00031021 	addu	v0,zero,v1
400036bc:	14c0fffb 	bnez	a2,400036ac <memset+0xc>
400036c0:	00000000 	nop
400036c4:	00041021 	addu	v0,zero,a0
400036c8:	03e00008 	jr	ra
400036cc:	00000000 	nop

400036d0 <memcpy>:
400036d0:	10c0000b 	beqz	a2,40003700 <memcpy+0x30>
400036d4:	00000000 	nop
400036d8:	00041021 	addu	v0,zero,a0
400036dc:	90a30000 	lbu	v1,0(a1)
400036e0:	00000000 	nop
400036e4:	24c6ffff 	addiu	a2,a2,-1
400036e8:	24a50001 	addiu	a1,a1,1
400036ec:	24470001 	addiu	a3,v0,1
400036f0:	a0430000 	sb	v1,0(v0)
400036f4:	00071021 	addu	v0,zero,a3
400036f8:	14c0fff8 	bnez	a2,400036dc <memcpy+0xc>
400036fc:	00000000 	nop
40003700:	00041021 	addu	v0,zero,a0
40003704:	03e00008 	jr	ra
40003708:	00000000 	nop

Disassembly of section .rodata:

4000370c <qq4_code4_table>:
4000370c:	00000000 	nop
40003710:	ffffb018 	0xffffb018
40003714:	ffffcda0 	0xffffcda0
40003718:	ffffdcf8 	0xffffdcf8
4000371c:	ffffe770 	0xffffe770
40003720:	ffffef70 	0xffffef70
40003724:	fffff5e8 	0xfffff5e8
40003728:	fffffb50 	0xfffffb50
4000372c:	00004fe8 	0x4fe8
40003730:	00003260 	0x3260
40003734:	00002308 	0x2308
40003738:	00001890 	0x1890
4000373c:	00001090 	0x1090
40003740:	00000a18 	0xa18
40003744:	000004b0 	0x4b0
40003748:	00000000 	nop

4000374c <qq6_code6_table>:
4000374c:	ffffff78 	0xffffff78
40003750:	ffffff78 	0xffffff78
40003754:	ffffff78 	0xffffff78
40003758:	ffffff78 	0xffffff78
4000375c:	ffff9f18 	0xffff9f18
40003760:	ffffaa70 	0xffffaa70
40003764:	ffffb5c0 	0xffffb5c0
40003768:	ffffbec0 	0xffffbec0
4000376c:	ffffc578 	0xffffc578
40003770:	ffffcb38 	0xffffcb38
40003774:	ffffd008 	0xffffd008
40003778:	ffffd448 	0xffffd448
4000377c:	ffffd808 	0xffffd808
40003780:	ffffdb70 	0xffffdb70
40003784:	ffffde80 	0xffffde80
40003788:	ffffe150 	0xffffe150
4000378c:	ffffe3e8 	0xffffe3e8
40003790:	ffffe650 	0xffffe650
40003794:	ffffe890 	0xffffe890
40003798:	ffffeab0 	0xffffeab0
4000379c:	ffffecb0 	0xffffecb0
400037a0:	ffffee90 	0xffffee90
400037a4:	fffff058 	0xfffff058
400037a8:	fffff208 	0xfffff208
400037ac:	fffff3a0 	0xfffff3a0
400037b0:	fffff528 	0xfffff528
400037b4:	fffff6a0 	0xfffff6a0
400037b8:	fffff810 	0xfffff810
400037bc:	fffff968 	0xfffff968
400037c0:	fffffab0 	0xfffffab0
400037c4:	fffffbf0 	0xfffffbf0
400037c8:	fffffd28 	0xfffffd28
400037cc:	000060e8 	0x60e8
400037d0:	00005590 	0x5590
400037d4:	00004a40 	sll	t1,zero,0x9
400037d8:	00004140 	sll	t0,zero,0x5
400037dc:	00003a88 	0x3a88
400037e0:	000034c8 	0x34c8
400037e4:	00002ff8 	0x2ff8
400037e8:	00002bb8 	0x2bb8
400037ec:	000027f8 	0x27f8
400037f0:	00002490 	0x2490
400037f4:	00002180 	sll	a0,zero,0x6
400037f8:	00001eb0 	0x1eb0
400037fc:	00001c18 	0x1c18
40003800:	000019b0 	0x19b0
40003804:	00001770 	0x1770
40003808:	00001550 	0x1550
4000380c:	00001350 	0x1350
40003810:	00001170 	0x1170
40003814:	00000fa8 	0xfa8
40003818:	00000df8 	0xdf8
4000381c:	00000c60 	0xc60
40003820:	00000ad8 	0xad8
40003824:	00000960 	0x960
40003828:	000007f0 	0x7f0
4000382c:	00000698 	0x698
40003830:	00000550 	0x550
40003834:	00000410 	0x410
40003838:	000002d8 	0x2d8
4000383c:	000001b0 	0x1b0
40003840:	00000088 	0x88
40003844:	fffffe50 	0xfffffe50
40003848:	ffffff78 	0xffffff78

4000384c <wl_code_table>:
4000384c:	ffffffc4 	0xffffffc4
40003850:	00000be2 	0xbe2
40003854:	000004ae 	0x4ae
40003858:	0000021a 	0x21a
4000385c:	0000014e 	0x14e
40003860:	000000ac 	0xac
40003864:	0000003a 	0x3a
40003868:	ffffffe2 	0xffffffe2
4000386c:	00000be2 	0xbe2
40003870:	000004ae 	0x4ae
40003874:	0000021a 	0x21a
40003878:	0000014e 	0x14e
4000387c:	000000ac 	0xac
40003880:	0000003a 	0x3a
40003884:	ffffffe2 	0xffffffe2
40003888:	ffffffc4 	0xffffffc4

4000388c <ilb_table>:
4000388c:	00000800 	sll	at,zero,0x0
40003890:	0000082d 	0x82d
40003894:	0000085b 	0x85b
40003898:	0000088a 	0x88a
4000389c:	000008b9 	0x8b9
400038a0:	000008ea 	0x8ea
400038a4:	0000091c 	0x91c
400038a8:	0000094f 	0x94f
400038ac:	00000983 	sra	at,zero,0x6
400038b0:	000009b9 	0x9b9
400038b4:	000009ef 	0x9ef
400038b8:	00000a27 	0xa27
400038bc:	00000a60 	0xa60
400038c0:	00000a9a 	0xa9a
400038c4:	00000ad6 	0xad6
400038c8:	00000b12 	0xb12
400038cc:	00000b50 	0xb50
400038d0:	00000b90 	0xb90
400038d4:	00000bd1 	0xbd1
400038d8:	00000c13 	0xc13
400038dc:	00000c56 	0xc56
400038e0:	00000c9c 	0xc9c
400038e4:	00000ce2 	0xce2
400038e8:	00000d2b 	0xd2b
400038ec:	00000d74 	0xd74
400038f0:	00000dc0 	sll	at,zero,0x17
400038f4:	00000e0d 	break	0x0,0x38
400038f8:	00000e5c 	0xe5c
400038fc:	00000eac 	0xeac
40003900:	00000efe 	0xefe
40003904:	00000f52 	0xf52
40003908:	00000fa8 	0xfa8

4000390c <decis_levl>:
4000390c:	00000118 	0x118
40003910:	00000240 	sll	zero,zero,0x9
40003914:	00000370 	0x370
40003918:	000004b0 	0x4b0
4000391c:	000005f0 	0x5f0
40003920:	00000748 	0x748
40003924:	000008a0 	0x8a0
40003928:	00000a18 	0xa18
4000392c:	00000b90 	0xb90
40003930:	00000d30 	0xd30
40003934:	00000ec8 	0xec8
40003938:	00001090 	0x1090
4000393c:	00001258 	0x1258
40003940:	00001450 	0x1450
40003944:	00001650 	0x1650
40003948:	00001890 	0x1890
4000394c:	00001ad0 	0x1ad0
40003950:	00001d60 	0x1d60
40003954:	00001ff8 	0x1ff8
40003958:	00002308 	0x2308
4000395c:	00002618 	0x2618
40003960:	000029d8 	0x29d8
40003964:	00002d90 	0x2d90
40003968:	00003260 	0x3260
4000396c:	00003728 	0x3728
40003970:	00003de0 	0x3de0
40003974:	00004498 	0x4498
40003978:	00004fe8 	0x4fe8
4000397c:	00005b38 	0x5b38
40003980:	00007fff 	0x7fff

40003984 <quant26bt_pos>:
40003984:	0000003d 	0x3d
40003988:	0000003c 	0x3c
4000398c:	0000003b 	0x3b
40003990:	0000003a 	0x3a
40003994:	00000039 	0x39
40003998:	00000038 	0x38
4000399c:	00000037 	0x37
400039a0:	00000036 	0x36
400039a4:	00000035 	0x35
400039a8:	00000034 	0x34
400039ac:	00000033 	0x33
400039b0:	00000032 	0x32
400039b4:	00000031 	0x31
400039b8:	00000030 	0x30
400039bc:	0000002f 	0x2f
400039c0:	0000002e 	0x2e
400039c4:	0000002d 	0x2d
400039c8:	0000002c 	0x2c
400039cc:	0000002b 	sltu	zero,zero,zero
400039d0:	0000002a 	slt	zero,zero,zero
400039d4:	00000029 	0x29
400039d8:	00000028 	0x28
400039dc:	00000027 	nor	zero,zero,zero
400039e0:	00000026 	xor	zero,zero,zero
400039e4:	00000025 	move	zero,zero
400039e8:	00000024 	and	zero,zero,zero
400039ec:	00000023 	negu	zero,zero
400039f0:	00000022 	neg	zero,zero
400039f4:	00000021 	move	zero,zero
400039f8:	00000020 	add	zero,zero,zero
400039fc:	00000020 	add	zero,zero,zero

40003a00 <quant26bt_neg>:
40003a00:	0000003f 	0x3f
40003a04:	0000003e 	0x3e
40003a08:	0000001f 	0x1f
40003a0c:	0000001e 	0x1e
40003a10:	0000001d 	0x1d
40003a14:	0000001c 	0x1c
40003a18:	0000001b 	divu	zero,zero,zero
40003a1c:	0000001a 	div	zero,zero,zero
40003a20:	00000019 	multu	zero,zero
40003a24:	00000018 	mult	zero,zero
40003a28:	00000017 	0x17
40003a2c:	00000016 	0x16
40003a30:	00000015 	0x15
40003a34:	00000014 	0x14
40003a38:	00000013 	mtlo	zero
40003a3c:	00000012 	mflo	zero
40003a40:	00000011 	mthi	zero
40003a44:	00000010 	mfhi	zero
40003a48:	0000000f 	0xf
40003a4c:	0000000e 	0xe
40003a50:	0000000d 	break
40003a54:	0000000c 	syscall
40003a58:	0000000b 	0xb
40003a5c:	0000000a 	0xa
40003a60:	00000009 	jalr	zero,zero
40003a64:	00000008 	jr	zero
40003a68:	00000007 	srav	zero,zero,zero
40003a6c:	00000006 	srlv	zero,zero,zero
40003a70:	00000005 	0x5
40003a74:	00000004 	sllv	zero,zero,zero
40003a78:	00000004 	sllv	zero,zero,zero

40003a7c <test_data>:
40003a7c:	00000044 	0x44
40003a80:	00000044 	0x44
40003a84:	00000044 	0x44
40003a88:	00000044 	0x44
40003a8c:	00000044 	0x44
40003a90:	00000044 	0x44
40003a94:	00000044 	0x44
40003a98:	00000044 	0x44
40003a9c:	00000044 	0x44
40003aa0:	00000044 	0x44
40003aa4:	00000044 	0x44
40003aa8:	00000044 	0x44
40003aac:	00000044 	0x44
40003ab0:	00000044 	0x44
40003ab4:	00000044 	0x44
40003ab8:	00000044 	0x44
40003abc:	00000044 	0x44
40003ac0:	00000043 	sra	zero,zero,0x1
40003ac4:	00000043 	sra	zero,zero,0x1
40003ac8:	00000043 	sra	zero,zero,0x1
40003acc:	00000043 	sra	zero,zero,0x1
40003ad0:	00000043 	sra	zero,zero,0x1
40003ad4:	00000043 	sra	zero,zero,0x1
40003ad8:	00000043 	sra	zero,zero,0x1
40003adc:	00000042 	srl	zero,zero,0x1
40003ae0:	00000042 	srl	zero,zero,0x1
40003ae4:	00000042 	srl	zero,zero,0x1
40003ae8:	00000042 	srl	zero,zero,0x1
40003aec:	00000042 	srl	zero,zero,0x1
40003af0:	00000042 	srl	zero,zero,0x1
40003af4:	00000041 	0x41
40003af8:	00000041 	0x41
40003afc:	00000041 	0x41
40003b00:	00000041 	0x41
40003b04:	00000041 	0x41
40003b08:	00000040 	ssnop
40003b0c:	00000040 	ssnop
40003b10:	00000040 	ssnop
40003b14:	00000040 	ssnop
40003b18:	00000040 	ssnop
40003b1c:	00000040 	ssnop
40003b20:	00000040 	ssnop
40003b24:	00000040 	ssnop
40003b28:	0000003f 	0x3f
40003b2c:	0000003f 	0x3f
40003b30:	0000003f 	0x3f
40003b34:	0000003f 	0x3f
40003b38:	0000003f 	0x3f
40003b3c:	0000003e 	0x3e
40003b40:	0000003e 	0x3e
40003b44:	0000003e 	0x3e
40003b48:	0000003e 	0x3e
40003b4c:	0000003e 	0x3e
40003b50:	0000003e 	0x3e
40003b54:	0000003d 	0x3d
40003b58:	0000003d 	0x3d
40003b5c:	0000003d 	0x3d
40003b60:	0000003d 	0x3d
40003b64:	0000003d 	0x3d
40003b68:	0000003d 	0x3d
40003b6c:	0000003c 	0x3c
40003b70:	0000003c 	0x3c
40003b74:	0000003c 	0x3c
40003b78:	0000003c 	0x3c
40003b7c:	0000003c 	0x3c
40003b80:	0000003c 	0x3c
40003b84:	0000003c 	0x3c
40003b88:	0000003c 	0x3c
40003b8c:	0000003c 	0x3c
40003b90:	0000003b 	0x3b
40003b94:	0000003b 	0x3b
40003b98:	0000003b 	0x3b
40003b9c:	0000003b 	0x3b
40003ba0:	0000003b 	0x3b
40003ba4:	0000003b 	0x3b
40003ba8:	0000003b 	0x3b
40003bac:	0000003b 	0x3b
40003bb0:	0000003b 	0x3b
40003bb4:	0000003b 	0x3b
40003bb8:	0000003b 	0x3b
40003bbc:	0000003b 	0x3b
40003bc0:	0000003b 	0x3b
40003bc4:	0000003b 	0x3b
40003bc8:	0000003b 	0x3b
40003bcc:	0000003b 	0x3b
40003bd0:	0000003b 	0x3b
40003bd4:	0000003b 	0x3b
40003bd8:	0000003b 	0x3b
40003bdc:	0000003b 	0x3b
40003be0:	0000003b 	0x3b
40003be4:	0000003b 	0x3b
40003be8:	0000003b 	0x3b
40003bec:	0000003c 	0x3c
40003bf0:	0000003c 	0x3c
40003bf4:	0000003c 	0x3c
40003bf8:	0000003c 	0x3c
40003bfc:	0000003c 	0x3c
40003c00:	0000003c 	0x3c
40003c04:	0000003c 	0x3c
40003c08:	0000003c 	0x3c

40003c0c <test_compressed>:
40003c0c:	000000fd 	0xfd
40003c10:	000000de 	0xde
40003c14:	00000077 	0x77
40003c18:	000000ba 	0xba
40003c1c:	000000f4 	0xf4
40003c20:	00000092 	0x92
40003c24:	00000020 	add	zero,zero,zero
40003c28:	000000a0 	0xa0
40003c2c:	000000ec 	0xec
40003c30:	000000ed 	0xed
40003c34:	000000ee 	0xee
40003c38:	000000f0 	0xf0
40003c3c:	000000f1 	0xf1
40003c40:	000000f1 	0xf1
40003c44:	000000f2 	0xf2
40003c48:	000000f3 	0xf3
40003c4c:	000000f4 	0xf4
40003c50:	000000f3 	0xf3
40003c54:	000000f4 	0xf4
40003c58:	000000f5 	0xf5
40003c5c:	000000f4 	0xf4
40003c60:	000000f4 	0xf4
40003c64:	000000f5 	0xf5
40003c68:	000000f5 	0xf5
40003c6c:	000000f5 	0xf5
40003c70:	000000f6 	0xf6
40003c74:	000000f6 	0xf6
40003c78:	000000f7 	0xf7
40003c7c:	000000f7 	0xf7
40003c80:	000000f7 	0xf7
40003c84:	000000f7 	0xf7
40003c88:	000000f8 	0xf8
40003c8c:	000000f6 	0xf6
40003c90:	000000f7 	0xf7
40003c94:	000000f9 	0xf9
40003c98:	000000f7 	0xf7
40003c9c:	000000f8 	0xf8
40003ca0:	000000f7 	0xf7
40003ca4:	000000f8 	0xf8
40003ca8:	000000f7 	0xf7
40003cac:	000000f8 	0xf8
40003cb0:	000000f7 	0xf7
40003cb4:	000000f8 	0xf8
40003cb8:	000000f7 	0xf7
40003cbc:	000000f8 	0xf8
40003cc0:	000000f8 	0xf8
40003cc4:	000000f6 	0xf6
40003cc8:	000000f8 	0xf8
40003ccc:	000000f7 	0xf7
40003cd0:	000000f8 	0xf8
	...

40003d9c <test_result>:
40003d9c:	00000000 	nop
40003da0:	ffffffff 	0xffffffff
40003da4:	ffffffff 	0xffffffff
	...
40003db0:	ffffffff 	0xffffffff
	...
40003dbc:	ffffffff 	0xffffffff
40003dc0:	ffffffff 	0xffffffff
	...
40003dcc:	00000001 	0x1
40003dd0:	00000001 	0x1
40003dd4:	00000000 	nop
40003dd8:	fffffffe 	0xfffffffe
40003ddc:	ffffffff 	0xffffffff
40003de0:	fffffffe 	0xfffffffe
40003de4:	00000000 	nop
40003de8:	fffffffd 	0xfffffffd
40003dec:	00000001 	0x1
	...
40003df8:	fffffffc 	0xfffffffc
40003dfc:	00000001 	0x1
40003e00:	00000001 	0x1
40003e04:	00000002 	srl	zero,zero,0x0
40003e08:	0000000b 	0xb
40003e0c:	00000014 	0x14
40003e10:	00000012 	mflo	zero
40003e14:	00000014 	0x14
40003e18:	00000016 	0x16
40003e1c:	0000001c 	0x1c
40003e20:	0000001b 	divu	zero,zero,zero
40003e24:	0000001f 	0x1f
40003e28:	0000001f 	0x1f
40003e2c:	00000022 	neg	zero,zero
40003e30:	0000001f 	0x1f
40003e34:	00000022 	neg	zero,zero
40003e38:	00000022 	neg	zero,zero
40003e3c:	00000026 	xor	zero,zero,zero
40003e40:	00000025 	move	zero,zero
40003e44:	0000002a 	slt	zero,zero,zero
40003e48:	0000002a 	slt	zero,zero,zero
40003e4c:	0000002c 	0x2c
40003e50:	00000029 	0x29
40003e54:	0000002b 	sltu	zero,zero,zero
40003e58:	0000002a 	slt	zero,zero,zero
40003e5c:	0000002f 	0x2f
40003e60:	0000002d 	0x2d
40003e64:	0000002f 	0x2f
40003e68:	0000002c 	0x2c
40003e6c:	0000002d 	0x2d
40003e70:	0000002b 	sltu	zero,zero,zero
40003e74:	0000002e 	0x2e
40003e78:	0000002d 	0x2d
40003e7c:	00000030 	0x30
40003e80:	0000002e 	0x2e
40003e84:	00000031 	0x31
40003e88:	00000030 	0x30
40003e8c:	00000033 	0x33
40003e90:	00000031 	0x31
40003e94:	00000034 	0x34
40003e98:	00000034 	0x34
40003e9c:	00000037 	0x37
40003ea0:	00000035 	0x35
40003ea4:	00000038 	0x38
40003ea8:	00000037 	0x37
40003eac:	0000003a 	0x3a
40003eb0:	00000039 	0x39
40003eb4:	0000003b 	0x3b
40003eb8:	00000039 	0x39
40003ebc:	0000003c 	0x3c
40003ec0:	0000003c 	0x3c
40003ec4:	0000003c 	0x3c
40003ec8:	00000036 	0x36
40003ecc:	00000036 	0x36
40003ed0:	00000035 	0x35
40003ed4:	0000003c 	0x3c
40003ed8:	0000003e 	0x3e
40003edc:	0000003e 	0x3e
40003ee0:	00000036 	0x36
40003ee4:	00000037 	0x37
40003ee8:	00000038 	0x38
40003eec:	0000003b 	0x3b
40003ef0:	00000035 	0x35
40003ef4:	00000036 	0x36
40003ef8:	00000038 	0x38
40003efc:	0000003b 	0x3b
40003f00:	00000035 	0x35
40003f04:	00000038 	0x38
40003f08:	0000003a 	0x3a
40003f0c:	0000003b 	0x3b
40003f10:	00000035 	0x35
40003f14:	00000038 	0x38
40003f18:	0000003a 	0x3a
40003f1c:	0000003c 	0x3c
40003f20:	00000036 	0x36
40003f24:	00000037 	0x37
40003f28:	00000039 	0x39
40003f2c:	40002bb0 	0x40002bb0
40003f30:	40002a20 	0x40002a20
40003f34:	40003530 	0x40003530
40003f38:	40003530 	0x40003530
40003f3c:	40003530 	0x40003530
40003f40:	400031f4 	0x400031f4
40003f44:	40003530 	0x40003530
40003f48:	40003530 	0x40003530
40003f4c:	40003530 	0x40003530
40003f50:	40002e10 	0x40002e10

Disassembly of section .rodata.cst16:

40003f54 <qq2_code2_table>:
40003f54:	ffffe310 	0xffffe310
40003f58:	fffff9b0 	0xfffff9b0
40003f5c:	00001cf0 	0x1cf0
40003f60:	00000650 	0x650

40003f64 <wh_code_table>:
40003f64:	0000031e 	0x31e
40003f68:	ffffff2a 	0xffffff2a
40003f6c:	0000031e 	0x31e
40003f70:	ffffff2a 	0xffffff2a

Disassembly of section .rodata.str1.1:

40003f74 <.rodata.str1.1>:
40003f74:	75736552 	jalx	45cd9548 <__stack_top+0x1cd9548>
40003f78:	203a746c 	addi	k0,at,29804
40003f7c:	000a6425 	0xa6425
40003f80:	55534552 	0x55534552
40003f84:	203a544c 	addi	k0,at,21580
40003f88:	53534150 	0x53534150
40003f8c:	4552000a 	0x4552000a
40003f90:	544c5553 	0x544c5553
40003f94:	4146203a 	0x4146203a
40003f98:	000a4c49 	0xa4c49
40003f9c:	72700030 	0x72700030
40003fa0:	6172676f 	0x6172676f
40003fa4:	6572206d 	0x6572206d
40003fa8:	6e727574 	0x6e727574
40003fac:	25206465 	addiu	zero,t1,25701
40003fb0:	78652064 	0x78652064
40003fb4:	73207469 	0x73207469
40003fb8:	75746174 	jalx	45d185d0 <__stack_top+0x1d185d0>
40003fbc:	Address 0x0000000040003fbc is out of bounds.


Disassembly of section .eh_frame:

40003fc0 <.eh_frame>:
40003fc0:	00000010 	mfhi	zero
40003fc4:	00000000 	nop
40003fc8:	00527a01 	0x527a01
40003fcc:	011f7c01 	0x11f7c01
40003fd0:	001d0d0b 	0x1d0d0b
40003fd4:	00000010 	mfhi	zero
40003fd8:	00000018 	mult	zero,zero
40003fdc:	400019d4 	0x400019d4
40003fe0:	00000234 	0x234
40003fe4:	00000000 	nop
40003fe8:	00000024 	and	zero,zero,zero
40003fec:	0000002c 	0x2c
40003ff0:	40000020 	0x40000020
40003ff4:	000019b4 	0x19b4
40003ff8:	b80e4400 	swr	t6,17408(zero)
40003ffc:	019f6402 	0x19f6402
40004000:	03960297 	0x3960297
40004004:	05940495 	0x5940495
40004008:	07920693 	0x7920693
4000400c:	09900891 	j	46402244 <__stack_top+0x2402244>
40004010:	00000010 	mfhi	zero
40004014:	00000054 	0x54
40004018:	40001c4c 	0x40001c4c
4000401c:	00000038 	0x38
40004020:	00000000 	nop
40004024:	00000010 	mfhi	zero
40004028:	00000068 	0x68
4000402c:	40001c84 	0x40001c84
40004030:	00000068 	0x68
40004034:	00000000 	nop
40004038:	00000010 	mfhi	zero
4000403c:	0000007c 	0x7c
40004040:	40001cec 	0x40001cec
40004044:	00000030 	0x30
40004048:	00000000 	nop
4000404c:	00000010 	mfhi	zero
40004050:	00000090 	0x90
40004054:	40001d1c 	0x40001d1c
40004058:	00000030 	0x30
4000405c:	00000000 	nop
40004060:	00000020 	add	zero,zero,zero
40004064:	000000a4 	0xa4
40004068:	40001d4c 	0x40001d4c
4000406c:	0000011c 	0x11c
40004070:	380e4400 	xori	t6,zero,0x4400
40004074:	94019f58 	lhu	at,-24744(zero)
40004078:	92039302 	lbu	v1,-27902(s0)
4000407c:	90059104 	lbu	a1,-28412(zero)
40004080:	00000006 	srlv	zero,zero,zero
40004084:	00000020 	add	zero,zero,zero
40004088:	000000c8 	0xc8
4000408c:	40001e68 	0x40001e68
40004090:	0000014c 	syscall	0x5
40004094:	400e4400 	0x400e4400
40004098:	95019f5c 	lhu	at,-24740(t0)
4000409c:	93039402 	lbu	v1,-27646(t8)
400040a0:	91059204 	lbu	a1,-28156(t0)
400040a4:	00079006 	srlv	s2,a3,zero
400040a8:	00000024 	and	zero,zero,zero
400040ac:	000000ec 	0xec
400040b0:	40001fb4 	0x40001fb4
400040b4:	00000438 	0x438
400040b8:	280e4400 	slti	t6,zero,17408
400040bc:	96019760 	lhu	at,-26784(s0)
400040c0:	94039502 	lhu	v1,-27390(zero)
400040c4:	92059304 	lbu	a1,-27900(s0)
400040c8:	90079106 	lbu	a3,-28410(zero)
400040cc:	00000008 	jr	zero
400040d0:	00000020 	add	zero,zero,zero
400040d4:	00000114 	0x114
400040d8:	400023ec 	0x400023ec
400040dc:	00000334 	0x334
400040e0:	180e4400 	0x180e4400
400040e4:	94019558 	lhu	at,-27304(zero)
400040e8:	92039302 	lbu	v1,-27902(s0)
400040ec:	90059104 	lbu	a1,-28412(zero)
400040f0:	00000006 	srlv	zero,zero,zero
400040f4:	00000010 	mfhi	zero
400040f8:	00000138 	0x138
400040fc:	40002720 	0x40002720
40004100:	00000108 	0x108
40004104:	00000000 	nop
40004108:	0000001c 	0x1c
4000410c:	0000014c 	syscall	0x5
40004110:	40002828 	0x40002828
40004114:	00000e50 	0xe50
40004118:	480e4400 	0x480e4400
4000411c:	93019f54 	lbu	at,-24748(t8)
40004120:	91039202 	lbu	v1,-28158(t0)
40004124:	00059004 	sllv	s2,a1,zero
40004128:	00000014 	0x14
4000412c:	0000016c 	0x16c
40004130:	40003678 	0x40003678
40004134:	00000028 	0x28
40004138:	180e4400 	0x180e4400
4000413c:	00019f44 	0x19f44
40004140:	00000010 	mfhi	zero
40004144:	00000184 	0x184
40004148:	400036a0 	0x400036a0
4000414c:	00000030 	0x30
40004150:	00000000 	nop
40004154:	00000010 	mfhi	zero
40004158:	00000198 	0x198
4000415c:	400036d0 	0x400036d0
40004160:	0000003c 	0x3c
40004164:	00000000 	nop

Disassembly of section .bss:

40004168 <tqmf>:
	...

400041c8 <delay_bpl>:
	...

400041e0 <delay_dltx>:
	...

400041f8 <delay_bph>:
	...

40004210 <delay_dhx>:
	...

40004228 <dec_del_bpl>:
	...

40004240 <dec_del_dltx>:
	...

40004258 <dec_del_bph>:
	...

40004270 <dec_del_dhx>:
	...

40004288 <compressed>:
	...

40004418 <result>:
	...

400045a8 <i2h.hex>:
	...

400045b1 <l2h.hex>:
	...

400045c2 <itoa.buf>:
	...

400045cd <itoa.out>:
	...

400045d8 <utoa.buf>:
	...

400045e3 <utoa.out>:
	...

Disassembly of section .reginfo:

00000000 <.reginfo>:
   0:	a0000000 	sb	zero,0(zero)
	...

Disassembly of section .pdr:

00000000 <.pdr>:
   0:	400019d4 	0x400019d4
	...
  18:	0000001d 	0x1d
  1c:	0000001f 	0x1f
  20:	40000020 	0x40000020
  24:	80ff0000 	lb	ra,0(a3)
  28:	fffffffc 	0xfffffffc
	...
  34:	00000138 	0x138
  38:	0000001d 	0x1d
  3c:	0000001f 	0x1f
  40:	40001c08 	0x40001c08
	...
  58:	0000001d 	0x1d
  5c:	0000001f 	0x1f
  60:	40001c24 	0x40001c24
	...
  78:	0000001d 	0x1d
  7c:	0000001f 	0x1f
  80:	40001c4c 	0x40001c4c
	...
  98:	0000001d 	0x1d
  9c:	0000001f 	0x1f
  a0:	40001c84 	0x40001c84
	...
  b8:	0000001d 	0x1d
  bc:	0000001f 	0x1f
  c0:	40001cec 	0x40001cec
	...
  d8:	0000001d 	0x1d
  dc:	0000001f 	0x1f
  e0:	40001d1c 	0x40001d1c
	...
  f8:	0000001d 	0x1d
  fc:	0000001f 	0x1f
 100:	40001d4c 	0x40001d4c
 104:	801f0000 	lb	ra,0(zero)
 108:	fffffffc 	0xfffffffc
	...
 114:	00000038 	0x38
 118:	0000001d 	0x1d
 11c:	0000001f 	0x1f
 120:	40001e68 	0x40001e68
 124:	803f0000 	lb	ra,0(at)
 128:	fffffffc 	0xfffffffc
	...
 134:	00000040 	ssnop
 138:	0000001d 	0x1d
 13c:	0000001f 	0x1f
 140:	40001fb4 	0x40001fb4
 144:	00ff0000 	0xff0000
 148:	fffffffc 	0xfffffffc
	...
 154:	00000028 	0x28
 158:	0000001d 	0x1d
 15c:	0000001f 	0x1f
 160:	400023ec 	0x400023ec
 164:	003f0000 	0x3f0000
 168:	fffffffc 	0xfffffffc
	...
 174:	00000018 	mult	zero,zero
 178:	0000001d 	0x1d
 17c:	0000001f 	0x1f
 180:	40002720 	0x40002720
	...
 198:	0000001d 	0x1d
 19c:	0000001f 	0x1f
 1a0:	40002828 	0x40002828
 1a4:	800f0000 	lb	t7,0(zero)
 1a8:	fffffffc 	0xfffffffc
	...
 1b4:	00000048 	0x48
 1b8:	0000001d 	0x1d
 1bc:	0000001f 	0x1f
 1c0:	40003678 	0x40003678
 1c4:	80000000 	lb	zero,0(zero)
 1c8:	fffffffc 	0xfffffffc
	...
 1d4:	00000018 	mult	zero,zero
 1d8:	0000001d 	0x1d
 1dc:	0000001f 	0x1f
 1e0:	400036a0 	0x400036a0
	...
 1f8:	0000001d 	0x1d
 1fc:	0000001f 	0x1f
 200:	400036d0 	0x400036d0
	...
 218:	0000001d 	0x1d
 21c:	0000001f 	0x1f

Disassembly of section .comment:

00000000 <.comment>:
   0:	3a434347 	xori	v1,s2,0x4347
   4:	72632820 	0x72632820
   8:	7473736f 	jalx	1cdcdbc <mem_size-0x2323244>
   c:	2d6c6f6f 	sltiu	t4,t3,28527
  10:	3120474e 	andi	zero,t1,0x474e
  14:	2e30322e 	sltiu	s0,s1,12846
  18:	34202930 	ori	zero,at,0x2930
  1c:	322e382e 	andi	t6,s1,0x382e
	...

Disassembly of section .gnu.attributes:

00000000 <.gnu.attributes>:
   0:	00000f41 	0xf41
   4:	756e6700 	jalx	5b99c00 <mem_size+0x1b99c00>
   8:	00070100 	sll	zero,a3,0x4
   c:	03040000 	0x3040000
