
output/_mpeg2.MIPSI.elf:     file format elf32-littlemips


Disassembly of section .text:

40000000 <mips_startup>:
40000000:	3c1d4400 	lui	sp,0x4400
40000004:	0c000008 	jal	40000020 <main>
40000008:	27bd0000 	addiu	sp,sp,0

4000000c <__end_loop>:
	...
40000018:	1000fffc 	b	4000000c <__end_loop>
4000001c:	00000000 	nop

40000020 <main>:
40000020:	27bdffe0 	addiu	sp,sp,-32
40000024:	afbf001c 	sw	ra,28(sp)
40000028:	afb20018 	sw	s2,24(sp)
4000002c:	afb10014 	sw	s1,20(sp)
40000030:	afb00010 	sw	s0,16(sp)
40000034:	3c024000 	lui	v0,0x4000
40000038:	24423420 	addiu	v0,v0,13344
4000003c:	3c030410 	lui	v1,0x410
40000040:	24420800 	addiu	v0,v0,2048
40000044:	3c054000 	lui	a1,0x4000
40000048:	34630000 	ori	v1,v1,0x0
4000004c:	3c044000 	lui	a0,0x4000
40000050:	aca23c68 	sw	v0,15464(a1)
40000054:	24020000 	li	v0,0
40000058:	3c054000 	lui	a1,0x4000
4000005c:	ac833c6c 	sw	v1,15468(a0)
40000060:	aca03c70 	sw	zero,15472(a1)
40000064:	3c044000 	lui	a0,0x4000
40000068:	3c034000 	lui	v1,0x4000
4000006c:	248429ec 	addiu	a0,a0,10732
40000070:	00822823 	subu	a1,a0,v0
40000074:	24643420 	addiu	a0,v1,13344
40000078:	2443ffff 	addiu	v1,v0,-1
4000007c:	90a50000 	lbu	a1,0(a1)
40000080:	00000000 	nop
40000084:	00821023 	subu	v0,a0,v0
40000088:	2404f800 	li	a0,-2048
4000008c:	a0450000 	sb	a1,0(v0)
40000090:	00031021 	addu	v0,zero,v1
40000094:	1464fff3 	bne	v1,a0,40000064 <main+0x44>
40000098:	00000000 	nop
4000009c:	3c034000 	lui	v1,0x4000
400000a0:	24623420 	addiu	v0,v1,13344
400000a4:	90653420 	lbu	a1,13344(v1)
400000a8:	00000000 	nop
400000ac:	90440001 	lbu	a0,1(v0)
400000b0:	00000000 	nop
400000b4:	90430002 	lbu	v1,2(v0)
400000b8:	00000000 	nop
400000bc:	00052e00 	sll	a1,a1,0x18
400000c0:	00042400 	sll	a0,a0,0x10
400000c4:	00a42025 	or	a0,a1,a0
400000c8:	00032a00 	sll	a1,v1,0x8
400000cc:	90430003 	lbu	v1,3(v0)
400000d0:	00000000 	nop
400000d4:	00852825 	or	a1,a0,a1
400000d8:	3c040410 	lui	a0,0x410
400000dc:	00a31825 	or	v1,a1,v1
400000e0:	34840000 	ori	a0,a0,0x0
400000e4:	00648825 	or	s1,v1,a0
400000e8:	24440004 	addiu	a0,v0,4
400000ec:	3c054000 	lui	a1,0x4000
400000f0:	00111040 	sll	v0,s1,0x1
400000f4:	3c034000 	lui	v1,0x4000
400000f8:	aca43c68 	sw	a0,15464(a1)
400000fc:	2404001f 	li	a0,31
40000100:	3c054000 	lui	a1,0x4000
40000104:	ac623c6c 	sw	v0,15468(v1)
40000108:	aca43c70 	sw	a0,15472(a1)
4000010c:	0c0000fa 	jal	400003e8 <Get_motion_code>
40000110:	00000000 	nop
40000114:	00028021 	addu	s0,zero,v0
40000118:	00118fc2 	srl	s1,s1,0x1f
4000011c:	16000004 	bnez	s0,40000130 <main+0x110>
40000120:	00000000 	nop
40000124:	2412002d 	li	s2,45
40000128:	08000063 	j	4000018c <main+0x16c>
4000012c:	00000000 	nop
40000130:	0c0000ae 	jal	400002b8 <Get_Bits>
40000134:	00000000 	nop
40000138:	2a030001 	slti	v1,s0,1
4000013c:	1460000a 	bnez	v1,40000168 <main+0x148>
40000140:	00000000 	nop
40000144:	00101a00 	sll	v1,s0,0x8
40000148:	00621021 	addu	v0,v1,v0
4000014c:	2452ff2e 	addiu	s2,v0,-210
40000150:	2a431000 	slti	v1,s2,4096
40000154:	1460000d 	bnez	v1,4000018c <main+0x16c>
40000158:	00000000 	nop
4000015c:	2452df2e 	addiu	s2,v0,-8402
40000160:	08000063 	j	4000018c <main+0x16c>
40000164:	00000000 	nop
40000168:	02001827 	nor	v1,s0,zero
4000016c:	00401027 	nor	v0,v0,zero
40000170:	00031a00 	sll	v1,v1,0x8
40000174:	00431023 	subu	v0,v0,v1
40000178:	2452002d 	addiu	s2,v0,45
4000017c:	2a43f000 	slti	v1,s2,-4096
40000180:	10600002 	beqz	v1,4000018c <main+0x16c>
40000184:	00000000 	nop
40000188:	2452202d 	addiu	s2,v0,8237
4000018c:	0c0000fa 	jal	400003e8 <Get_motion_code>
40000190:	00000000 	nop
40000194:	00028021 	addu	s0,zero,v0
40000198:	16000004 	bnez	s0,400001ac <main+0x18c>
4000019c:	00000000 	nop
400001a0:	24020067 	li	v0,103
400001a4:	08000082 	j	40000208 <main+0x1e8>
400001a8:	00000000 	nop
400001ac:	0c0000ae 	jal	400002b8 <Get_Bits>
400001b0:	00000000 	nop
400001b4:	2a030001 	slti	v1,s0,1
400001b8:	1460000a 	bnez	v1,400001e4 <main+0x1c4>
400001bc:	00000000 	nop
400001c0:	00101a00 	sll	v1,s0,0x8
400001c4:	00621821 	addu	v1,v1,v0
400001c8:	2462ff68 	addiu	v0,v1,-152
400001cc:	28441000 	slti	a0,v0,4096
400001d0:	1480000d 	bnez	a0,40000208 <main+0x1e8>
400001d4:	00000000 	nop
400001d8:	2462df68 	addiu	v0,v1,-8344
400001dc:	08000082 	j	40000208 <main+0x1e8>
400001e0:	00000000 	nop
400001e4:	02001827 	nor	v1,s0,zero
400001e8:	00401027 	nor	v0,v0,zero
400001ec:	00031a00 	sll	v1,v1,0x8
400001f0:	00431823 	subu	v1,v0,v1
400001f4:	24620067 	addiu	v0,v1,103
400001f8:	2844f000 	slti	a0,v0,-4096
400001fc:	10800002 	beqz	a0,40000208 <main+0x1e8>
40000200:	00000000 	nop
40000204:	24622067 	addiu	v0,v1,8295
40000208:	24030000 	li	v1,0
4000020c:	2404061e 	li	a0,1566
40000210:	02231826 	xor	v1,s1,v1
40000214:	02442026 	xor	a0,s2,a0
40000218:	00021040 	sll	v0,v0,0x1
4000021c:	240500ce 	li	a1,206
40000220:	00452826 	xor	a1,v0,a1
40000224:	2c630001 	sltiu	v1,v1,1
40000228:	2c820001 	sltiu	v0,a0,1
4000022c:	00433021 	addu	a2,v0,v1
40000230:	2ca40001 	sltiu	a0,a1,1
40000234:	00862821 	addu	a1,a0,a2
40000238:	00a31821 	addu	v1,a1,v1
4000023c:	00621021 	addu	v0,v1,v0
40000240:	00441821 	addu	v1,v0,a0
40000244:	3c024000 	lui	v0,0x4000
40000248:	24700006 	addiu	s0,v1,6
4000024c:	2444324c 	addiu	a0,v0,12876
40000250:	2411000c 	li	s1,12
40000254:	00102821 	addu	a1,zero,s0
40000258:	0c0006dd 	jal	40001b74 <printf>
4000025c:	00000000 	nop
40000260:	16110005 	bne	s0,s1,40000278 <main+0x258>
40000264:	00000000 	nop
40000268:	3c024000 	lui	v0,0x4000
4000026c:	24443257 	addiu	a0,v0,12887
40000270:	080000a0 	j	40000280 <main+0x260>
40000274:	00000000 	nop
40000278:	3c024000 	lui	v0,0x4000
4000027c:	24443264 	addiu	a0,v0,12900
40000280:	0c0006dd 	jal	40001b74 <printf>
40000284:	00000000 	nop
40000288:	00101021 	addu	v0,zero,s0
4000028c:	8fb00010 	lw	s0,16(sp)
40000290:	00000000 	nop
40000294:	8fb10014 	lw	s1,20(sp)
40000298:	00000000 	nop
4000029c:	8fb20018 	lw	s2,24(sp)
400002a0:	00000000 	nop
400002a4:	8fbf001c 	lw	ra,28(sp)
400002a8:	00000000 	nop
400002ac:	27bd0020 	addiu	sp,sp,32
400002b0:	03e00008 	jr	ra
400002b4:	00000000 	nop

400002b8 <Get_Bits>:
400002b8:	3c024000 	lui	v0,0x4000
400002bc:	24423c6c 	addiu	v0,v0,15468
400002c0:	90420003 	lbu	v0,3(v0)
400002c4:	00000000 	nop
400002c8:	3c054000 	lui	a1,0x4000
400002cc:	8ca33c70 	lw	v1,15472(a1)
400002d0:	00000000 	nop
400002d4:	2464ff38 	addiu	a0,v1,-200
400002d8:	24060018 	li	a2,24
400002dc:	00c4302a 	slt	a2,a2,a0
400002e0:	aca43c70 	sw	a0,15472(a1)
400002e4:	14c00031 	bnez	a2,400003ac <Get_Bits+0xf4>
400002e8:	00000000 	nop
400002ec:	3c054000 	lui	a1,0x4000
400002f0:	24a63420 	addiu	a2,a1,13344
400002f4:	3c054000 	lui	a1,0x4000
400002f8:	240700e0 	li	a3,224
400002fc:	8ca53c68 	lw	a1,15464(a1)
40000300:	00000000 	nop
40000304:	24c807fc 	addiu	t0,a2,2044
40000308:	00e33023 	subu	a2,a3,v1
4000030c:	00a8382b 	sltu	a3,a1,t0
40000310:	14e00028 	bnez	a3,400003b4 <Get_Bits+0xfc>
40000314:	00000000 	nop
40000318:	2407fff8 	li	a3,-8
4000031c:	00c73024 	and	a2,a2,a3
40000320:	3c074000 	lui	a3,0x4000
40000324:	24e73420 	addiu	a3,a3,13344
40000328:	24e70800 	addiu	a3,a3,2048
4000032c:	00a7382b 	sltu	a3,a1,a3
40000330:	14e00010 	bnez	a3,40000374 <Get_Bits+0xbc>
40000334:	00000000 	nop
40000338:	24070000 	li	a3,0
4000033c:	3c084000 	lui	t0,0x4000
40000340:	3c054000 	lui	a1,0x4000
40000344:	250829ec 	addiu	t0,t0,10732
40000348:	24a53420 	addiu	a1,a1,13344
4000034c:	01074823 	subu	t1,t0,a3
40000350:	24e8ffff 	addiu	t0,a3,-1
40000354:	912a0000 	lbu	t2,0(t1)
40000358:	00000000 	nop
4000035c:	00a73823 	subu	a3,a1,a3
40000360:	2409f800 	li	t1,-2048
40000364:	a0ea0000 	sb	t2,0(a3)
40000368:	00083821 	addu	a3,zero,t0
4000036c:	1509fff3 	bne	t0,t1,4000033c <Get_Bits+0x84>
40000370:	00000000 	nop
40000374:	24840008 	addiu	a0,a0,8
40000378:	24a50001 	addiu	a1,a1,1
4000037c:	28870019 	slti	a3,a0,25
40000380:	14e0ffe7 	bnez	a3,40000320 <Get_Bits+0x68>
40000384:	00000000 	nop
40000388:	00661821 	addu	v1,v1,a2
4000038c:	3c044000 	lui	a0,0x4000
40000390:	2463ff40 	addiu	v1,v1,-192
40000394:	2406ffff 	li	a2,-1
40000398:	3c074000 	lui	a3,0x4000
4000039c:	ac853c68 	sw	a1,15464(a0)
400003a0:	ace63c6c 	sw	a2,15468(a3)
400003a4:	3c044000 	lui	a0,0x4000
400003a8:	ac833c70 	sw	v1,15472(a0)
400003ac:	03e00008 	jr	ra
400003b0:	00000000 	nop
400003b4:	2407fff8 	li	a3,-8
400003b8:	000620c2 	srl	a0,a2,0x3
400003bc:	00852021 	addu	a0,a0,a1
400003c0:	00c72824 	and	a1,a2,a3
400003c4:	00651821 	addu	v1,v1,a1
400003c8:	24840001 	addiu	a0,a0,1
400003cc:	3c054000 	lui	a1,0x4000
400003d0:	2463ff40 	addiu	v1,v1,-192
400003d4:	2406ffff 	li	a2,-1
400003d8:	3c074000 	lui	a3,0x4000
400003dc:	aca43c68 	sw	a0,15464(a1)
400003e0:	080000e8 	j	400003a0 <Get_Bits+0xe8>
400003e4:	00000000 	nop

400003e8 <Get_motion_code>:
400003e8:	3c034000 	lui	v1,0x4000
400003ec:	8c643c6c 	lw	a0,15468(v1)
400003f0:	00000000 	nop
400003f4:	00041040 	sll	v0,a0,0x1
400003f8:	3c054000 	lui	a1,0x4000
400003fc:	ac623c6c 	sw	v0,15468(v1)
40000400:	8ca73c70 	lw	a3,15472(a1)
40000404:	00000000 	nop
40000408:	24e3ffff 	addiu	v1,a3,-1
4000040c:	24060019 	li	a2,25
40000410:	00c7302a 	slt	a2,a2,a3
40000414:	aca33c70 	sw	v1,15472(a1)
40000418:	14c00056 	bnez	a2,40000574 <Get_motion_code+0x18c>
4000041c:	00000000 	nop
40000420:	3c054000 	lui	a1,0x4000
40000424:	24a53420 	addiu	a1,a1,13344
40000428:	3c064000 	lui	a2,0x4000
4000042c:	24080019 	li	t0,25
40000430:	8cc63c68 	lw	a2,15464(a2)
40000434:	00000000 	nop
40000438:	24a907fc 	addiu	t1,a1,2044
4000043c:	01072823 	subu	a1,t0,a3
40000440:	00c9402b 	sltu	t0,a2,t1
40000444:	1500002b 	bnez	t0,400004f4 <Get_motion_code+0x10c>
40000448:	00000000 	nop
4000044c:	24080019 	li	t0,25
40000450:	01074023 	subu	t0,t0,a3
40000454:	3c094000 	lui	t1,0x4000
40000458:	25293420 	addiu	t1,t1,13344
4000045c:	25290800 	addiu	t1,t1,2048
40000460:	00c9482b 	sltu	t1,a2,t1
40000464:	15200010 	bnez	t1,400004a8 <Get_motion_code+0xc0>
40000468:	00000000 	nop
4000046c:	24090000 	li	t1,0
40000470:	3c0a4000 	lui	t2,0x4000
40000474:	3c064000 	lui	a2,0x4000
40000478:	254a29ec 	addiu	t2,t2,10732
4000047c:	24c63420 	addiu	a2,a2,13344
40000480:	01495823 	subu	t3,t2,t1
40000484:	252affff 	addiu	t2,t1,-1
40000488:	916c0000 	lbu	t4,0(t3)
4000048c:	00000000 	nop
40000490:	00c94823 	subu	t1,a2,t1
40000494:	240bf800 	li	t3,-2048
40000498:	a12c0000 	sb	t4,0(t1)
4000049c:	000a4821 	addu	t1,zero,t2
400004a0:	154bfff3 	bne	t2,t3,40000470 <Get_motion_code+0x88>
400004a4:	00000000 	nop
400004a8:	90c90000 	lbu	t1,0(a2)
400004ac:	00000000 	nop
400004b0:	01094804 	sllv	t1,t1,t0
400004b4:	24630008 	addiu	v1,v1,8
400004b8:	24c60001 	addiu	a2,a2,1
400004bc:	01221025 	or	v0,t1,v0
400004c0:	2508fff8 	addiu	t0,t0,-8
400004c4:	28690019 	slti	t1,v1,25
400004c8:	1520ffe2 	bnez	t1,40000454 <Get_motion_code+0x6c>
400004cc:	00000000 	nop
400004d0:	2403fff8 	li	v1,-8
400004d4:	00a31824 	and	v1,a1,v1
400004d8:	00e31821 	addu	v1,a3,v1
400004dc:	3c054000 	lui	a1,0x4000
400004e0:	24630007 	addiu	v1,v1,7
400004e4:	3c074000 	lui	a3,0x4000
400004e8:	aca63c68 	sw	a2,15464(a1)
400004ec:	0800015a 	j	40000568 <Get_motion_code+0x180>
400004f0:	00000000 	nop
400004f4:	24e80007 	addiu	t0,a3,7
400004f8:	240a0019 	li	t2,25
400004fc:	0148582a 	slt	t3,t2,t0
40000500:	000a4821 	addu	t1,zero,t2
40000504:	11600002 	beqz	t3,40000510 <Get_motion_code+0x128>
40000508:	00000000 	nop
4000050c:	00084821 	addu	t1,zero,t0
40000510:	01274823 	subu	t1,t1,a3
40000514:	000948c2 	srl	t1,t1,0x3
40000518:	01473823 	subu	a3,t2,a3
4000051c:	00065021 	addu	t2,zero,a2
40000520:	914b0000 	lbu	t3,0(t2)
40000524:	00000000 	nop
40000528:	00eb5804 	sllv	t3,t3,a3
4000052c:	24630008 	addiu	v1,v1,8
40000530:	254a0001 	addiu	t2,t2,1
40000534:	01621025 	or	v0,t3,v0
40000538:	24e7fff8 	addiu	a3,a3,-8
4000053c:	286b0019 	slti	t3,v1,25
40000540:	1560fff7 	bnez	t3,40000520 <Get_motion_code+0x138>
40000544:	00000000 	nop
40000548:	01263021 	addu	a2,t1,a2
4000054c:	2403fff8 	li	v1,-8
40000550:	00a31824 	and	v1,a1,v1
40000554:	24c50001 	addiu	a1,a2,1
40000558:	3c064000 	lui	a2,0x4000
4000055c:	01031821 	addu	v1,t0,v1
40000560:	3c074000 	lui	a3,0x4000
40000564:	acc53c68 	sw	a1,15464(a2)
40000568:	ace23c6c 	sw	v0,15468(a3)
4000056c:	3c054000 	lui	a1,0x4000
40000570:	aca33c70 	sw	v1,15472(a1)
40000574:	04810004 	bgez	a0,40000588 <Get_motion_code+0x1a0>
40000578:	00000000 	nop
4000057c:	24020000 	li	v0,0
40000580:	03e00008 	jr	ra
40000584:	00000000 	nop
40000588:	3c042000 	lui	a0,0x2000
4000058c:	34840000 	ori	a0,a0,0x0
40000590:	0044202b 	sltu	a0,v0,a0
40000594:	148000cf 	bnez	a0,400008d4 <Get_motion_code+0x4ec>
40000598:	00000000 	nop
4000059c:	3c044000 	lui	a0,0x4000
400005a0:	00022f02 	srl	a1,v0,0x1c
400005a4:	2484322c 	addiu	a0,a0,12844
400005a8:	30a5000e 	andi	a1,a1,0xe
400005ac:	00852021 	addu	a0,a0,a1
400005b0:	80860001 	lb	a2,1(a0)
400005b4:	00000000 	nop
400005b8:	00c22004 	sllv	a0,v0,a2
400005bc:	3c074000 	lui	a3,0x4000
400005c0:	00662823 	subu	a1,v1,a2
400005c4:	24090018 	li	t1,24
400005c8:	3c084000 	lui	t0,0x4000
400005cc:	ace43c6c 	sw	a0,15468(a3)
400005d0:	0125382a 	slt	a3,t1,a1
400005d4:	ad053c70 	sw	a1,15472(t0)
400005d8:	14e00052 	bnez	a3,40000724 <Get_motion_code+0x33c>
400005dc:	00000000 	nop
400005e0:	3c074000 	lui	a3,0x4000
400005e4:	24e83420 	addiu	t0,a3,13344
400005e8:	3c074000 	lui	a3,0x4000
400005ec:	24c90018 	addiu	t1,a2,24
400005f0:	8ce73c68 	lw	a3,15464(a3)
400005f4:	00000000 	nop
400005f8:	250a07fc 	addiu	t2,t0,2044
400005fc:	01234023 	subu	t0,t1,v1
40000600:	00ea482b 	sltu	t1,a3,t2
40000604:	1120001b 	beqz	t1,40000674 <Get_motion_code+0x28c>
40000608:	00000000 	nop
4000060c:	24ca0018 	addiu	t2,a2,24
40000610:	000848c2 	srl	t1,t0,0x3
40000614:	01435023 	subu	t2,t2,v1
40000618:	00075821 	addu	t3,zero,a3
4000061c:	916c0000 	lbu	t4,0(t3)
40000620:	00000000 	nop
40000624:	014c6004 	sllv	t4,t4,t2
40000628:	24a50008 	addiu	a1,a1,8
4000062c:	256b0001 	addiu	t3,t3,1
40000630:	01842025 	or	a0,t4,a0
40000634:	254afff8 	addiu	t2,t2,-8
40000638:	28ac0019 	slti	t4,a1,25
4000063c:	1580fff7 	bnez	t4,4000061c <Get_motion_code+0x234>
40000640:	00000000 	nop
40000644:	01272821 	addu	a1,t1,a3
40000648:	24670008 	addiu	a3,v1,8
4000064c:	2403fff8 	li	v1,-8
40000650:	00e63023 	subu	a2,a3,a2
40000654:	01034024 	and	t0,t0,v1
40000658:	24a30001 	addiu	v1,a1,1
4000065c:	3c074000 	lui	a3,0x4000
40000660:	00c82821 	addu	a1,a2,t0
40000664:	3c064000 	lui	a2,0x4000
40000668:	ace33c68 	sw	v1,15464(a3)
4000066c:	080001c6 	j	40000718 <Get_motion_code+0x330>
40000670:	00000000 	nop
40000674:	240afff8 	li	t2,-8
40000678:	24c90018 	addiu	t1,a2,24
4000067c:	010a4024 	and	t0,t0,t2
40000680:	01234823 	subu	t1,t1,v1
40000684:	3c0a4000 	lui	t2,0x4000
40000688:	254a3420 	addiu	t2,t2,13344
4000068c:	254a0800 	addiu	t2,t2,2048
40000690:	00ea502b 	sltu	t2,a3,t2
40000694:	15400010 	bnez	t2,400006d8 <Get_motion_code+0x2f0>
40000698:	00000000 	nop
4000069c:	240a0000 	li	t2,0
400006a0:	3c0b4000 	lui	t3,0x4000
400006a4:	3c074000 	lui	a3,0x4000
400006a8:	256b29ec 	addiu	t3,t3,10732
400006ac:	24e73420 	addiu	a3,a3,13344
400006b0:	016a6023 	subu	t4,t3,t2
400006b4:	254bffff 	addiu	t3,t2,-1
400006b8:	918d0000 	lbu	t5,0(t4)
400006bc:	00000000 	nop
400006c0:	00ea5023 	subu	t2,a3,t2
400006c4:	240cf800 	li	t4,-2048
400006c8:	a14d0000 	sb	t5,0(t2)
400006cc:	000b5021 	addu	t2,zero,t3
400006d0:	156cfff3 	bne	t3,t4,400006a0 <Get_motion_code+0x2b8>
400006d4:	00000000 	nop
400006d8:	90ea0000 	lbu	t2,0(a3)
400006dc:	00000000 	nop
400006e0:	012a5004 	sllv	t2,t2,t1
400006e4:	24a50008 	addiu	a1,a1,8
400006e8:	24e70001 	addiu	a3,a3,1
400006ec:	01442025 	or	a0,t2,a0
400006f0:	2529fff8 	addiu	t1,t1,-8
400006f4:	28aa0019 	slti	t2,a1,25
400006f8:	1540ffe2 	bnez	t2,40000684 <Get_motion_code+0x29c>
400006fc:	00000000 	nop
40000700:	00681821 	addu	v1,v1,t0
40000704:	24650008 	addiu	a1,v1,8
40000708:	3c034000 	lui	v1,0x4000
4000070c:	00a62823 	subu	a1,a1,a2
40000710:	3c064000 	lui	a2,0x4000
40000714:	ac673c68 	sw	a3,15464(v1)
40000718:	acc43c6c 	sw	a0,15468(a2)
4000071c:	3c034000 	lui	v1,0x4000
40000720:	ac653c70 	sw	a1,15472(v1)
40000724:	00041840 	sll	v1,a0,0x1
40000728:	3c084000 	lui	t0,0x4000
4000072c:	24070019 	li	a3,25
40000730:	24a6ffff 	addiu	a2,a1,-1
40000734:	3c094000 	lui	t1,0x4000
40000738:	ad033c6c 	sw	v1,15468(t0)
4000073c:	00e5382a 	slt	a3,a3,a1
40000740:	ad263c70 	sw	a2,15472(t1)
40000744:	14e00057 	bnez	a3,400008a4 <Get_motion_code+0x4bc>
40000748:	00000000 	nop
4000074c:	3c074000 	lui	a3,0x4000
40000750:	24e73420 	addiu	a3,a3,13344
40000754:	3c084000 	lui	t0,0x4000
40000758:	24090019 	li	t1,25
4000075c:	8d083c68 	lw	t0,15464(t0)
40000760:	00000000 	nop
40000764:	24ea07fc 	addiu	t2,a3,2044
40000768:	01253823 	subu	a3,t1,a1
4000076c:	010a482b 	sltu	t1,t0,t2
40000770:	1520002c 	bnez	t1,40000824 <Get_motion_code+0x43c>
40000774:	00000000 	nop
40000778:	24090019 	li	t1,25
4000077c:	01254823 	subu	t1,t1,a1
40000780:	3c0a4000 	lui	t2,0x4000
40000784:	254a3420 	addiu	t2,t2,13344
40000788:	254a0800 	addiu	t2,t2,2048
4000078c:	010a502b 	sltu	t2,t0,t2
40000790:	15400010 	bnez	t2,400007d4 <Get_motion_code+0x3ec>
40000794:	00000000 	nop
40000798:	240a0000 	li	t2,0
4000079c:	3c0b4000 	lui	t3,0x4000
400007a0:	3c084000 	lui	t0,0x4000
400007a4:	256b29ec 	addiu	t3,t3,10732
400007a8:	25083420 	addiu	t0,t0,13344
400007ac:	016a6023 	subu	t4,t3,t2
400007b0:	254bffff 	addiu	t3,t2,-1
400007b4:	918d0000 	lbu	t5,0(t4)
400007b8:	00000000 	nop
400007bc:	010a5023 	subu	t2,t0,t2
400007c0:	240cf800 	li	t4,-2048
400007c4:	a14d0000 	sb	t5,0(t2)
400007c8:	000b5021 	addu	t2,zero,t3
400007cc:	156cfff3 	bne	t3,t4,4000079c <Get_motion_code+0x3b4>
400007d0:	00000000 	nop
400007d4:	910a0000 	lbu	t2,0(t0)
400007d8:	00000000 	nop
400007dc:	012a5004 	sllv	t2,t2,t1
400007e0:	24c60008 	addiu	a2,a2,8
400007e4:	25080001 	addiu	t0,t0,1
400007e8:	01431825 	or	v1,t2,v1
400007ec:	2529fff8 	addiu	t1,t1,-8
400007f0:	28ca0019 	slti	t2,a2,25
400007f4:	1540ffe2 	bnez	t2,40000780 <Get_motion_code+0x398>
400007f8:	00000000 	nop
400007fc:	2406fff8 	li	a2,-8
40000800:	00e63024 	and	a2,a3,a2
40000804:	00a62821 	addu	a1,a1,a2
40000808:	3c064000 	lui	a2,0x4000
4000080c:	24a50007 	addiu	a1,a1,7
40000810:	3c074000 	lui	a3,0x4000
40000814:	acc83c68 	sw	t0,15464(a2)
40000818:	ace33c6c 	sw	v1,15468(a3)
4000081c:	08000227 	j	4000089c <Get_motion_code+0x4b4>
40000820:	00000000 	nop
40000824:	24a90007 	addiu	t1,a1,7
40000828:	240b0019 	li	t3,25
4000082c:	0169602a 	slt	t4,t3,t1
40000830:	000b5021 	addu	t2,zero,t3
40000834:	11800002 	beqz	t4,40000840 <Get_motion_code+0x458>
40000838:	00000000 	nop
4000083c:	00095021 	addu	t2,zero,t1
40000840:	01455023 	subu	t2,t2,a1
40000844:	000a50c2 	srl	t2,t2,0x3
40000848:	01652823 	subu	a1,t3,a1
4000084c:	00085821 	addu	t3,zero,t0
40000850:	916c0000 	lbu	t4,0(t3)
40000854:	00000000 	nop
40000858:	00ac6004 	sllv	t4,t4,a1
4000085c:	24c60008 	addiu	a2,a2,8
40000860:	256b0001 	addiu	t3,t3,1
40000864:	01831825 	or	v1,t4,v1
40000868:	24a5fff8 	addiu	a1,a1,-8
4000086c:	28cc0019 	slti	t4,a2,25
40000870:	1580fff7 	bnez	t4,40000850 <Get_motion_code+0x468>
40000874:	00000000 	nop
40000878:	01483021 	addu	a2,t2,t0
4000087c:	2405fff8 	li	a1,-8
40000880:	00e52824 	and	a1,a3,a1
40000884:	24c60001 	addiu	a2,a2,1
40000888:	3c074000 	lui	a3,0x4000
4000088c:	01252821 	addu	a1,t1,a1
40000890:	3c084000 	lui	t0,0x4000
40000894:	ace63c68 	sw	a2,15464(a3)
40000898:	ad033c6c 	sw	v1,15468(t0)
4000089c:	3c034000 	lui	v1,0x4000
400008a0:	ac653c70 	sw	a1,15472(v1)
400008a4:	00021742 	srl	v0,v0,0x1d
400008a8:	3c034000 	lui	v1,0x4000
400008ac:	2463322c 	addiu	v1,v1,12844
400008b0:	00021040 	sll	v0,v0,0x1
400008b4:	00621021 	addu	v0,v1,v0
400008b8:	80420000 	lb	v0,0(v0)
400008bc:	00000000 	nop
400008c0:	28830000 	slti	v1,a0,0
400008c4:	1460019f 	bnez	v1,40000f44 <Get_motion_code+0xb5c>
400008c8:	00000000 	nop
400008cc:	080003d3 	j	40000f4c <Get_motion_code+0xb64>
400008d0:	00000000 	nop
400008d4:	3c040c00 	lui	a0,0xc00
400008d8:	34840000 	ori	a0,a0,0x0
400008dc:	0044202b 	sltu	a0,v0,a0
400008e0:	148000c8 	bnez	a0,40000c04 <Get_motion_code+0x81c>
400008e4:	00000000 	nop
400008e8:	3c044000 	lui	a0,0x4000
400008ec:	00022e42 	srl	a1,v0,0x19
400008f0:	2484323c 	addiu	a0,a0,12860
400008f4:	30a5007e 	andi	a1,a1,0x7e
400008f8:	00852021 	addu	a0,a0,a1
400008fc:	80860001 	lb	a2,1(a0)
40000900:	00000000 	nop
40000904:	00c22004 	sllv	a0,v0,a2
40000908:	3c074000 	lui	a3,0x4000
4000090c:	00662823 	subu	a1,v1,a2
40000910:	24090018 	li	t1,24
40000914:	3c084000 	lui	t0,0x4000
40000918:	ace43c6c 	sw	a0,15468(a3)
4000091c:	0125382a 	slt	a3,t1,a1
40000920:	ad053c70 	sw	a1,15472(t0)
40000924:	14e00052 	bnez	a3,40000a70 <Get_motion_code+0x688>
40000928:	00000000 	nop
4000092c:	3c074000 	lui	a3,0x4000
40000930:	24e83420 	addiu	t0,a3,13344
40000934:	3c074000 	lui	a3,0x4000
40000938:	24c90018 	addiu	t1,a2,24
4000093c:	8ce73c68 	lw	a3,15464(a3)
40000940:	00000000 	nop
40000944:	250a07fc 	addiu	t2,t0,2044
40000948:	01234023 	subu	t0,t1,v1
4000094c:	00ea482b 	sltu	t1,a3,t2
40000950:	1120001b 	beqz	t1,400009c0 <Get_motion_code+0x5d8>
40000954:	00000000 	nop
40000958:	24ca0018 	addiu	t2,a2,24
4000095c:	000848c2 	srl	t1,t0,0x3
40000960:	01435023 	subu	t2,t2,v1
40000964:	00075821 	addu	t3,zero,a3
40000968:	916c0000 	lbu	t4,0(t3)
4000096c:	00000000 	nop
40000970:	014c6004 	sllv	t4,t4,t2
40000974:	24a50008 	addiu	a1,a1,8
40000978:	256b0001 	addiu	t3,t3,1
4000097c:	01842025 	or	a0,t4,a0
40000980:	254afff8 	addiu	t2,t2,-8
40000984:	28ac0019 	slti	t4,a1,25
40000988:	1580fff7 	bnez	t4,40000968 <Get_motion_code+0x580>
4000098c:	00000000 	nop
40000990:	01272821 	addu	a1,t1,a3
40000994:	24670008 	addiu	a3,v1,8
40000998:	2403fff8 	li	v1,-8
4000099c:	00e63023 	subu	a2,a3,a2
400009a0:	01034024 	and	t0,t0,v1
400009a4:	24a30001 	addiu	v1,a1,1
400009a8:	3c074000 	lui	a3,0x4000
400009ac:	00c82821 	addu	a1,a2,t0
400009b0:	3c064000 	lui	a2,0x4000
400009b4:	ace33c68 	sw	v1,15464(a3)
400009b8:	08000299 	j	40000a64 <Get_motion_code+0x67c>
400009bc:	00000000 	nop
400009c0:	240afff8 	li	t2,-8
400009c4:	24c90018 	addiu	t1,a2,24
400009c8:	010a4024 	and	t0,t0,t2
400009cc:	01234823 	subu	t1,t1,v1
400009d0:	3c0a4000 	lui	t2,0x4000
400009d4:	254a3420 	addiu	t2,t2,13344
400009d8:	254a0800 	addiu	t2,t2,2048
400009dc:	00ea502b 	sltu	t2,a3,t2
400009e0:	15400010 	bnez	t2,40000a24 <Get_motion_code+0x63c>
400009e4:	00000000 	nop
400009e8:	240a0000 	li	t2,0
400009ec:	3c0b4000 	lui	t3,0x4000
400009f0:	3c074000 	lui	a3,0x4000
400009f4:	256b29ec 	addiu	t3,t3,10732
400009f8:	24e73420 	addiu	a3,a3,13344
400009fc:	016a6023 	subu	t4,t3,t2
40000a00:	254bffff 	addiu	t3,t2,-1
40000a04:	918d0000 	lbu	t5,0(t4)
40000a08:	00000000 	nop
40000a0c:	00ea5023 	subu	t2,a3,t2
40000a10:	240cf800 	li	t4,-2048
40000a14:	a14d0000 	sb	t5,0(t2)
40000a18:	000b5021 	addu	t2,zero,t3
40000a1c:	156cfff3 	bne	t3,t4,400009ec <Get_motion_code+0x604>
40000a20:	00000000 	nop
40000a24:	90ea0000 	lbu	t2,0(a3)
40000a28:	00000000 	nop
40000a2c:	012a5004 	sllv	t2,t2,t1
40000a30:	24a50008 	addiu	a1,a1,8
40000a34:	24e70001 	addiu	a3,a3,1
40000a38:	01442025 	or	a0,t2,a0
40000a3c:	2529fff8 	addiu	t1,t1,-8
40000a40:	28aa0019 	slti	t2,a1,25
40000a44:	1540ffe2 	bnez	t2,400009d0 <Get_motion_code+0x5e8>
40000a48:	00000000 	nop
40000a4c:	00681821 	addu	v1,v1,t0
40000a50:	24650008 	addiu	a1,v1,8
40000a54:	3c034000 	lui	v1,0x4000
40000a58:	00a62823 	subu	a1,a1,a2
40000a5c:	3c064000 	lui	a2,0x4000
40000a60:	ac673c68 	sw	a3,15464(v1)
40000a64:	acc43c6c 	sw	a0,15468(a2)
40000a68:	3c034000 	lui	v1,0x4000
40000a6c:	ac653c70 	sw	a1,15472(v1)
40000a70:	00041840 	sll	v1,a0,0x1
40000a74:	3c084000 	lui	t0,0x4000
40000a78:	24070019 	li	a3,25
40000a7c:	24a6ffff 	addiu	a2,a1,-1
40000a80:	3c094000 	lui	t1,0x4000
40000a84:	ad033c6c 	sw	v1,15468(t0)
40000a88:	00e5382a 	slt	a3,a3,a1
40000a8c:	ad263c70 	sw	a2,15472(t1)
40000a90:	14e00057 	bnez	a3,40000bf0 <Get_motion_code+0x808>
40000a94:	00000000 	nop
40000a98:	3c074000 	lui	a3,0x4000
40000a9c:	24e73420 	addiu	a3,a3,13344
40000aa0:	3c084000 	lui	t0,0x4000
40000aa4:	24090019 	li	t1,25
40000aa8:	8d083c68 	lw	t0,15464(t0)
40000aac:	00000000 	nop
40000ab0:	24ea07fc 	addiu	t2,a3,2044
40000ab4:	01253823 	subu	a3,t1,a1
40000ab8:	010a482b 	sltu	t1,t0,t2
40000abc:	1520002c 	bnez	t1,40000b70 <Get_motion_code+0x788>
40000ac0:	00000000 	nop
40000ac4:	24090019 	li	t1,25
40000ac8:	01254823 	subu	t1,t1,a1
40000acc:	3c0a4000 	lui	t2,0x4000
40000ad0:	254a3420 	addiu	t2,t2,13344
40000ad4:	254a0800 	addiu	t2,t2,2048
40000ad8:	010a502b 	sltu	t2,t0,t2
40000adc:	15400010 	bnez	t2,40000b20 <Get_motion_code+0x738>
40000ae0:	00000000 	nop
40000ae4:	240a0000 	li	t2,0
40000ae8:	3c0b4000 	lui	t3,0x4000
40000aec:	3c084000 	lui	t0,0x4000
40000af0:	256b29ec 	addiu	t3,t3,10732
40000af4:	25083420 	addiu	t0,t0,13344
40000af8:	016a6023 	subu	t4,t3,t2
40000afc:	254bffff 	addiu	t3,t2,-1
40000b00:	918d0000 	lbu	t5,0(t4)
40000b04:	00000000 	nop
40000b08:	010a5023 	subu	t2,t0,t2
40000b0c:	240cf800 	li	t4,-2048
40000b10:	a14d0000 	sb	t5,0(t2)
40000b14:	000b5021 	addu	t2,zero,t3
40000b18:	156cfff3 	bne	t3,t4,40000ae8 <Get_motion_code+0x700>
40000b1c:	00000000 	nop
40000b20:	910a0000 	lbu	t2,0(t0)
40000b24:	00000000 	nop
40000b28:	012a5004 	sllv	t2,t2,t1
40000b2c:	24c60008 	addiu	a2,a2,8
40000b30:	25080001 	addiu	t0,t0,1
40000b34:	01431825 	or	v1,t2,v1
40000b38:	2529fff8 	addiu	t1,t1,-8
40000b3c:	28ca0019 	slti	t2,a2,25
40000b40:	1540ffe2 	bnez	t2,40000acc <Get_motion_code+0x6e4>
40000b44:	00000000 	nop
40000b48:	2406fff8 	li	a2,-8
40000b4c:	00e63024 	and	a2,a3,a2
40000b50:	00a62821 	addu	a1,a1,a2
40000b54:	3c064000 	lui	a2,0x4000
40000b58:	24a50007 	addiu	a1,a1,7
40000b5c:	3c074000 	lui	a3,0x4000
40000b60:	acc83c68 	sw	t0,15464(a2)
40000b64:	ace33c6c 	sw	v1,15468(a3)
40000b68:	080002fa 	j	40000be8 <Get_motion_code+0x800>
40000b6c:	00000000 	nop
40000b70:	24a90007 	addiu	t1,a1,7
40000b74:	240b0019 	li	t3,25
40000b78:	0169602a 	slt	t4,t3,t1
40000b7c:	000b5021 	addu	t2,zero,t3
40000b80:	11800002 	beqz	t4,40000b8c <Get_motion_code+0x7a4>
40000b84:	00000000 	nop
40000b88:	00095021 	addu	t2,zero,t1
40000b8c:	01455023 	subu	t2,t2,a1
40000b90:	000a50c2 	srl	t2,t2,0x3
40000b94:	01652823 	subu	a1,t3,a1
40000b98:	00085821 	addu	t3,zero,t0
40000b9c:	916c0000 	lbu	t4,0(t3)
40000ba0:	00000000 	nop
40000ba4:	00ac6004 	sllv	t4,t4,a1
40000ba8:	24c60008 	addiu	a2,a2,8
40000bac:	256b0001 	addiu	t3,t3,1
40000bb0:	01831825 	or	v1,t4,v1
40000bb4:	24a5fff8 	addiu	a1,a1,-8
40000bb8:	28cc0019 	slti	t4,a2,25
40000bbc:	1580fff7 	bnez	t4,40000b9c <Get_motion_code+0x7b4>
40000bc0:	00000000 	nop
40000bc4:	01483021 	addu	a2,t2,t0
40000bc8:	2405fff8 	li	a1,-8
40000bcc:	00e52824 	and	a1,a3,a1
40000bd0:	24c60001 	addiu	a2,a2,1
40000bd4:	3c074000 	lui	a3,0x4000
40000bd8:	01252821 	addu	a1,t1,a1
40000bdc:	3c084000 	lui	t0,0x4000
40000be0:	ace63c68 	sw	a2,15464(a3)
40000be4:	ad033c6c 	sw	v1,15468(t0)
40000be8:	3c034000 	lui	v1,0x4000
40000bec:	ac653c70 	sw	a1,15472(v1)
40000bf0:	00021682 	srl	v0,v0,0x1a
40000bf4:	3c034000 	lui	v1,0x4000
40000bf8:	2463323c 	addiu	v1,v1,12860
40000bfc:	0800022c 	j	400008b0 <Get_motion_code+0x4c8>
40000c00:	00000000 	nop
40000c04:	000225c2 	srl	a0,v0,0x17
40000c08:	2484fff4 	addiu	a0,a0,-12
40000c0c:	04810004 	bgez	a0,40000c20 <Get_motion_code+0x838>
40000c10:	00000000 	nop
40000c14:	24020000 	li	v0,0
40000c18:	03e00008 	jr	ra
40000c1c:	00000000 	nop
40000c20:	3c054000 	lui	a1,0x4000
40000c24:	24a531ec 	addiu	a1,a1,12780
40000c28:	00042040 	sll	a0,a0,0x1
40000c2c:	00a42821 	addu	a1,a1,a0
40000c30:	80a60001 	lb	a2,1(a1)
40000c34:	00000000 	nop
40000c38:	00c22804 	sllv	a1,v0,a2
40000c3c:	3c074000 	lui	a3,0x4000
40000c40:	00661023 	subu	v0,v1,a2
40000c44:	24090018 	li	t1,24
40000c48:	3c084000 	lui	t0,0x4000
40000c4c:	ace53c6c 	sw	a1,15468(a3)
40000c50:	0122382a 	slt	a3,t1,v0
40000c54:	ad023c70 	sw	v0,15472(t0)
40000c58:	14e00052 	bnez	a3,40000da4 <Get_motion_code+0x9bc>
40000c5c:	00000000 	nop
40000c60:	3c074000 	lui	a3,0x4000
40000c64:	24e83420 	addiu	t0,a3,13344
40000c68:	3c074000 	lui	a3,0x4000
40000c6c:	24c90018 	addiu	t1,a2,24
40000c70:	8ce73c68 	lw	a3,15464(a3)
40000c74:	00000000 	nop
40000c78:	250a07fc 	addiu	t2,t0,2044
40000c7c:	01234023 	subu	t0,t1,v1
40000c80:	00ea482b 	sltu	t1,a3,t2
40000c84:	1120001b 	beqz	t1,40000cf4 <Get_motion_code+0x90c>
40000c88:	00000000 	nop
40000c8c:	24ca0018 	addiu	t2,a2,24
40000c90:	000848c2 	srl	t1,t0,0x3
40000c94:	01435023 	subu	t2,t2,v1
40000c98:	00075821 	addu	t3,zero,a3
40000c9c:	916c0000 	lbu	t4,0(t3)
40000ca0:	00000000 	nop
40000ca4:	014c6004 	sllv	t4,t4,t2
40000ca8:	24420008 	addiu	v0,v0,8
40000cac:	256b0001 	addiu	t3,t3,1
40000cb0:	01852825 	or	a1,t4,a1
40000cb4:	254afff8 	addiu	t2,t2,-8
40000cb8:	284c0019 	slti	t4,v0,25
40000cbc:	1580fff7 	bnez	t4,40000c9c <Get_motion_code+0x8b4>
40000cc0:	00000000 	nop
40000cc4:	01271021 	addu	v0,t1,a3
40000cc8:	24670008 	addiu	a3,v1,8
40000ccc:	2403fff8 	li	v1,-8
40000cd0:	00e63023 	subu	a2,a3,a2
40000cd4:	01034024 	and	t0,t0,v1
40000cd8:	24430001 	addiu	v1,v0,1
40000cdc:	3c074000 	lui	a3,0x4000
40000ce0:	00c81021 	addu	v0,a2,t0
40000ce4:	3c064000 	lui	a2,0x4000
40000ce8:	ace33c68 	sw	v1,15464(a3)
40000cec:	08000366 	j	40000d98 <Get_motion_code+0x9b0>
40000cf0:	00000000 	nop
40000cf4:	240afff8 	li	t2,-8
40000cf8:	24c90018 	addiu	t1,a2,24
40000cfc:	010a4024 	and	t0,t0,t2
40000d00:	01234823 	subu	t1,t1,v1
40000d04:	3c0a4000 	lui	t2,0x4000
40000d08:	254a3420 	addiu	t2,t2,13344
40000d0c:	254a0800 	addiu	t2,t2,2048
40000d10:	00ea502b 	sltu	t2,a3,t2
40000d14:	15400010 	bnez	t2,40000d58 <Get_motion_code+0x970>
40000d18:	00000000 	nop
40000d1c:	240a0000 	li	t2,0
40000d20:	3c0b4000 	lui	t3,0x4000
40000d24:	3c074000 	lui	a3,0x4000
40000d28:	256b29ec 	addiu	t3,t3,10732
40000d2c:	24e73420 	addiu	a3,a3,13344
40000d30:	016a6023 	subu	t4,t3,t2
40000d34:	254bffff 	addiu	t3,t2,-1
40000d38:	918d0000 	lbu	t5,0(t4)
40000d3c:	00000000 	nop
40000d40:	00ea5023 	subu	t2,a3,t2
40000d44:	240cf800 	li	t4,-2048
40000d48:	a14d0000 	sb	t5,0(t2)
40000d4c:	000b5021 	addu	t2,zero,t3
40000d50:	156cfff3 	bne	t3,t4,40000d20 <Get_motion_code+0x938>
40000d54:	00000000 	nop
40000d58:	90ea0000 	lbu	t2,0(a3)
40000d5c:	00000000 	nop
40000d60:	012a5004 	sllv	t2,t2,t1
40000d64:	24420008 	addiu	v0,v0,8
40000d68:	24e70001 	addiu	a3,a3,1
40000d6c:	01452825 	or	a1,t2,a1
40000d70:	2529fff8 	addiu	t1,t1,-8
40000d74:	284a0019 	slti	t2,v0,25
40000d78:	1540ffe2 	bnez	t2,40000d04 <Get_motion_code+0x91c>
40000d7c:	00000000 	nop
40000d80:	00681021 	addu	v0,v1,t0
40000d84:	24420008 	addiu	v0,v0,8
40000d88:	3c034000 	lui	v1,0x4000
40000d8c:	00461023 	subu	v0,v0,a2
40000d90:	3c064000 	lui	a2,0x4000
40000d94:	ac673c68 	sw	a3,15464(v1)
40000d98:	acc53c6c 	sw	a1,15468(a2)
40000d9c:	3c034000 	lui	v1,0x4000
40000da0:	ac623c70 	sw	v0,15472(v1)
40000da4:	00051840 	sll	v1,a1,0x1
40000da8:	3c084000 	lui	t0,0x4000
40000dac:	24070019 	li	a3,25
40000db0:	2446ffff 	addiu	a2,v0,-1
40000db4:	3c094000 	lui	t1,0x4000
40000db8:	ad033c6c 	sw	v1,15468(t0)
40000dbc:	00e2382a 	slt	a3,a3,v0
40000dc0:	ad263c70 	sw	a2,15472(t1)
40000dc4:	14e00057 	bnez	a3,40000f24 <Get_motion_code+0xb3c>
40000dc8:	00000000 	nop
40000dcc:	3c074000 	lui	a3,0x4000
40000dd0:	24e73420 	addiu	a3,a3,13344
40000dd4:	3c084000 	lui	t0,0x4000
40000dd8:	24090019 	li	t1,25
40000ddc:	8d083c68 	lw	t0,15464(t0)
40000de0:	00000000 	nop
40000de4:	24ea07fc 	addiu	t2,a3,2044
40000de8:	01223823 	subu	a3,t1,v0
40000dec:	010a482b 	sltu	t1,t0,t2
40000df0:	1520002c 	bnez	t1,40000ea4 <Get_motion_code+0xabc>
40000df4:	00000000 	nop
40000df8:	24090019 	li	t1,25
40000dfc:	01224823 	subu	t1,t1,v0
40000e00:	3c0a4000 	lui	t2,0x4000
40000e04:	254a3420 	addiu	t2,t2,13344
40000e08:	254a0800 	addiu	t2,t2,2048
40000e0c:	010a502b 	sltu	t2,t0,t2
40000e10:	15400010 	bnez	t2,40000e54 <Get_motion_code+0xa6c>
40000e14:	00000000 	nop
40000e18:	240a0000 	li	t2,0
40000e1c:	3c0b4000 	lui	t3,0x4000
40000e20:	3c084000 	lui	t0,0x4000
40000e24:	256b29ec 	addiu	t3,t3,10732
40000e28:	25083420 	addiu	t0,t0,13344
40000e2c:	016a6023 	subu	t4,t3,t2
40000e30:	254bffff 	addiu	t3,t2,-1
40000e34:	918d0000 	lbu	t5,0(t4)
40000e38:	00000000 	nop
40000e3c:	010a5023 	subu	t2,t0,t2
40000e40:	240cf800 	li	t4,-2048
40000e44:	a14d0000 	sb	t5,0(t2)
40000e48:	000b5021 	addu	t2,zero,t3
40000e4c:	156cfff3 	bne	t3,t4,40000e1c <Get_motion_code+0xa34>
40000e50:	00000000 	nop
40000e54:	910a0000 	lbu	t2,0(t0)
40000e58:	00000000 	nop
40000e5c:	012a5004 	sllv	t2,t2,t1
40000e60:	24c60008 	addiu	a2,a2,8
40000e64:	25080001 	addiu	t0,t0,1
40000e68:	01431825 	or	v1,t2,v1
40000e6c:	2529fff8 	addiu	t1,t1,-8
40000e70:	28ca0019 	slti	t2,a2,25
40000e74:	1540ffe2 	bnez	t2,40000e00 <Get_motion_code+0xa18>
40000e78:	00000000 	nop
40000e7c:	2406fff8 	li	a2,-8
40000e80:	00e63024 	and	a2,a3,a2
40000e84:	00461021 	addu	v0,v0,a2
40000e88:	3c064000 	lui	a2,0x4000
40000e8c:	24420007 	addiu	v0,v0,7
40000e90:	3c074000 	lui	a3,0x4000
40000e94:	acc83c68 	sw	t0,15464(a2)
40000e98:	ace33c6c 	sw	v1,15468(a3)
40000e9c:	080003c7 	j	40000f1c <Get_motion_code+0xb34>
40000ea0:	00000000 	nop
40000ea4:	24490007 	addiu	t1,v0,7
40000ea8:	240b0019 	li	t3,25
40000eac:	0169602a 	slt	t4,t3,t1
40000eb0:	000b5021 	addu	t2,zero,t3
40000eb4:	11800002 	beqz	t4,40000ec0 <Get_motion_code+0xad8>
40000eb8:	00000000 	nop
40000ebc:	00095021 	addu	t2,zero,t1
40000ec0:	01425023 	subu	t2,t2,v0
40000ec4:	000a50c2 	srl	t2,t2,0x3
40000ec8:	01621023 	subu	v0,t3,v0
40000ecc:	00085821 	addu	t3,zero,t0
40000ed0:	916c0000 	lbu	t4,0(t3)
40000ed4:	00000000 	nop
40000ed8:	004c6004 	sllv	t4,t4,v0
40000edc:	24c60008 	addiu	a2,a2,8
40000ee0:	256b0001 	addiu	t3,t3,1
40000ee4:	01831825 	or	v1,t4,v1
40000ee8:	2442fff8 	addiu	v0,v0,-8
40000eec:	28cc0019 	slti	t4,a2,25
40000ef0:	1580fff7 	bnez	t4,40000ed0 <Get_motion_code+0xae8>
40000ef4:	00000000 	nop
40000ef8:	01483021 	addu	a2,t2,t0
40000efc:	2402fff8 	li	v0,-8
40000f00:	00e21024 	and	v0,a3,v0
40000f04:	24c60001 	addiu	a2,a2,1
40000f08:	3c074000 	lui	a3,0x4000
40000f0c:	01221021 	addu	v0,t1,v0
40000f10:	3c084000 	lui	t0,0x4000
40000f14:	ace63c68 	sw	a2,15464(a3)
40000f18:	ad033c6c 	sw	v1,15468(t0)
40000f1c:	3c034000 	lui	v1,0x4000
40000f20:	ac623c70 	sw	v0,15472(v1)
40000f24:	3c024000 	lui	v0,0x4000
40000f28:	244231ec 	addiu	v0,v0,12780
40000f2c:	00441021 	addu	v0,v0,a0
40000f30:	80420000 	lb	v0,0(v0)
40000f34:	00000000 	nop
40000f38:	28a30000 	slti	v1,a1,0
40000f3c:	10600003 	beqz	v1,40000f4c <Get_motion_code+0xb64>
40000f40:	00000000 	nop
40000f44:	24030000 	li	v1,0
40000f48:	00621023 	subu	v0,v1,v0
40000f4c:	03e00008 	jr	ra
40000f50:	00000000 	nop

40000f54 <legup_start_counter>:
40000f54:	3c02f100 	lui	v0,0xf100
40000f58:	000420c0 	sll	a0,a0,0x3
40000f5c:	00822021 	addu	a0,a0,v0
40000f60:	24020001 	li	v0,1
40000f64:	ac820000 	sw	v0,0(a0)
40000f68:	03e00008 	jr	ra
40000f6c:	00000000 	nop

40000f70 <legup_stop_counter>:
40000f70:	3c02f100 	lui	v0,0xf100
40000f74:	000420c0 	sll	a0,a0,0x3
40000f78:	24430004 	addiu	v1,v0,4
40000f7c:	00831821 	addu	v1,a0,v1
40000f80:	24050001 	li	a1,1
40000f84:	ac650000 	sw	a1,0(v1)
40000f88:	00821021 	addu	v0,a0,v0
40000f8c:	8c420000 	lw	v0,0(v0)
40000f90:	03e00008 	jr	ra
40000f94:	00000000 	nop

40000f98 <printc_uart>:
40000f98:	3c03ff20 	lui	v1,0xff20
40000f9c:	3c020001 	lui	v0,0x1
40000fa0:	34631004 	ori	v1,v1,0x1004
40000fa4:	34420000 	ori	v0,v0,0x0
40000fa8:	8c630000 	lw	v1,0(v1)
40000fac:	00000000 	nop
40000fb0:	0062102b 	sltu	v0,v1,v0
40000fb4:	1440fff8 	bnez	v0,40000f98 <printc_uart>
40000fb8:	00000000 	nop
40000fbc:	3c02ff20 	lui	v0,0xff20
40000fc0:	34421000 	ori	v0,v0,0x1000
40000fc4:	ac440000 	sw	a0,0(v0)
40000fc8:	03e00008 	jr	ra
40000fcc:	00000000 	nop

40000fd0 <print_uart>:
40000fd0:	90830000 	lbu	v1,0(a0)
40000fd4:	00000000 	nop
40000fd8:	10600015 	beqz	v1,40001030 <print_uart+0x60>
40000fdc:	00000000 	nop
40000fe0:	24820001 	addiu	v0,a0,1
40000fe4:	3c05ff20 	lui	a1,0xff20
40000fe8:	3c040001 	lui	a0,0x1
40000fec:	34a51004 	ori	a1,a1,0x1004
40000ff0:	34840000 	ori	a0,a0,0x0
40000ff4:	8ca50000 	lw	a1,0(a1)
40000ff8:	00000000 	nop
40000ffc:	00a4202b 	sltu	a0,a1,a0
40001000:	1480fff8 	bnez	a0,40000fe4 <print_uart+0x14>
40001004:	00000000 	nop
40001008:	00031e00 	sll	v1,v1,0x18
4000100c:	3c04ff20 	lui	a0,0xff20
40001010:	00031e03 	sra	v1,v1,0x18
40001014:	34841000 	ori	a0,a0,0x1000
40001018:	ac830000 	sw	v1,0(a0)
4000101c:	90430000 	lbu	v1,0(v0)
40001020:	00000000 	nop
40001024:	24420001 	addiu	v0,v0,1
40001028:	1460ffee 	bnez	v1,40000fe4 <print_uart+0x14>
4000102c:	00000000 	nop
40001030:	03e00008 	jr	ra
40001034:	00000000 	nop

40001038 <_i2h>:
40001038:	2882000a 	slti	v0,a0,10
4000103c:	14400004 	bnez	v0,40001050 <_i2h+0x18>
40001040:	00000000 	nop
40001044:	24020057 	li	v0,87
40001048:	08000415 	j	40001054 <_i2h+0x1c>
4000104c:	00000000 	nop
40001050:	24020030 	li	v0,48
40001054:	00441021 	addu	v0,v0,a0
40001058:	00021600 	sll	v0,v0,0x18
4000105c:	00021603 	sra	v0,v0,0x18
40001060:	03e00008 	jr	ra
40001064:	00000000 	nop

40001068 <_i2H>:
40001068:	2882000a 	slti	v0,a0,10
4000106c:	14400004 	bnez	v0,40001080 <_i2H+0x18>
40001070:	00000000 	nop
40001074:	24020037 	li	v0,55
40001078:	08000421 	j	40001084 <_i2H+0x1c>
4000107c:	00000000 	nop
40001080:	24020030 	li	v0,48
40001084:	00441021 	addu	v0,v0,a0
40001088:	00021600 	sll	v0,v0,0x18
4000108c:	00021603 	sra	v0,v0,0x18
40001090:	03e00008 	jr	ra
40001094:	00000000 	nop

40001098 <i2h>:
40001098:	27bdffc8 	addiu	sp,sp,-56
4000109c:	afbf0034 	sw	ra,52(sp)
400010a0:	afb40030 	sw	s4,48(sp)
400010a4:	afb3002c 	sw	s3,44(sp)
400010a8:	afb20028 	sw	s2,40(sp)
400010ac:	afb10024 	sw	s1,36(sp)
400010b0:	afb00020 	sw	s0,32(sp)
400010b4:	00048021 	addu	s0,zero,a0
400010b8:	3c034000 	lui	v1,0x4000
400010bc:	3c044000 	lui	a0,0x4000
400010c0:	3c024000 	lui	v0,0x4000
400010c4:	10a00004 	beqz	a1,400010d8 <i2h+0x40>
400010c8:	00000000 	nop
400010cc:	24921068 	addiu	s2,a0,4200
400010d0:	08000437 	j	400010dc <i2h+0x44>
400010d4:	00000000 	nop
400010d8:	24721038 	addiu	s2,v1,4152
400010dc:	16000004 	bnez	s0,400010f0 <i2h+0x58>
400010e0:	00000000 	nop
400010e4:	24423271 	addiu	v0,v0,12913
400010e8:	0800045e 	j	40001178 <i2h+0xe0>
400010ec:	00000000 	nop
400010f0:	24130000 	li	s3,0
400010f4:	0013a021 	addu	s4,zero,s3
400010f8:	27b10014 	addiu	s1,sp,20
400010fc:	3204000f 	andi	a0,s0,0xf
40001100:	00108102 	srl	s0,s0,0x4
40001104:	26930001 	addiu	s3,s4,1
40001108:	0240f809 	jalr	s2
4000110c:	00000000 	nop
40001110:	02341821 	addu	v1,s1,s4
40001114:	a0620000 	sb	v0,0(v1)
40001118:	1600fff6 	bnez	s0,400010f4 <i2h+0x5c>
4000111c:	00000000 	nop
40001120:	3c024000 	lui	v0,0x4000
40001124:	24423c20 	addiu	v0,v0,15392
40001128:	24030000 	li	v1,0
4000112c:	00532021 	addu	a0,v0,s3
40001130:	a0830000 	sb	v1,0(a0)
40001134:	06800010 	bltz	s4,40001178 <i2h+0xe0>
40001138:	00000000 	nop
4000113c:	3c034000 	lui	v1,0x4000
40001140:	24020000 	li	v0,0
40001144:	00531023 	subu	v0,v0,s3
40001148:	24633c20 	addiu	v1,v1,15392
4000114c:	3c044000 	lui	a0,0x4000
40001150:	02222823 	subu	a1,s1,v0
40001154:	90a5ffff 	lbu	a1,-1(a1)
40001158:	00000000 	nop
4000115c:	24420001 	addiu	v0,v0,1
40001160:	24660001 	addiu	a2,v1,1
40001164:	a0650000 	sb	a1,0(v1)
40001168:	00061821 	addu	v1,zero,a2
4000116c:	1440fff7 	bnez	v0,4000114c <i2h+0xb4>
40001170:	00000000 	nop
40001174:	24823c20 	addiu	v0,a0,15392
40001178:	8fb00020 	lw	s0,32(sp)
4000117c:	00000000 	nop
40001180:	8fb10024 	lw	s1,36(sp)
40001184:	00000000 	nop
40001188:	8fb20028 	lw	s2,40(sp)
4000118c:	00000000 	nop
40001190:	8fb3002c 	lw	s3,44(sp)
40001194:	00000000 	nop
40001198:	8fb40030 	lw	s4,48(sp)
4000119c:	00000000 	nop
400011a0:	8fbf0034 	lw	ra,52(sp)
400011a4:	00000000 	nop
400011a8:	27bd0038 	addiu	sp,sp,56
400011ac:	03e00008 	jr	ra
400011b0:	00000000 	nop

400011b4 <l2h>:
400011b4:	27bdffc0 	addiu	sp,sp,-64
400011b8:	afbf003c 	sw	ra,60(sp)
400011bc:	afb50038 	sw	s5,56(sp)
400011c0:	afb40034 	sw	s4,52(sp)
400011c4:	afb30030 	sw	s3,48(sp)
400011c8:	afb2002c 	sw	s2,44(sp)
400011cc:	afb10028 	sw	s1,40(sp)
400011d0:	afb00024 	sw	s0,36(sp)
400011d4:	00058021 	addu	s0,zero,a1
400011d8:	00048821 	addu	s1,zero,a0
400011dc:	3c034000 	lui	v1,0x4000
400011e0:	3c044000 	lui	a0,0x4000
400011e4:	3c024000 	lui	v0,0x4000
400011e8:	10c00004 	beqz	a2,400011fc <l2h+0x48>
400011ec:	00000000 	nop
400011f0:	24941068 	addiu	s4,a0,4200
400011f4:	08000480 	j	40001200 <l2h+0x4c>
400011f8:	00000000 	nop
400011fc:	24741038 	addiu	s4,v1,4152
40001200:	02301825 	or	v1,s1,s0
40001204:	14600004 	bnez	v1,40001218 <l2h+0x64>
40001208:	00000000 	nop
4000120c:	24423271 	addiu	v0,v0,12913
40001210:	080004af 	j	400012bc <l2h+0x108>
40001214:	00000000 	nop
40001218:	24120000 	li	s2,0
4000121c:	0012a821 	addu	s5,zero,s2
40001220:	27b30010 	addiu	s3,sp,16
40001224:	3224000f 	andi	a0,s1,0xf
40001228:	00111102 	srl	v0,s1,0x4
4000122c:	00101f00 	sll	v1,s0,0x1c
40001230:	26b20001 	addiu	s2,s5,1
40001234:	00438825 	or	s1,v0,v1
40001238:	00108102 	srl	s0,s0,0x4
4000123c:	0280f809 	jalr	s4
40001240:	00000000 	nop
40001244:	02752021 	addu	a0,s3,s5
40001248:	02301825 	or	v1,s1,s0
4000124c:	a0820000 	sb	v0,0(a0)
40001250:	1460fff2 	bnez	v1,4000121c <l2h+0x68>
40001254:	00000000 	nop
40001258:	3c024000 	lui	v0,0x4000
4000125c:	24423c29 	addiu	v0,v0,15401
40001260:	24030000 	li	v1,0
40001264:	00522021 	addu	a0,v0,s2
40001268:	a0830000 	sb	v1,0(a0)
4000126c:	06a00013 	bltz	s5,400012bc <l2h+0x108>
40001270:	00000000 	nop
40001274:	00032021 	addu	a0,zero,v1
40001278:	24080000 	li	t0,0
4000127c:	24650001 	addiu	a1,v1,1
40001280:	24060001 	li	a2,1
40001284:	3c024000 	lui	v0,0x4000
40001288:	00a6382b 	sltu	a3,a1,a2
4000128c:	24423c29 	addiu	v0,v0,15401
40001290:	02723021 	addu	a2,s3,s2
40001294:	00e83821 	addu	a3,a3,t0
40001298:	2652ffff 	addiu	s2,s2,-1
4000129c:	00872021 	addu	a0,a0,a3
400012a0:	90c6ffff 	lbu	a2,-1(a2)
400012a4:	00000000 	nop
400012a8:	00431821 	addu	v1,v0,v1
400012ac:	a0660000 	sb	a2,0(v1)
400012b0:	00051821 	addu	v1,zero,a1
400012b4:	1e40fff1 	bgtz	s2,4000127c <l2h+0xc8>
400012b8:	00000000 	nop
400012bc:	8fb00024 	lw	s0,36(sp)
400012c0:	00000000 	nop
400012c4:	8fb10028 	lw	s1,40(sp)
400012c8:	00000000 	nop
400012cc:	8fb2002c 	lw	s2,44(sp)
400012d0:	00000000 	nop
400012d4:	8fb30030 	lw	s3,48(sp)
400012d8:	00000000 	nop
400012dc:	8fb40034 	lw	s4,52(sp)
400012e0:	00000000 	nop
400012e4:	8fb50038 	lw	s5,56(sp)
400012e8:	00000000 	nop
400012ec:	8fbf003c 	lw	ra,60(sp)
400012f0:	00000000 	nop
400012f4:	27bd0040 	addiu	sp,sp,64
400012f8:	03e00008 	jr	ra
400012fc:	00000000 	nop

40001300 <itoa>:
40001300:	27bdffd8 	addiu	sp,sp,-40
40001304:	afb70024 	sw	s7,36(sp)
40001308:	afb60020 	sw	s6,32(sp)
4000130c:	afb5001c 	sw	s5,28(sp)
40001310:	afb40018 	sw	s4,24(sp)
40001314:	afb30014 	sw	s3,20(sp)
40001318:	afb20010 	sw	s2,16(sp)
4000131c:	afb1000c 	sw	s1,12(sp)
40001320:	afb00008 	sw	s0,8(sp)
40001324:	2402ffff 	li	v0,-1
40001328:	0044102a 	slt	v0,v0,a0
4000132c:	14400006 	bnez	v0,40001348 <itoa+0x48>
40001330:	00000000 	nop
40001334:	24020000 	li	v0,0
40001338:	00442023 	subu	a0,v0,a0
4000133c:	24020001 	li	v0,1
40001340:	080004d9 	j	40001364 <itoa+0x64>
40001344:	00000000 	nop
40001348:	3c024000 	lui	v0,0x4000
4000134c:	14800004 	bnez	a0,40001360 <itoa+0x60>
40001350:	00000000 	nop
40001354:	24423271 	addiu	v0,v0,12913
40001358:	080005bb 	j	400016ec <itoa+0x3ec>
4000135c:	00000000 	nop
40001360:	24020000 	li	v0,0
40001364:	afa20004 	sw	v0,4(sp)
40001368:	3c026666 	lui	v0,0x6666
4000136c:	3c0551eb 	lui	a1,0x51eb
40001370:	34426667 	ori	v0,v0,0x6667
40001374:	00820018 	mult	a0,v0
40001378:	00001810 	mfhi	v1
4000137c:	3c061062 	lui	a2,0x1062
40001380:	34a5851f 	ori	a1,a1,0x851f
40001384:	00850018 	mult	a0,a1
40001388:	00002810 	mfhi	a1
4000138c:	3c0868db 	lui	t0,0x68db
40001390:	34c64dd3 	ori	a2,a2,0x4dd3
40001394:	00034883 	sra	t1,v1,0x2
40001398:	00031fc2 	srl	v1,v1,0x1f
4000139c:	00860018 	mult	a0,a2
400013a0:	00003010 	mfhi	a2
400013a4:	3c0714f8 	lui	a3,0x14f8
400013a8:	35088bad 	ori	t0,t0,0x8bad
400013ac:	01236021 	addu	t4,t1,v1
400013b0:	00051943 	sra	v1,a1,0x5
400013b4:	000557c2 	srl	t2,a1,0x1f
400013b8:	00880018 	mult	a0,t0
400013bc:	00004010 	mfhi	t0
400013c0:	01820018 	mult	t4,v0
400013c4:	00002810 	mfhi	a1
400013c8:	3c09431b 	lui	t1,0x431b
400013cc:	34e7b589 	ori	a3,a3,0xb589
400013d0:	006a5821 	addu	t3,v1,t2
400013d4:	00061983 	sra	v1,a2,0x6
400013d8:	000637c2 	srl	a2,a2,0x1f
400013dc:	00870018 	mult	a0,a3
400013e0:	00005010 	mfhi	t2
400013e4:	01620018 	mult	t3,v0
400013e8:	00003810 	mfhi	a3
400013ec:	3c0f6b5f 	lui	t7,0x6b5f
400013f0:	352dde83 	ori	t5,t1,0xde83
400013f4:	00664821 	addu	t1,v1,a2
400013f8:	2406000a 	li	a2,10
400013fc:	0008c303 	sra	t8,t0,0xc
40001400:	000847c2 	srl	t0,t0,0x1f
40001404:	0005c882 	srl	t9,a1,0x2
40001408:	000587c2 	srl	s0,a1,0x1f
4000140c:	008d0018 	mult	a0,t5
40001410:	00007010 	mfhi	t6
40001414:	01220018 	mult	t1,v0
40001418:	00006810 	mfhi	t5
4000141c:	3c054000 	lui	a1,0x4000
40001420:	afa50000 	sw	a1,0(sp)
40001424:	3c1155e6 	lui	s1,0x55e6
40001428:	35efca6b 	ori	t7,t7,0xca6b
4000142c:	03084021 	addu	t0,t8,t0
40001430:	03308021 	addu	s0,t9,s0
40001434:	01860018 	mult	t4,a2
40001438:	0000c812 	mflo	t9
4000143c:	000a9343 	sra	s2,t2,0xd
40001440:	000a57c2 	srl	t2,t2,0x1f
40001444:	00079882 	srl	s3,a3,0x2
40001448:	00071fc2 	srl	v1,a3,0x1f
4000144c:	008f0018 	mult	a0,t7
40001450:	0000c010 	mfhi	t8
40001454:	01020018 	mult	t0,v0
40001458:	00007810 	mfhi	t7
4000145c:	3c1444b8 	lui	s4,0x44b8
40001460:	36353b89 	ori	s5,s1,0x3b89
40001464:	024a5021 	addu	t2,s2,t2
40001468:	02639821 	addu	s3,s3,v1
4000146c:	02060018 	mult	s0,a2
40001470:	00008812 	mflo	s1
40001474:	00998023 	subu	s0,a0,t9
40001478:	24a73c3a 	addiu	a3,a1,15418
4000147c:	24120000 	li	s2,0
40001480:	000eb483 	sra	s6,t6,0x12
40001484:	000ebfc2 	srl	s7,t6,0x1f
40001488:	000d1882 	srl	v1,t5,0x2
4000148c:	000d2fc2 	srl	a1,t5,0x1f
40001490:	00950018 	mult	a0,s5
40001494:	0000c810 	mfhi	t9
40001498:	01420018 	mult	t2,v0
4000149c:	00007010 	mfhi	t6
400014a0:	36952fa1 	ori	s5,s4,0x2fa1
400014a4:	02d76821 	addu	t5,s6,s7
400014a8:	0065a021 	addu	s4,v1,a1
400014ac:	02660018 	mult	s3,a2
400014b0:	00009812 	mflo	s3
400014b4:	01918823 	subu	s1,t4,s1
400014b8:	0018b583 	sra	s6,t8,0x16
400014bc:	0018bfc2 	srl	s7,t8,0x1f
400014c0:	000fc082 	srl	t8,t7,0x2
400014c4:	000f1fc2 	srl	v1,t7,0x1f
400014c8:	26100030 	addiu	s0,s0,48
400014cc:	a0f2000a 	sb	s2,10(a3)
400014d0:	00950018 	mult	a0,s5
400014d4:	00007810 	mfhi	t7
400014d8:	01a20018 	mult	t5,v0
400014dc:	00006010 	mfhi	t4
400014e0:	02d72021 	addu	a0,s6,s7
400014e4:	0303a821 	addu	s5,t8,v1
400014e8:	02860018 	mult	s4,a2
400014ec:	0000a012 	mflo	s4
400014f0:	0173c023 	subu	t8,t3,s3
400014f4:	00195e43 	sra	t3,t9,0x19
400014f8:	0019cfc2 	srl	t9,t9,0x1f
400014fc:	000e1882 	srl	v1,t6,0x2
40001500:	000e2fc2 	srl	a1,t6,0x1f
40001504:	26320030 	addiu	s2,s1,48
40001508:	a0f00009 	sb	s0,9(a3)
4000150c:	00820018 	mult	a0,v0
40001510:	00007010 	mfhi	t6
40001514:	01795821 	addu	t3,t3,t9
40001518:	00658821 	addu	s1,v1,a1
4000151c:	02a60018 	mult	s5,a2
40001520:	00008012 	mflo	s0
40001524:	0134c823 	subu	t9,t1,s4
40001528:	000f4f03 	sra	t1,t7,0x1c
4000152c:	000f9fc2 	srl	s3,t7,0x1f
40001530:	000c1882 	srl	v1,t4,0x2
40001534:	000c2fc2 	srl	a1,t4,0x1f
40001538:	270f0030 	addiu	t7,t8,48
4000153c:	a0f20008 	sb	s2,8(a3)
40001540:	01620018 	mult	t3,v0
40001544:	00006010 	mfhi	t4
40001548:	01334821 	addu	t1,t1,s3
4000154c:	00659021 	addu	s2,v1,a1
40001550:	02260018 	mult	s1,a2
40001554:	0000c012 	mflo	t8
40001558:	01104023 	subu	t0,t0,s0
4000155c:	000e1882 	srl	v1,t6,0x2
40001560:	000e2fc2 	srl	a1,t6,0x1f
40001564:	272e0030 	addiu	t6,t9,48
40001568:	a0ef0007 	sb	t7,7(a3)
4000156c:	01220018 	mult	t1,v0
40001570:	00001010 	mfhi	v0
40001574:	00658021 	addu	s0,v1,a1
40001578:	02460018 	mult	s2,a2
4000157c:	0000c812 	mflo	t9
40001580:	01585023 	subu	t2,t2,t8
40001584:	000c1882 	srl	v1,t4,0x2
40001588:	000c2fc2 	srl	a1,t4,0x1f
4000158c:	250f0030 	addiu	t7,t0,48
40001590:	a0ee0006 	sb	t6,6(a3)
40001594:	00657021 	addu	t6,v1,a1
40001598:	02060018 	mult	s0,a2
4000159c:	00006012 	mflo	t4
400015a0:	01b94023 	subu	t0,t5,t9
400015a4:	00021883 	sra	v1,v0,0x2
400015a8:	00022fc2 	srl	a1,v0,0x1f
400015ac:	25420030 	addiu	v0,t2,48
400015b0:	a0ef0005 	sb	t7,5(a3)
400015b4:	00655021 	addu	t2,v1,a1
400015b8:	01c60018 	mult	t6,a2
400015bc:	00002812 	mflo	a1
400015c0:	008c2023 	subu	a0,a0,t4
400015c4:	25030030 	addiu	v1,t0,48
400015c8:	a0e20004 	sb	v0,4(a3)
400015cc:	01460018 	mult	t2,a2
400015d0:	00003012 	mflo	a2
400015d4:	01652823 	subu	a1,t3,a1
400015d8:	24820030 	addiu	v0,a0,48
400015dc:	a0e30003 	sb	v1,3(a3)
400015e0:	01262023 	subu	a0,t1,a2
400015e4:	24a30030 	addiu	v1,a1,48
400015e8:	a0e20002 	sb	v0,2(a3)
400015ec:	24020001 	li	v0,1
400015f0:	24840030 	addiu	a0,a0,48
400015f4:	a0e30001 	sb	v1,1(a3)
400015f8:	8fa30000 	lw	v1,0(sp)
400015fc:	00000000 	nop
40001600:	a0643c3a 	sb	a0,15418(v1)
40001604:	0800058d 	j	40001634 <itoa+0x334>
40001608:	00000000 	nop
4000160c:	24030009 	li	v1,9
40001610:	0062182a 	slt	v1,v1,v0
40001614:	1460000c 	bnez	v1,40001648 <itoa+0x348>
40001618:	00000000 	nop
4000161c:	3c034000 	lui	v1,0x4000
40001620:	24633c3a 	addiu	v1,v1,15418
40001624:	00621821 	addu	v1,v1,v0
40001628:	90640000 	lbu	a0,0(v1)
4000162c:	00000000 	nop
40001630:	24420001 	addiu	v0,v0,1
40001634:	308300ff 	andi	v1,a0,0xff
40001638:	24040030 	li	a0,48
4000163c:	1064fff3 	beq	v1,a0,4000160c <itoa+0x30c>
40001640:	00000000 	nop
40001644:	2442ffff 	addiu	v0,v0,-1
40001648:	8fa30004 	lw	v1,4(sp)
4000164c:	00000000 	nop
40001650:	10600004 	beqz	v1,40001664 <itoa+0x364>
40001654:	00000000 	nop
40001658:	2403002d 	li	v1,45
4000165c:	3c044000 	lui	a0,0x4000
40001660:	a0833c45 	sb	v1,15429(a0)
40001664:	2403000a 	li	v1,10
40001668:	00622023 	subu	a0,v1,v0
4000166c:	28830001 	slti	v1,a0,1
40001670:	10600004 	beqz	v1,40001684 <itoa+0x384>
40001674:	00000000 	nop
40001678:	24040000 	li	a0,0
4000167c:	080005b3 	j	400016cc <itoa+0x3cc>
40001680:	00000000 	nop
40001684:	3c034000 	lui	v1,0x4000
40001688:	2405000a 	li	a1,10
4000168c:	24633c45 	addiu	v1,v1,15429
40001690:	00a21023 	subu	v0,a1,v0
40001694:	8fa50004 	lw	a1,4(sp)
40001698:	00000000 	nop
4000169c:	00652821 	addu	a1,v1,a1
400016a0:	3c034000 	lui	v1,0x4000
400016a4:	24633c3a 	addiu	v1,v1,15418
400016a8:	00621823 	subu	v1,v1,v0
400016ac:	9063000a 	lbu	v1,10(v1)
400016b0:	00000000 	nop
400016b4:	2442ffff 	addiu	v0,v0,-1
400016b8:	24a60001 	addiu	a2,a1,1
400016bc:	a0a30000 	sb	v1,0(a1)
400016c0:	00062821 	addu	a1,zero,a2
400016c4:	1440fff6 	bnez	v0,400016a0 <itoa+0x3a0>
400016c8:	00000000 	nop
400016cc:	3c024000 	lui	v0,0x4000
400016d0:	24423c45 	addiu	v0,v0,15429
400016d4:	8fa30004 	lw	v1,4(sp)
400016d8:	00000000 	nop
400016dc:	00832021 	addu	a0,a0,v1
400016e0:	24030000 	li	v1,0
400016e4:	00442021 	addu	a0,v0,a0
400016e8:	a0830000 	sb	v1,0(a0)
400016ec:	8fb00008 	lw	s0,8(sp)
400016f0:	00000000 	nop
400016f4:	8fb1000c 	lw	s1,12(sp)
400016f8:	00000000 	nop
400016fc:	8fb20010 	lw	s2,16(sp)
40001700:	00000000 	nop
40001704:	8fb30014 	lw	s3,20(sp)
40001708:	00000000 	nop
4000170c:	8fb40018 	lw	s4,24(sp)
40001710:	00000000 	nop
40001714:	8fb5001c 	lw	s5,28(sp)
40001718:	00000000 	nop
4000171c:	8fb60020 	lw	s6,32(sp)
40001720:	00000000 	nop
40001724:	8fb70024 	lw	s7,36(sp)
40001728:	00000000 	nop
4000172c:	27bd0028 	addiu	sp,sp,40
40001730:	03e00008 	jr	ra
40001734:	00000000 	nop

40001738 <utoa>:
40001738:	27bdffe8 	addiu	sp,sp,-24
4000173c:	afb50014 	sw	s5,20(sp)
40001740:	afb40010 	sw	s4,16(sp)
40001744:	afb3000c 	sw	s3,12(sp)
40001748:	afb20008 	sw	s2,8(sp)
4000174c:	afb10004 	sw	s1,4(sp)
40001750:	afb00000 	sw	s0,0(sp)
40001754:	3c024000 	lui	v0,0x4000
40001758:	14800019 	bnez	a0,400017c0 <utoa+0x88>
4000175c:	00000000 	nop
40001760:	24423271 	addiu	v0,v0,12913
40001764:	0800068c 	j	40001a30 <utoa+0x2f8>
40001768:	00000000 	nop
4000176c:	24020009 	li	v0,9
40001770:	0043102a 	slt	v0,v0,v1
40001774:	1440000a 	bnez	v0,400017a0 <utoa+0x68>
40001778:	00000000 	nop
4000177c:	3c024000 	lui	v0,0x4000
40001780:	24423c50 	addiu	v0,v0,15440
40001784:	00431021 	addu	v0,v0,v1
40001788:	90440000 	lbu	a0,0(v0)
4000178c:	00000000 	nop
40001790:	24630001 	addiu	v1,v1,1
40001794:	08000672 	j	400019c8 <utoa+0x290>
40001798:	00000000 	nop
4000179c:	2463ffff 	addiu	v1,v1,-1
400017a0:	2402000a 	li	v0,10
400017a4:	00432023 	subu	a0,v0,v1
400017a8:	28820001 	slti	v0,a0,1
400017ac:	1040008c 	beqz	v0,400019e0 <utoa+0x2a8>
400017b0:	00000000 	nop
400017b4:	24040000 	li	a0,0
400017b8:	08000687 	j	40001a1c <utoa+0x2e4>
400017bc:	00000000 	nop
400017c0:	3c03cccc 	lui	v1,0xcccc
400017c4:	3c0251eb 	lui	v0,0x51eb
400017c8:	3463cccd 	ori	v1,v1,0xcccd
400017cc:	3c051062 	lui	a1,0x1062
400017d0:	3442851f 	ori	v0,v0,0x851f
400017d4:	00830019 	multu	a0,v1
400017d8:	00003010 	mfhi	a2
400017dc:	3c07d1b7 	lui	a3,0xd1b7
400017e0:	34a54dd3 	ori	a1,a1,0x4dd3
400017e4:	00820019 	multu	a0,v0
400017e8:	00001010 	mfhi	v0
400017ec:	000658c2 	srl	t3,a2,0x3
400017f0:	3c060a7c 	lui	a2,0xa7c
400017f4:	34e71759 	ori	a3,a3,0x1759
400017f8:	00850019 	multu	a0,a1
400017fc:	00004010 	mfhi	t0
40001800:	00025142 	srl	t2,v0,0x5
40001804:	01630019 	multu	t3,v1
40001808:	00006010 	mfhi	t4
4000180c:	2405000a 	li	a1,10
40001810:	3c024000 	lui	v0,0x4000
40001814:	3c09431b 	lui	t1,0x431b
40001818:	00870019 	multu	a0,a3
4000181c:	00003810 	mfhi	a3
40001820:	00084182 	srl	t0,t0,0x6
40001824:	01430019 	multu	t2,v1
40001828:	00007010 	mfhi	t6
4000182c:	000c68c2 	srl	t5,t4,0x3
40001830:	01650018 	mult	t3,a1
40001834:	00006012 	mflo	t4
40001838:	00047942 	srl	t7,a0,0x5
4000183c:	34c65ac5 	ori	a2,a2,0x5ac5
40001840:	3c196b5f 	lui	t9,0x6b5f
40001844:	3538de83 	ori	t8,t1,0xde83
40001848:	01e60019 	multu	t7,a2
4000184c:	00004810 	mfhi	t1
40001850:	00073b42 	srl	a3,a3,0xd
40001854:	01030019 	multu	t0,v1
40001858:	00007810 	mfhi	t7
4000185c:	000e70c2 	srl	t6,t6,0x3
40001860:	01a50018 	mult	t5,a1
40001864:	00006812 	mflo	t5
40001868:	008c6023 	subu	t4,a0,t4
4000186c:	24463c50 	addiu	a2,v0,15440
40001870:	24130000 	li	s3,0
40001874:	3c1255e6 	lui	s2,0x55e6
40001878:	3731ca6b 	ori	s1,t9,0xca6b
4000187c:	00980019 	multu	a0,t8
40001880:	00008010 	mfhi	s0
40001884:	000949c2 	srl	t1,t1,0x7
40001888:	00e30019 	multu	a3,v1
4000188c:	0000c810 	mfhi	t9
40001890:	000fc0c2 	srl	t8,t7,0x3
40001894:	01c50018 	mult	t6,a1
40001898:	00007812 	mflo	t7
4000189c:	016d7023 	subu	t6,t3,t5
400018a0:	358d0030 	ori	t5,t4,0x30
400018a4:	a0d3000a 	sb	s3,10(a2)
400018a8:	3c0c0004 	lui	t4,0x4
400018ac:	36553b89 	ori	s5,s2,0x3b89
400018b0:	00910019 	multu	a0,s1
400018b4:	0000a010 	mfhi	s4
400018b8:	00105c82 	srl	t3,s0,0x12
400018bc:	01230019 	multu	t1,v1
400018c0:	00009810 	mfhi	s3
400018c4:	001990c2 	srl	s2,t9,0x3
400018c8:	03050018 	mult	t8,a1
400018cc:	00008812 	mflo	s1
400018d0:	014f8023 	subu	s0,t2,t7
400018d4:	35d90030 	ori	t9,t6,0x30
400018d8:	a0cd0009 	sb	t5,9(a2)
400018dc:	00950019 	multu	a0,s5
400018e0:	0000c010 	mfhi	t8
400018e4:	00145582 	srl	t2,s4,0x16
400018e8:	01630019 	multu	t3,v1
400018ec:	00007810 	mfhi	t7
400018f0:	001370c2 	srl	t6,s3,0x3
400018f4:	02450018 	mult	s2,a1
400018f8:	00006812 	mflo	t5
400018fc:	01114023 	subu	t0,t0,s1
40001900:	00042242 	srl	a0,a0,0x9
40001904:	35914b83 	ori	s1,t4,0x4b83
40001908:	360c0030 	ori	t4,s0,0x30
4000190c:	a0d90008 	sb	t9,8(a2)
40001910:	00910019 	multu	a0,s1
40001914:	0000c810 	mfhi	t9
40001918:	00182642 	srl	a0,t8,0x19
4000191c:	01430019 	multu	t2,v1
40001920:	0000c010 	mfhi	t8
40001924:	000f78c2 	srl	t7,t7,0x3
40001928:	01c50018 	mult	t6,a1
4000192c:	00007012 	mflo	t6
40001930:	00ed6823 	subu	t5,a3,t5
40001934:	35080030 	ori	t0,t0,0x30
40001938:	a0cc0007 	sb	t4,7(a2)
4000193c:	001939c2 	srl	a3,t9,0x7
40001940:	00830019 	multu	a0,v1
40001944:	0000c810 	mfhi	t9
40001948:	0018c0c2 	srl	t8,t8,0x3
4000194c:	01e50018 	mult	t7,a1
40001950:	00007812 	mflo	t7
40001954:	012e6023 	subu	t4,t1,t6
40001958:	35a90030 	ori	t1,t5,0x30
4000195c:	a0c80006 	sb	t0,6(a2)
40001960:	00e30019 	multu	a3,v1
40001964:	00008010 	mfhi	s0
40001968:	001970c2 	srl	t6,t9,0x3
4000196c:	03050018 	mult	t8,a1
40001970:	00006812 	mflo	t5
40001974:	016f4023 	subu	t0,t3,t7
40001978:	35830030 	ori	v1,t4,0x30
4000197c:	a0c90005 	sb	t1,5(a2)
40001980:	001060c2 	srl	t4,s0,0x3
40001984:	01c50018 	mult	t6,a1
40001988:	00005812 	mflo	t3
4000198c:	014d4823 	subu	t1,t2,t5
40001990:	35080030 	ori	t0,t0,0x30
40001994:	a0c30004 	sb	v1,4(a2)
40001998:	01850018 	mult	t4,a1
4000199c:	00005012 	mflo	t2
400019a0:	008b2823 	subu	a1,a0,t3
400019a4:	35230030 	ori	v1,t1,0x30
400019a8:	a0c80003 	sb	t0,3(a2)
400019ac:	00ea2023 	subu	a0,a3,t2
400019b0:	34a50030 	ori	a1,a1,0x30
400019b4:	a0c30002 	sb	v1,2(a2)
400019b8:	24030001 	li	v1,1
400019bc:	34840030 	ori	a0,a0,0x30
400019c0:	a0c50001 	sb	a1,1(a2)
400019c4:	a0443c50 	sb	a0,15440(v0)
400019c8:	308200ff 	andi	v0,a0,0xff
400019cc:	24040030 	li	a0,48
400019d0:	1044ff66 	beq	v0,a0,4000176c <utoa+0x34>
400019d4:	00000000 	nop
400019d8:	080005e7 	j	4000179c <utoa+0x64>
400019dc:	00000000 	nop
400019e0:	3c054000 	lui	a1,0x4000
400019e4:	2402000a 	li	v0,10
400019e8:	00431023 	subu	v0,v0,v1
400019ec:	24a33c5b 	addiu	v1,a1,15451
400019f0:	3c054000 	lui	a1,0x4000
400019f4:	24a53c50 	addiu	a1,a1,15440
400019f8:	00a22823 	subu	a1,a1,v0
400019fc:	90a5000a 	lbu	a1,10(a1)
40001a00:	00000000 	nop
40001a04:	2442ffff 	addiu	v0,v0,-1
40001a08:	24660001 	addiu	a2,v1,1
40001a0c:	a0650000 	sb	a1,0(v1)
40001a10:	00061821 	addu	v1,zero,a2
40001a14:	1440fff6 	bnez	v0,400019f0 <utoa+0x2b8>
40001a18:	00000000 	nop
40001a1c:	3c024000 	lui	v0,0x4000
40001a20:	24423c5b 	addiu	v0,v0,15451
40001a24:	24030000 	li	v1,0
40001a28:	00442021 	addu	a0,v0,a0
40001a2c:	a0830000 	sb	v1,0(a0)
40001a30:	8fb00000 	lw	s0,0(sp)
40001a34:	00000000 	nop
40001a38:	8fb10004 	lw	s1,4(sp)
40001a3c:	00000000 	nop
40001a40:	8fb20008 	lw	s2,8(sp)
40001a44:	00000000 	nop
40001a48:	8fb3000c 	lw	s3,12(sp)
40001a4c:	00000000 	nop
40001a50:	8fb40010 	lw	s4,16(sp)
40001a54:	00000000 	nop
40001a58:	8fb50014 	lw	s5,20(sp)
40001a5c:	00000000 	nop
40001a60:	27bd0018 	addiu	sp,sp,24
40001a64:	03e00008 	jr	ra
40001a68:	00000000 	nop

40001a6c <puts>:
40001a6c:	24020000 	li	v0,0
40001a70:	90830000 	lbu	v1,0(a0)
40001a74:	00000000 	nop
40001a78:	1060002e 	beqz	v1,40001b34 <puts+0xc8>
40001a7c:	00000000 	nop
40001a80:	2405000d 	li	a1,13
40001a84:	14650005 	bne	v1,a1,40001a9c <puts+0x30>
40001a88:	00000000 	nop
40001a8c:	2403000d 	li	v1,13
40001a90:	24020001 	li	v0,1
40001a94:	080006bc 	j	40001af0 <puts+0x84>
40001a98:	00000000 	nop
40001a9c:	2405000a 	li	a1,10
40001aa0:	14650013 	bne	v1,a1,40001af0 <puts+0x84>
40001aa4:	00000000 	nop
40001aa8:	14400011 	bnez	v0,40001af0 <puts+0x84>
40001aac:	00000000 	nop
40001ab0:	3c03ff20 	lui	v1,0xff20
40001ab4:	3c020001 	lui	v0,0x1
40001ab8:	34631004 	ori	v1,v1,0x1004
40001abc:	34420000 	ori	v0,v0,0x0
40001ac0:	8c630000 	lw	v1,0(v1)
40001ac4:	00000000 	nop
40001ac8:	0062102b 	sltu	v0,v1,v0
40001acc:	1440fff8 	bnez	v0,40001ab0 <puts+0x44>
40001ad0:	00000000 	nop
40001ad4:	3c03ff20 	lui	v1,0xff20
40001ad8:	2402000d 	li	v0,13
40001adc:	34631000 	ori	v1,v1,0x1000
40001ae0:	ac620000 	sw	v0,0(v1)
40001ae4:	90830000 	lbu	v1,0(a0)
40001ae8:	00000000 	nop
40001aec:	24020000 	li	v0,0
40001af0:	3c06ff20 	lui	a2,0xff20
40001af4:	3c050001 	lui	a1,0x1
40001af8:	34c61004 	ori	a2,a2,0x1004
40001afc:	34a50000 	ori	a1,a1,0x0
40001b00:	8cc60000 	lw	a2,0(a2)
40001b04:	00000000 	nop
40001b08:	00c5282b 	sltu	a1,a2,a1
40001b0c:	14a0fff8 	bnez	a1,40001af0 <puts+0x84>
40001b10:	00000000 	nop
40001b14:	00032e00 	sll	a1,v1,0x18
40001b18:	3c03ff20 	lui	v1,0xff20
40001b1c:	24840001 	addiu	a0,a0,1
40001b20:	00052e03 	sra	a1,a1,0x18
40001b24:	34631000 	ori	v1,v1,0x1000
40001b28:	ac650000 	sw	a1,0(v1)
40001b2c:	0800069c 	j	40001a70 <puts+0x4>
40001b30:	00000000 	nop
40001b34:	3c03ff20 	lui	v1,0xff20
40001b38:	3c020001 	lui	v0,0x1
40001b3c:	34631004 	ori	v1,v1,0x1004
40001b40:	34420000 	ori	v0,v0,0x0
40001b44:	8c630000 	lw	v1,0(v1)
40001b48:	00000000 	nop
40001b4c:	0062102b 	sltu	v0,v1,v0
40001b50:	1440fff8 	bnez	v0,40001b34 <puts+0xc8>
40001b54:	00000000 	nop
40001b58:	3c03ff20 	lui	v1,0xff20
40001b5c:	2402000a 	li	v0,10
40001b60:	34631000 	ori	v1,v1,0x1000
40001b64:	ac620000 	sw	v0,0(v1)
40001b68:	24020000 	li	v0,0
40001b6c:	03e00008 	jr	ra
40001b70:	00000000 	nop

40001b74 <printf>:
40001b74:	27bdffb8 	addiu	sp,sp,-72
40001b78:	afbf0044 	sw	ra,68(sp)
40001b7c:	afb30040 	sw	s3,64(sp)
40001b80:	afb2003c 	sw	s2,60(sp)
40001b84:	afb10038 	sw	s1,56(sp)
40001b88:	afb00034 	sw	s0,52(sp)
40001b8c:	00048021 	addu	s0,zero,a0
40001b90:	24020000 	li	v0,0
40001b94:	27a3004c 	addiu	v1,sp,76
40001b98:	afa5004c 	sw	a1,76(sp)
40001b9c:	afa60050 	sw	a2,80(sp)
40001ba0:	afa70054 	sw	a3,84(sp)
40001ba4:	afa30010 	sw	v1,16(sp)
40001ba8:	00028821 	addu	s1,zero,v0
40001bac:	02022021 	addu	a0,s0,v0
40001bb0:	90830000 	lbu	v1,0(a0)
40001bb4:	00000000 	nop
40001bb8:	10600374 	beqz	v1,4000298c <printf+0xe18>
40001bbc:	00000000 	nop
40001bc0:	2405000d 	li	a1,13
40001bc4:	14650005 	bne	v1,a1,40001bdc <printf+0x68>
40001bc8:	00000000 	nop
40001bcc:	2403000d 	li	v1,13
40001bd0:	24110001 	li	s1,1
40001bd4:	08000a52 	j	40002948 <printf+0xdd4>
40001bd8:	00000000 	nop
40001bdc:	24050025 	li	a1,37
40001be0:	14650344 	bne	v1,a1,400028f4 <printf+0xd80>
40001be4:	00000000 	nop
40001be8:	02021821 	addu	v1,s0,v0
40001bec:	90640001 	lbu	a0,1(v1)
40001bf0:	00000000 	nop
40001bf4:	2483ffd0 	addiu	v1,a0,-48
40001bf8:	306300ff 	andi	v1,v1,0xff
40001bfc:	24520001 	addiu	s2,v0,1
40001c00:	2c65000a 	sltiu	a1,v1,10
40001c04:	00021821 	addu	v1,zero,v0
40001c08:	00121021 	addu	v0,zero,s2
40001c0c:	14a0fff6 	bnez	a1,40001be8 <printf+0x74>
40001c10:	00000000 	nop
40001c14:	308200ff 	andi	v0,a0,0xff
40001c18:	2404006c 	li	a0,108
40001c1c:	00441026 	xor	v0,v0,a0
40001c20:	14400002 	bnez	v0,40001c2c <printf+0xb8>
40001c24:	00000000 	nop
40001c28:	24720002 	addiu	s2,v1,2
40001c2c:	02121021 	addu	v0,s0,s2
40001c30:	80430000 	lb	v1,0(v0)
40001c34:	00000000 	nop
40001c38:	24040057 	li	a0,87
40001c3c:	0083202a 	slt	a0,a0,v1
40001c40:	14800011 	bnez	a0,40001c88 <printf+0x114>
40001c44:	00000000 	nop
40001c48:	24040025 	li	a0,37
40001c4c:	1464030b 	bne	v1,a0,4000287c <printf+0xd08>
40001c50:	00000000 	nop
40001c54:	3c03ff20 	lui	v1,0xff20
40001c58:	3c020001 	lui	v0,0x1
40001c5c:	34631004 	ori	v1,v1,0x1004
40001c60:	34420000 	ori	v0,v0,0x0
40001c64:	8c630000 	lw	v1,0(v1)
40001c68:	00000000 	nop
40001c6c:	0062102b 	sltu	v0,v1,v0
40001c70:	1440fff8 	bnez	v0,40001c54 <printf+0xe0>
40001c74:	00000000 	nop
40001c78:	3c03ff20 	lui	v1,0xff20
40001c7c:	24020025 	li	v0,37
40001c80:	08000a38 	j	400028e0 <printf+0xd6c>
40001c84:	00000000 	nop
40001c88:	24040062 	li	a0,98
40001c8c:	0083202a 	slt	a0,a0,v1
40001c90:	14800010 	bnez	a0,40001cd4 <printf+0x160>
40001c94:	00000000 	nop
40001c98:	24040058 	li	a0,88
40001c9c:	146402f7 	bne	v1,a0,4000287c <printf+0xd08>
40001ca0:	00000000 	nop
40001ca4:	8fa30010 	lw	v1,16(sp)
40001ca8:	00000000 	nop
40001cac:	24640004 	addiu	a0,v1,4
40001cb0:	3c024000 	lui	v0,0x4000
40001cb4:	afa40010 	sw	a0,16(sp)
40001cb8:	8c640000 	lw	a0,0(v1)
40001cbc:	00000000 	nop
40001cc0:	148000e4 	bnez	a0,40002054 <printf+0x4e0>
40001cc4:	00000000 	nop
40001cc8:	24443271 	addiu	a0,v0,12913
40001ccc:	0800083d 	j	400020f4 <printf+0x580>
40001cd0:	00000000 	nop
40001cd4:	24040072 	li	a0,114
40001cd8:	0083202a 	slt	a0,a0,v1
40001cdc:	1480000e 	bnez	a0,40001d18 <printf+0x1a4>
40001ce0:	00000000 	nop
40001ce4:	2463ff9d 	addiu	v1,v1,-99
40001ce8:	24040009 	li	a0,9
40001cec:	0083202b 	sltu	a0,a0,v1
40001cf0:	148002e2 	bnez	a0,4000287c <printf+0xd08>
40001cf4:	00000000 	nop
40001cf8:	3c044000 	lui	a0,0x4000
40001cfc:	00031880 	sll	v1,v1,0x2
40001d00:	24843204 	addiu	a0,a0,12804
40001d04:	00641821 	addu	v1,v1,a0
40001d08:	8c630000 	lw	v1,0(v1)
40001d0c:	00000000 	nop
40001d10:	00600008 	jr	v1
40001d14:	00000000 	nop
40001d18:	24040073 	li	a0,115
40001d1c:	10640057 	beq	v1,a0,40001e7c <printf+0x308>
40001d20:	00000000 	nop
40001d24:	24040075 	li	a0,117
40001d28:	10640032 	beq	v1,a0,40001df4 <printf+0x280>
40001d2c:	00000000 	nop
40001d30:	24040078 	li	a0,120
40001d34:	146402d1 	bne	v1,a0,4000287c <printf+0xd08>
40001d38:	00000000 	nop
40001d3c:	8fa30010 	lw	v1,16(sp)
40001d40:	00000000 	nop
40001d44:	24640004 	addiu	a0,v1,4
40001d48:	3c024000 	lui	v0,0x4000
40001d4c:	afa40010 	sw	a0,16(sp)
40001d50:	8c640000 	lw	a0,0(v1)
40001d54:	00000000 	nop
40001d58:	1480007c 	bnez	a0,40001f4c <printf+0x3d8>
40001d5c:	00000000 	nop
40001d60:	24443271 	addiu	a0,v0,12913
40001d64:	080007fb 	j	40001fec <printf+0x478>
40001d68:	00000000 	nop
40001d6c:	8fa20010 	lw	v0,16(sp)
40001d70:	00000000 	nop
40001d74:	24430004 	addiu	v1,v0,4
40001d78:	afa30010 	sw	v1,16(sp)
40001d7c:	8c440000 	lw	a0,0(v0)
40001d80:	00000000 	nop
40001d84:	0c0004c0 	jal	40001300 <itoa>
40001d88:	00000000 	nop
40001d8c:	90430000 	lbu	v1,0(v0)
40001d90:	00000000 	nop
40001d94:	106002d4 	beqz	v1,400028e8 <printf+0xd74>
40001d98:	00000000 	nop
40001d9c:	24420001 	addiu	v0,v0,1
40001da0:	3c05ff20 	lui	a1,0xff20
40001da4:	3c040001 	lui	a0,0x1
40001da8:	34a51004 	ori	a1,a1,0x1004
40001dac:	34840000 	ori	a0,a0,0x0
40001db0:	8ca50000 	lw	a1,0(a1)
40001db4:	00000000 	nop
40001db8:	00a4202b 	sltu	a0,a1,a0
40001dbc:	1480fff8 	bnez	a0,40001da0 <printf+0x22c>
40001dc0:	00000000 	nop
40001dc4:	00031e00 	sll	v1,v1,0x18
40001dc8:	3c04ff20 	lui	a0,0xff20
40001dcc:	00031e03 	sra	v1,v1,0x18
40001dd0:	34841000 	ori	a0,a0,0x1000
40001dd4:	ac830000 	sw	v1,0(a0)
40001dd8:	90430000 	lbu	v1,0(v0)
40001ddc:	00000000 	nop
40001de0:	24420001 	addiu	v0,v0,1
40001de4:	1460ffee 	bnez	v1,40001da0 <printf+0x22c>
40001de8:	00000000 	nop
40001dec:	08000a3a 	j	400028e8 <printf+0xd74>
40001df0:	00000000 	nop
40001df4:	8fa20010 	lw	v0,16(sp)
40001df8:	00000000 	nop
40001dfc:	24430004 	addiu	v1,v0,4
40001e00:	afa30010 	sw	v1,16(sp)
40001e04:	8c440000 	lw	a0,0(v0)
40001e08:	00000000 	nop
40001e0c:	0c0005ce 	jal	40001738 <utoa>
40001e10:	00000000 	nop
40001e14:	90430000 	lbu	v1,0(v0)
40001e18:	00000000 	nop
40001e1c:	106002b2 	beqz	v1,400028e8 <printf+0xd74>
40001e20:	00000000 	nop
40001e24:	24420001 	addiu	v0,v0,1
40001e28:	3c05ff20 	lui	a1,0xff20
40001e2c:	3c040001 	lui	a0,0x1
40001e30:	34a51004 	ori	a1,a1,0x1004
40001e34:	34840000 	ori	a0,a0,0x0
40001e38:	8ca50000 	lw	a1,0(a1)
40001e3c:	00000000 	nop
40001e40:	00a4202b 	sltu	a0,a1,a0
40001e44:	1480fff8 	bnez	a0,40001e28 <printf+0x2b4>
40001e48:	00000000 	nop
40001e4c:	00031e00 	sll	v1,v1,0x18
40001e50:	3c04ff20 	lui	a0,0xff20
40001e54:	00031e03 	sra	v1,v1,0x18
40001e58:	34841000 	ori	a0,a0,0x1000
40001e5c:	ac830000 	sw	v1,0(a0)
40001e60:	90430000 	lbu	v1,0(v0)
40001e64:	00000000 	nop
40001e68:	24420001 	addiu	v0,v0,1
40001e6c:	1460ffee 	bnez	v1,40001e28 <printf+0x2b4>
40001e70:	00000000 	nop
40001e74:	08000a3a 	j	400028e8 <printf+0xd74>
40001e78:	00000000 	nop
40001e7c:	8fa20010 	lw	v0,16(sp)
40001e80:	00000000 	nop
40001e84:	24430004 	addiu	v1,v0,4
40001e88:	afa30010 	sw	v1,16(sp)
40001e8c:	8c420000 	lw	v0,0(v0)
40001e90:	00000000 	nop
40001e94:	90430000 	lbu	v1,0(v0)
40001e98:	00000000 	nop
40001e9c:	10600292 	beqz	v1,400028e8 <printf+0xd74>
40001ea0:	00000000 	nop
40001ea4:	24420001 	addiu	v0,v0,1
40001ea8:	3c05ff20 	lui	a1,0xff20
40001eac:	3c040001 	lui	a0,0x1
40001eb0:	34a51004 	ori	a1,a1,0x1004
40001eb4:	34840000 	ori	a0,a0,0x0
40001eb8:	8ca50000 	lw	a1,0(a1)
40001ebc:	00000000 	nop
40001ec0:	00a4202b 	sltu	a0,a1,a0
40001ec4:	1480fff8 	bnez	a0,40001ea8 <printf+0x334>
40001ec8:	00000000 	nop
40001ecc:	00031e00 	sll	v1,v1,0x18
40001ed0:	3c04ff20 	lui	a0,0xff20
40001ed4:	00031e03 	sra	v1,v1,0x18
40001ed8:	34841000 	ori	a0,a0,0x1000
40001edc:	ac830000 	sw	v1,0(a0)
40001ee0:	90430000 	lbu	v1,0(v0)
40001ee4:	00000000 	nop
40001ee8:	24420001 	addiu	v0,v0,1
40001eec:	1460ffee 	bnez	v1,40001ea8 <printf+0x334>
40001ef0:	00000000 	nop
40001ef4:	08000a3a 	j	400028e8 <printf+0xd74>
40001ef8:	00000000 	nop
40001efc:	8fa20010 	lw	v0,16(sp)
40001f00:	00000000 	nop
40001f04:	24430004 	addiu	v1,v0,4
40001f08:	afa30010 	sw	v1,16(sp)
40001f0c:	8c420000 	lw	v0,0(v0)
40001f10:	00000000 	nop
40001f14:	3c04ff20 	lui	a0,0xff20
40001f18:	3c030001 	lui	v1,0x1
40001f1c:	34841004 	ori	a0,a0,0x1004
40001f20:	34630000 	ori	v1,v1,0x0
40001f24:	8c840000 	lw	a0,0(a0)
40001f28:	00000000 	nop
40001f2c:	0083182b 	sltu	v1,a0,v1
40001f30:	1460fff8 	bnez	v1,40001f14 <printf+0x3a0>
40001f34:	00000000 	nop
40001f38:	00021600 	sll	v0,v0,0x18
40001f3c:	3c03ff20 	lui	v1,0xff20
40001f40:	00021603 	sra	v0,v0,0x18
40001f44:	08000a38 	j	400028e0 <printf+0xd6c>
40001f48:	00000000 	nop
40001f4c:	24050000 	li	a1,0
40001f50:	00051821 	addu	v1,zero,a1
40001f54:	3086000f 	andi	a2,a0,0xf
40001f58:	2cc2000a 	sltiu	v0,a2,10
40001f5c:	14400004 	bnez	v0,40001f70 <printf+0x3fc>
40001f60:	00000000 	nop
40001f64:	24070057 	li	a3,87
40001f68:	080007dd 	j	40001f74 <printf+0x400>
40001f6c:	00000000 	nop
40001f70:	24070030 	li	a3,48
40001f74:	27a20014 	addiu	v0,sp,20
40001f78:	00042102 	srl	a0,a0,0x4
40001f7c:	24650001 	addiu	a1,v1,1
40001f80:	00e63021 	addu	a2,a3,a2
40001f84:	00433821 	addu	a3,v0,v1
40001f88:	a0e60000 	sb	a2,0(a3)
40001f8c:	1480fff0 	bnez	a0,40001f50 <printf+0x3dc>
40001f90:	00000000 	nop
40001f94:	3c044000 	lui	a0,0x4000
40001f98:	24843c20 	addiu	a0,a0,15392
40001f9c:	24060000 	li	a2,0
40001fa0:	00853821 	addu	a3,a0,a1
40001fa4:	a0e60000 	sb	a2,0(a3)
40001fa8:	04600010 	bltz	v1,40001fec <printf+0x478>
40001fac:	00000000 	nop
40001fb0:	3c044000 	lui	a0,0x4000
40001fb4:	24030000 	li	v1,0
40001fb8:	00651823 	subu	v1,v1,a1
40001fbc:	24843c20 	addiu	a0,a0,15392
40001fc0:	3c054000 	lui	a1,0x4000
40001fc4:	00433023 	subu	a2,v0,v1
40001fc8:	90c6ffff 	lbu	a2,-1(a2)
40001fcc:	00000000 	nop
40001fd0:	24630001 	addiu	v1,v1,1
40001fd4:	24870001 	addiu	a3,a0,1
40001fd8:	a0860000 	sb	a2,0(a0)
40001fdc:	00072021 	addu	a0,zero,a3
40001fe0:	1460fff7 	bnez	v1,40001fc0 <printf+0x44c>
40001fe4:	00000000 	nop
40001fe8:	24a43c20 	addiu	a0,a1,15392
40001fec:	90830000 	lbu	v1,0(a0)
40001ff0:	00000000 	nop
40001ff4:	1060023c 	beqz	v1,400028e8 <printf+0xd74>
40001ff8:	00000000 	nop
40001ffc:	24820001 	addiu	v0,a0,1
40002000:	3c05ff20 	lui	a1,0xff20
40002004:	3c040001 	lui	a0,0x1
40002008:	34a51004 	ori	a1,a1,0x1004
4000200c:	34840000 	ori	a0,a0,0x0
40002010:	8ca50000 	lw	a1,0(a1)
40002014:	00000000 	nop
40002018:	00a4202b 	sltu	a0,a1,a0
4000201c:	1480fff8 	bnez	a0,40002000 <printf+0x48c>
40002020:	00000000 	nop
40002024:	00031e00 	sll	v1,v1,0x18
40002028:	3c04ff20 	lui	a0,0xff20
4000202c:	00031e03 	sra	v1,v1,0x18
40002030:	34841000 	ori	a0,a0,0x1000
40002034:	ac830000 	sw	v1,0(a0)
40002038:	90430000 	lbu	v1,0(v0)
4000203c:	00000000 	nop
40002040:	24420001 	addiu	v0,v0,1
40002044:	1460ffee 	bnez	v1,40002000 <printf+0x48c>
40002048:	00000000 	nop
4000204c:	08000a3a 	j	400028e8 <printf+0xd74>
40002050:	00000000 	nop
40002054:	24050000 	li	a1,0
40002058:	00051821 	addu	v1,zero,a1
4000205c:	3086000f 	andi	a2,a0,0xf
40002060:	2cc2000a 	sltiu	v0,a2,10
40002064:	14400004 	bnez	v0,40002078 <printf+0x504>
40002068:	00000000 	nop
4000206c:	24070037 	li	a3,55
40002070:	0800081f 	j	4000207c <printf+0x508>
40002074:	00000000 	nop
40002078:	24070030 	li	a3,48
4000207c:	27a20014 	addiu	v0,sp,20
40002080:	00042102 	srl	a0,a0,0x4
40002084:	24650001 	addiu	a1,v1,1
40002088:	00e63021 	addu	a2,a3,a2
4000208c:	00433821 	addu	a3,v0,v1
40002090:	a0e60000 	sb	a2,0(a3)
40002094:	1480fff0 	bnez	a0,40002058 <printf+0x4e4>
40002098:	00000000 	nop
4000209c:	3c044000 	lui	a0,0x4000
400020a0:	24843c20 	addiu	a0,a0,15392
400020a4:	24060000 	li	a2,0
400020a8:	00853821 	addu	a3,a0,a1
400020ac:	a0e60000 	sb	a2,0(a3)
400020b0:	04600010 	bltz	v1,400020f4 <printf+0x580>
400020b4:	00000000 	nop
400020b8:	3c044000 	lui	a0,0x4000
400020bc:	24030000 	li	v1,0
400020c0:	00651823 	subu	v1,v1,a1
400020c4:	24843c20 	addiu	a0,a0,15392
400020c8:	3c054000 	lui	a1,0x4000
400020cc:	00433023 	subu	a2,v0,v1
400020d0:	90c6ffff 	lbu	a2,-1(a2)
400020d4:	00000000 	nop
400020d8:	24630001 	addiu	v1,v1,1
400020dc:	24870001 	addiu	a3,a0,1
400020e0:	a0860000 	sb	a2,0(a0)
400020e4:	00072021 	addu	a0,zero,a3
400020e8:	1460fff7 	bnez	v1,400020c8 <printf+0x554>
400020ec:	00000000 	nop
400020f0:	24a43c20 	addiu	a0,a1,15392
400020f4:	90830000 	lbu	v1,0(a0)
400020f8:	00000000 	nop
400020fc:	106001fa 	beqz	v1,400028e8 <printf+0xd74>
40002100:	00000000 	nop
40002104:	24820001 	addiu	v0,a0,1
40002108:	3c05ff20 	lui	a1,0xff20
4000210c:	3c040001 	lui	a0,0x1
40002110:	34a51004 	ori	a1,a1,0x1004
40002114:	34840000 	ori	a0,a0,0x0
40002118:	8ca50000 	lw	a1,0(a1)
4000211c:	00000000 	nop
40002120:	00a4202b 	sltu	a0,a1,a0
40002124:	1480fff8 	bnez	a0,40002108 <printf+0x594>
40002128:	00000000 	nop
4000212c:	00031e00 	sll	v1,v1,0x18
40002130:	3c04ff20 	lui	a0,0xff20
40002134:	00031e03 	sra	v1,v1,0x18
40002138:	34841000 	ori	a0,a0,0x1000
4000213c:	ac830000 	sw	v1,0(a0)
40002140:	90430000 	lbu	v1,0(v0)
40002144:	00000000 	nop
40002148:	24420001 	addiu	v0,v0,1
4000214c:	1460ffee 	bnez	v1,40002108 <printf+0x594>
40002150:	00000000 	nop
40002154:	08000a3a 	j	400028e8 <printf+0xd74>
40002158:	00000000 	nop
4000215c:	26530001 	addiu	s3,s2,1
40002160:	02131021 	addu	v0,s0,s3
40002164:	80420000 	lb	v0,0(v0)
40002168:	00000000 	nop
4000216c:	24030058 	li	v1,88
40002170:	10430091 	beq	v0,v1,400023b8 <printf+0x844>
40002174:	00000000 	nop
40002178:	24030078 	li	v1,120
4000217c:	1043002c 	beq	v0,v1,40002230 <printf+0x6bc>
40002180:	00000000 	nop
40002184:	24030064 	li	v1,100
40002188:	144301d7 	bne	v0,v1,400028e8 <printf+0xd74>
4000218c:	00000000 	nop
40002190:	8fa20010 	lw	v0,16(sp)
40002194:	00000000 	nop
40002198:	24430008 	addiu	v1,v0,8
4000219c:	afa30010 	sw	v1,16(sp)
400021a0:	8c440004 	lw	a0,4(v0)
400021a4:	00000000 	nop
400021a8:	0c0004c0 	jal	40001300 <itoa>
400021ac:	00000000 	nop
400021b0:	90430000 	lbu	v1,0(v0)
400021b4:	00000000 	nop
400021b8:	14600005 	bnez	v1,400021d0 <printf+0x65c>
400021bc:	00000000 	nop
400021c0:	00139021 	addu	s2,zero,s3
400021c4:	26420001 	addiu	v0,s2,1
400021c8:	080006eb 	j	40001bac <printf+0x38>
400021cc:	00000000 	nop
400021d0:	24420001 	addiu	v0,v0,1
400021d4:	3c05ff20 	lui	a1,0xff20
400021d8:	3c040001 	lui	a0,0x1
400021dc:	34a51004 	ori	a1,a1,0x1004
400021e0:	34840000 	ori	a0,a0,0x0
400021e4:	8ca50000 	lw	a1,0(a1)
400021e8:	00000000 	nop
400021ec:	00a4202b 	sltu	a0,a1,a0
400021f0:	1480fff8 	bnez	a0,400021d4 <printf+0x660>
400021f4:	00000000 	nop
400021f8:	00031e00 	sll	v1,v1,0x18
400021fc:	3c04ff20 	lui	a0,0xff20
40002200:	00031e03 	sra	v1,v1,0x18
40002204:	34841000 	ori	a0,a0,0x1000
40002208:	ac830000 	sw	v1,0(a0)
4000220c:	90430000 	lbu	v1,0(v0)
40002210:	00000000 	nop
40002214:	24420001 	addiu	v0,v0,1
40002218:	1460ffee 	bnez	v1,400021d4 <printf+0x660>
4000221c:	00000000 	nop
40002220:	00139021 	addu	s2,zero,s3
40002224:	26420001 	addiu	v0,s2,1
40002228:	080006eb 	j	40001bac <printf+0x38>
4000222c:	00000000 	nop
40002230:	8fa20010 	lw	v0,16(sp)
40002234:	00000000 	nop
40002238:	24430004 	addiu	v1,v0,4
4000223c:	afa30010 	sw	v1,16(sp)
40002240:	8c430000 	lw	v1,0(v0)
40002244:	00000000 	nop
40002248:	24440008 	addiu	a0,v0,8
4000224c:	3c054000 	lui	a1,0x4000
40002250:	afa40010 	sw	a0,16(sp)
40002254:	8c440004 	lw	a0,4(v0)
40002258:	00000000 	nop
4000225c:	00641025 	or	v0,v1,a0
40002260:	1440000a 	bnez	v0,4000228c <printf+0x718>
40002264:	00000000 	nop
40002268:	24a73271 	addiu	a3,a1,12913
4000226c:	90e30000 	lbu	v1,0(a3)
40002270:	00000000 	nop
40002274:	14600038 	bnez	v1,40002358 <printf+0x7e4>
40002278:	00000000 	nop
4000227c:	00139021 	addu	s2,zero,s3
40002280:	26420001 	addiu	v0,s2,1
40002284:	080006eb 	j	40001bac <printf+0x38>
40002288:	00000000 	nop
4000228c:	24060000 	li	a2,0
40002290:	00062821 	addu	a1,zero,a2
40002294:	3067000f 	andi	a3,v1,0xf
40002298:	2ce2000a 	sltiu	v0,a3,10
4000229c:	14400004 	bnez	v0,400022b0 <printf+0x73c>
400022a0:	00000000 	nop
400022a4:	24080057 	li	t0,87
400022a8:	080008ad 	j	400022b4 <printf+0x740>
400022ac:	00000000 	nop
400022b0:	24080030 	li	t0,48
400022b4:	27a20020 	addiu	v0,sp,32
400022b8:	00031902 	srl	v1,v1,0x4
400022bc:	00044f00 	sll	t1,a0,0x1c
400022c0:	24a60001 	addiu	a2,a1,1
400022c4:	00691825 	or	v1,v1,t1
400022c8:	00042102 	srl	a0,a0,0x4
400022cc:	01074021 	addu	t0,t0,a3
400022d0:	00454821 	addu	t1,v0,a1
400022d4:	00643825 	or	a3,v1,a0
400022d8:	a1280000 	sb	t0,0(t1)
400022dc:	14e0ffec 	bnez	a3,40002290 <printf+0x71c>
400022e0:	00000000 	nop
400022e4:	3c034000 	lui	v1,0x4000
400022e8:	24673c29 	addiu	a3,v1,15401
400022ec:	24030000 	li	v1,0
400022f0:	00e62021 	addu	a0,a3,a2
400022f4:	a0830000 	sb	v1,0(a0)
400022f8:	04a0ffdc 	bltz	a1,4000226c <printf+0x6f8>
400022fc:	00000000 	nop
40002300:	24030000 	li	v1,0
40002304:	24c4ffff 	addiu	a0,a2,-1
40002308:	00032821 	addu	a1,zero,v1
4000230c:	3c074000 	lui	a3,0x4000
40002310:	00443021 	addu	a2,v0,a0
40002314:	24e73c29 	addiu	a3,a3,15401
40002318:	90c80000 	lbu	t0,0(a2)
4000231c:	00000000 	nop
40002320:	00e34821 	addu	t1,a3,v1
40002324:	28860001 	slti	a2,a0,1
40002328:	a1280000 	sb	t0,0(t1)
4000232c:	14c0ffcf 	bnez	a2,4000226c <printf+0x6f8>
40002330:	00000000 	nop
40002334:	24630001 	addiu	v1,v1,1
40002338:	24060001 	li	a2,1
4000233c:	0066302b 	sltu	a2,v1,a2
40002340:	24070000 	li	a3,0
40002344:	00c73021 	addu	a2,a2,a3
40002348:	2484ffff 	addiu	a0,a0,-1
4000234c:	00a62821 	addu	a1,a1,a2
40002350:	080008c3 	j	4000230c <printf+0x798>
40002354:	00000000 	nop
40002358:	24e20001 	addiu	v0,a3,1
4000235c:	3c05ff20 	lui	a1,0xff20
40002360:	3c040001 	lui	a0,0x1
40002364:	34a51004 	ori	a1,a1,0x1004
40002368:	34840000 	ori	a0,a0,0x0
4000236c:	8ca50000 	lw	a1,0(a1)
40002370:	00000000 	nop
40002374:	00a4202b 	sltu	a0,a1,a0
40002378:	1480fff8 	bnez	a0,4000235c <printf+0x7e8>
4000237c:	00000000 	nop
40002380:	00031e00 	sll	v1,v1,0x18
40002384:	3c04ff20 	lui	a0,0xff20
40002388:	00031e03 	sra	v1,v1,0x18
4000238c:	34841000 	ori	a0,a0,0x1000
40002390:	ac830000 	sw	v1,0(a0)
40002394:	90430000 	lbu	v1,0(v0)
40002398:	00000000 	nop
4000239c:	24420001 	addiu	v0,v0,1
400023a0:	1460ffee 	bnez	v1,4000235c <printf+0x7e8>
400023a4:	00000000 	nop
400023a8:	00139021 	addu	s2,zero,s3
400023ac:	26420001 	addiu	v0,s2,1
400023b0:	080006eb 	j	40001bac <printf+0x38>
400023b4:	00000000 	nop
400023b8:	8fa20010 	lw	v0,16(sp)
400023bc:	00000000 	nop
400023c0:	24430004 	addiu	v1,v0,4
400023c4:	afa30010 	sw	v1,16(sp)
400023c8:	8c430000 	lw	v1,0(v0)
400023cc:	00000000 	nop
400023d0:	24440008 	addiu	a0,v0,8
400023d4:	3c054000 	lui	a1,0x4000
400023d8:	afa40010 	sw	a0,16(sp)
400023dc:	8c440004 	lw	a0,4(v0)
400023e0:	00000000 	nop
400023e4:	00641025 	or	v0,v1,a0
400023e8:	1440000a 	bnez	v0,40002414 <printf+0x8a0>
400023ec:	00000000 	nop
400023f0:	24a73271 	addiu	a3,a1,12913
400023f4:	90e30000 	lbu	v1,0(a3)
400023f8:	00000000 	nop
400023fc:	14600038 	bnez	v1,400024e0 <printf+0x96c>
40002400:	00000000 	nop
40002404:	00139021 	addu	s2,zero,s3
40002408:	26420001 	addiu	v0,s2,1
4000240c:	080006eb 	j	40001bac <printf+0x38>
40002410:	00000000 	nop
40002414:	24060000 	li	a2,0
40002418:	00062821 	addu	a1,zero,a2
4000241c:	3067000f 	andi	a3,v1,0xf
40002420:	2ce2000a 	sltiu	v0,a3,10
40002424:	14400004 	bnez	v0,40002438 <printf+0x8c4>
40002428:	00000000 	nop
4000242c:	24080037 	li	t0,55
40002430:	0800090f 	j	4000243c <printf+0x8c8>
40002434:	00000000 	nop
40002438:	24080030 	li	t0,48
4000243c:	27a20020 	addiu	v0,sp,32
40002440:	00031902 	srl	v1,v1,0x4
40002444:	00044f00 	sll	t1,a0,0x1c
40002448:	24a60001 	addiu	a2,a1,1
4000244c:	00691825 	or	v1,v1,t1
40002450:	00042102 	srl	a0,a0,0x4
40002454:	01074021 	addu	t0,t0,a3
40002458:	00454821 	addu	t1,v0,a1
4000245c:	00643825 	or	a3,v1,a0
40002460:	a1280000 	sb	t0,0(t1)
40002464:	14e0ffec 	bnez	a3,40002418 <printf+0x8a4>
40002468:	00000000 	nop
4000246c:	3c034000 	lui	v1,0x4000
40002470:	24673c29 	addiu	a3,v1,15401
40002474:	24030000 	li	v1,0
40002478:	00e62021 	addu	a0,a3,a2
4000247c:	a0830000 	sb	v1,0(a0)
40002480:	04a0ffdc 	bltz	a1,400023f4 <printf+0x880>
40002484:	00000000 	nop
40002488:	24030000 	li	v1,0
4000248c:	24c4ffff 	addiu	a0,a2,-1
40002490:	00032821 	addu	a1,zero,v1
40002494:	3c074000 	lui	a3,0x4000
40002498:	00443021 	addu	a2,v0,a0
4000249c:	24e73c29 	addiu	a3,a3,15401
400024a0:	90c80000 	lbu	t0,0(a2)
400024a4:	00000000 	nop
400024a8:	00e34821 	addu	t1,a3,v1
400024ac:	28860001 	slti	a2,a0,1
400024b0:	a1280000 	sb	t0,0(t1)
400024b4:	14c0ffcf 	bnez	a2,400023f4 <printf+0x880>
400024b8:	00000000 	nop
400024bc:	24630001 	addiu	v1,v1,1
400024c0:	24060001 	li	a2,1
400024c4:	0066302b 	sltu	a2,v1,a2
400024c8:	24070000 	li	a3,0
400024cc:	00c73021 	addu	a2,a2,a3
400024d0:	2484ffff 	addiu	a0,a0,-1
400024d4:	00a62821 	addu	a1,a1,a2
400024d8:	08000925 	j	40002494 <printf+0x920>
400024dc:	00000000 	nop
400024e0:	24e20001 	addiu	v0,a3,1
400024e4:	3c05ff20 	lui	a1,0xff20
400024e8:	3c040001 	lui	a0,0x1
400024ec:	34a51004 	ori	a1,a1,0x1004
400024f0:	34840000 	ori	a0,a0,0x0
400024f4:	8ca50000 	lw	a1,0(a1)
400024f8:	00000000 	nop
400024fc:	00a4202b 	sltu	a0,a1,a0
40002500:	1480fff8 	bnez	a0,400024e4 <printf+0x970>
40002504:	00000000 	nop
40002508:	00031e00 	sll	v1,v1,0x18
4000250c:	3c04ff20 	lui	a0,0xff20
40002510:	00031e03 	sra	v1,v1,0x18
40002514:	34841000 	ori	a0,a0,0x1000
40002518:	ac830000 	sw	v1,0(a0)
4000251c:	90430000 	lbu	v1,0(v0)
40002520:	00000000 	nop
40002524:	24420001 	addiu	v0,v0,1
40002528:	1460ffee 	bnez	v1,400024e4 <printf+0x970>
4000252c:	00000000 	nop
40002530:	00139021 	addu	s2,zero,s3
40002534:	26420001 	addiu	v0,s2,1
40002538:	080006eb 	j	40001bac <printf+0x38>
4000253c:	00000000 	nop
40002540:	8fa20010 	lw	v0,16(sp)
40002544:	00000000 	nop
40002548:	24440004 	addiu	a0,v0,4
4000254c:	26430001 	addiu	v1,s2,1
40002550:	afa40010 	sw	a0,16(sp)
40002554:	02032021 	addu	a0,s0,v1
40002558:	90840000 	lbu	a0,0(a0)
4000255c:	00000000 	nop
40002560:	24050068 	li	a1,104
40002564:	00852026 	xor	a0,a0,a1
40002568:	14800002 	bnez	a0,40002574 <printf+0xa00>
4000256c:	00000000 	nop
40002570:	00039021 	addu	s2,zero,v1
40002574:	26520001 	addiu	s2,s2,1
40002578:	10800004 	beqz	a0,4000258c <printf+0xa18>
4000257c:	00000000 	nop
40002580:	3403ffff 	li	v1,0xffff
40002584:	08000964 	j	40002590 <printf+0xa1c>
40002588:	00000000 	nop
4000258c:	240300ff 	li	v1,255
40002590:	02122821 	addu	a1,s0,s2
40002594:	8c440000 	lw	a0,0(v0)
40002598:	00000000 	nop
4000259c:	80a20000 	lb	v0,0(a1)
400025a0:	00000000 	nop
400025a4:	00642024 	and	a0,v1,a0
400025a8:	24030058 	li	v1,88
400025ac:	1043006b 	beq	v0,v1,4000275c <printf+0xbe8>
400025b0:	00000000 	nop
400025b4:	24030078 	li	v1,120
400025b8:	10430020 	beq	v0,v1,4000263c <printf+0xac8>
400025bc:	00000000 	nop
400025c0:	24030064 	li	v1,100
400025c4:	144300c8 	bne	v0,v1,400028e8 <printf+0xd74>
400025c8:	00000000 	nop
400025cc:	0c0004c0 	jal	40001300 <itoa>
400025d0:	00000000 	nop
400025d4:	90430000 	lbu	v1,0(v0)
400025d8:	00000000 	nop
400025dc:	106000c2 	beqz	v1,400028e8 <printf+0xd74>
400025e0:	00000000 	nop
400025e4:	24420001 	addiu	v0,v0,1
400025e8:	3c05ff20 	lui	a1,0xff20
400025ec:	3c040001 	lui	a0,0x1
400025f0:	34a51004 	ori	a1,a1,0x1004
400025f4:	34840000 	ori	a0,a0,0x0
400025f8:	8ca50000 	lw	a1,0(a1)
400025fc:	00000000 	nop
40002600:	00a4202b 	sltu	a0,a1,a0
40002604:	1480fff8 	bnez	a0,400025e8 <printf+0xa74>
40002608:	00000000 	nop
4000260c:	00031e00 	sll	v1,v1,0x18
40002610:	3c04ff20 	lui	a0,0xff20
40002614:	00031e03 	sra	v1,v1,0x18
40002618:	34841000 	ori	a0,a0,0x1000
4000261c:	ac830000 	sw	v1,0(a0)
40002620:	90430000 	lbu	v1,0(v0)
40002624:	00000000 	nop
40002628:	24420001 	addiu	v0,v0,1
4000262c:	1460ffee 	bnez	v1,400025e8 <printf+0xa74>
40002630:	00000000 	nop
40002634:	08000a3a 	j	400028e8 <printf+0xd74>
40002638:	00000000 	nop
4000263c:	3c024000 	lui	v0,0x4000
40002640:	14800004 	bnez	a0,40002654 <printf+0xae0>
40002644:	00000000 	nop
40002648:	24443271 	addiu	a0,v0,12913
4000264c:	080009bd 	j	400026f4 <printf+0xb80>
40002650:	00000000 	nop
40002654:	24050000 	li	a1,0
40002658:	00051821 	addu	v1,zero,a1
4000265c:	3086000f 	andi	a2,a0,0xf
40002660:	2cc2000a 	sltiu	v0,a2,10
40002664:	14400004 	bnez	v0,40002678 <printf+0xb04>
40002668:	00000000 	nop
4000266c:	24070057 	li	a3,87
40002670:	0800099f 	j	4000267c <printf+0xb08>
40002674:	00000000 	nop
40002678:	24070030 	li	a3,48
4000267c:	27a20014 	addiu	v0,sp,20
40002680:	00042102 	srl	a0,a0,0x4
40002684:	24650001 	addiu	a1,v1,1
40002688:	00e63021 	addu	a2,a3,a2
4000268c:	00433821 	addu	a3,v0,v1
40002690:	a0e60000 	sb	a2,0(a3)
40002694:	1480fff0 	bnez	a0,40002658 <printf+0xae4>
40002698:	00000000 	nop
4000269c:	3c044000 	lui	a0,0x4000
400026a0:	24843c20 	addiu	a0,a0,15392
400026a4:	24060000 	li	a2,0
400026a8:	00853821 	addu	a3,a0,a1
400026ac:	a0e60000 	sb	a2,0(a3)
400026b0:	04600010 	bltz	v1,400026f4 <printf+0xb80>
400026b4:	00000000 	nop
400026b8:	3c044000 	lui	a0,0x4000
400026bc:	24030000 	li	v1,0
400026c0:	00651823 	subu	v1,v1,a1
400026c4:	24843c20 	addiu	a0,a0,15392
400026c8:	3c054000 	lui	a1,0x4000
400026cc:	00433023 	subu	a2,v0,v1
400026d0:	90c6ffff 	lbu	a2,-1(a2)
400026d4:	00000000 	nop
400026d8:	24630001 	addiu	v1,v1,1
400026dc:	24870001 	addiu	a3,a0,1
400026e0:	a0860000 	sb	a2,0(a0)
400026e4:	00072021 	addu	a0,zero,a3
400026e8:	1460fff7 	bnez	v1,400026c8 <printf+0xb54>
400026ec:	00000000 	nop
400026f0:	24a43c20 	addiu	a0,a1,15392
400026f4:	90830000 	lbu	v1,0(a0)
400026f8:	00000000 	nop
400026fc:	1060007a 	beqz	v1,400028e8 <printf+0xd74>
40002700:	00000000 	nop
40002704:	24820001 	addiu	v0,a0,1
40002708:	3c05ff20 	lui	a1,0xff20
4000270c:	3c040001 	lui	a0,0x1
40002710:	34a51004 	ori	a1,a1,0x1004
40002714:	34840000 	ori	a0,a0,0x0
40002718:	8ca50000 	lw	a1,0(a1)
4000271c:	00000000 	nop
40002720:	00a4202b 	sltu	a0,a1,a0
40002724:	1480fff8 	bnez	a0,40002708 <printf+0xb94>
40002728:	00000000 	nop
4000272c:	00031e00 	sll	v1,v1,0x18
40002730:	3c04ff20 	lui	a0,0xff20
40002734:	00031e03 	sra	v1,v1,0x18
40002738:	34841000 	ori	a0,a0,0x1000
4000273c:	ac830000 	sw	v1,0(a0)
40002740:	90430000 	lbu	v1,0(v0)
40002744:	00000000 	nop
40002748:	24420001 	addiu	v0,v0,1
4000274c:	1460ffee 	bnez	v1,40002708 <printf+0xb94>
40002750:	00000000 	nop
40002754:	08000a3a 	j	400028e8 <printf+0xd74>
40002758:	00000000 	nop
4000275c:	3c024000 	lui	v0,0x4000
40002760:	14800004 	bnez	a0,40002774 <printf+0xc00>
40002764:	00000000 	nop
40002768:	24443271 	addiu	a0,v0,12913
4000276c:	08000a05 	j	40002814 <printf+0xca0>
40002770:	00000000 	nop
40002774:	24050000 	li	a1,0
40002778:	00051821 	addu	v1,zero,a1
4000277c:	3086000f 	andi	a2,a0,0xf
40002780:	2cc2000a 	sltiu	v0,a2,10
40002784:	14400004 	bnez	v0,40002798 <printf+0xc24>
40002788:	00000000 	nop
4000278c:	24070037 	li	a3,55
40002790:	080009e7 	j	4000279c <printf+0xc28>
40002794:	00000000 	nop
40002798:	24070030 	li	a3,48
4000279c:	27a20014 	addiu	v0,sp,20
400027a0:	00042102 	srl	a0,a0,0x4
400027a4:	24650001 	addiu	a1,v1,1
400027a8:	00e63021 	addu	a2,a3,a2
400027ac:	00433821 	addu	a3,v0,v1
400027b0:	a0e60000 	sb	a2,0(a3)
400027b4:	1480fff0 	bnez	a0,40002778 <printf+0xc04>
400027b8:	00000000 	nop
400027bc:	3c044000 	lui	a0,0x4000
400027c0:	24843c20 	addiu	a0,a0,15392
400027c4:	24060000 	li	a2,0
400027c8:	00853821 	addu	a3,a0,a1
400027cc:	a0e60000 	sb	a2,0(a3)
400027d0:	04600010 	bltz	v1,40002814 <printf+0xca0>
400027d4:	00000000 	nop
400027d8:	3c044000 	lui	a0,0x4000
400027dc:	24030000 	li	v1,0
400027e0:	00651823 	subu	v1,v1,a1
400027e4:	24843c20 	addiu	a0,a0,15392
400027e8:	3c054000 	lui	a1,0x4000
400027ec:	00433023 	subu	a2,v0,v1
400027f0:	90c6ffff 	lbu	a2,-1(a2)
400027f4:	00000000 	nop
400027f8:	24630001 	addiu	v1,v1,1
400027fc:	24870001 	addiu	a3,a0,1
40002800:	a0860000 	sb	a2,0(a0)
40002804:	00072021 	addu	a0,zero,a3
40002808:	1460fff7 	bnez	v1,400027e8 <printf+0xc74>
4000280c:	00000000 	nop
40002810:	24a43c20 	addiu	a0,a1,15392
40002814:	90830000 	lbu	v1,0(a0)
40002818:	00000000 	nop
4000281c:	10600032 	beqz	v1,400028e8 <printf+0xd74>
40002820:	00000000 	nop
40002824:	24820001 	addiu	v0,a0,1
40002828:	3c05ff20 	lui	a1,0xff20
4000282c:	3c040001 	lui	a0,0x1
40002830:	34a51004 	ori	a1,a1,0x1004
40002834:	34840000 	ori	a0,a0,0x0
40002838:	8ca50000 	lw	a1,0(a1)
4000283c:	00000000 	nop
40002840:	00a4202b 	sltu	a0,a1,a0
40002844:	1480fff8 	bnez	a0,40002828 <printf+0xcb4>
40002848:	00000000 	nop
4000284c:	00031e00 	sll	v1,v1,0x18
40002850:	3c04ff20 	lui	a0,0xff20
40002854:	00031e03 	sra	v1,v1,0x18
40002858:	34841000 	ori	a0,a0,0x1000
4000285c:	ac830000 	sw	v1,0(a0)
40002860:	90430000 	lbu	v1,0(v0)
40002864:	00000000 	nop
40002868:	24420001 	addiu	v0,v0,1
4000286c:	1460ffee 	bnez	v1,40002828 <printf+0xcb4>
40002870:	00000000 	nop
40002874:	08000a3a 	j	400028e8 <printf+0xd74>
40002878:	00000000 	nop
4000287c:	3c04ff20 	lui	a0,0xff20
40002880:	3c030001 	lui	v1,0x1
40002884:	34841004 	ori	a0,a0,0x1004
40002888:	34630000 	ori	v1,v1,0x0
4000288c:	8c840000 	lw	a0,0(a0)
40002890:	00000000 	nop
40002894:	0083182b 	sltu	v1,a0,v1
40002898:	1460fff8 	bnez	v1,4000287c <printf+0xd08>
4000289c:	00000000 	nop
400028a0:	3c04ff20 	lui	a0,0xff20
400028a4:	24030025 	li	v1,37
400028a8:	34841000 	ori	a0,a0,0x1000
400028ac:	ac830000 	sw	v1,0(a0)
400028b0:	80420000 	lb	v0,0(v0)
400028b4:	00000000 	nop
400028b8:	3c04ff20 	lui	a0,0xff20
400028bc:	3c030001 	lui	v1,0x1
400028c0:	34841004 	ori	a0,a0,0x1004
400028c4:	34630000 	ori	v1,v1,0x0
400028c8:	8c840000 	lw	a0,0(a0)
400028cc:	00000000 	nop
400028d0:	0083182b 	sltu	v1,a0,v1
400028d4:	1460fff8 	bnez	v1,400028b8 <printf+0xd44>
400028d8:	00000000 	nop
400028dc:	3c03ff20 	lui	v1,0xff20
400028e0:	34631000 	ori	v1,v1,0x1000
400028e4:	ac620000 	sw	v0,0(v1)
400028e8:	26420001 	addiu	v0,s2,1
400028ec:	080006eb 	j	40001bac <printf+0x38>
400028f0:	00000000 	nop
400028f4:	2405000a 	li	a1,10
400028f8:	14650013 	bne	v1,a1,40002948 <printf+0xdd4>
400028fc:	00000000 	nop
40002900:	16200011 	bnez	s1,40002948 <printf+0xdd4>
40002904:	00000000 	nop
40002908:	3c05ff20 	lui	a1,0xff20
4000290c:	3c030001 	lui	v1,0x1
40002910:	34a51004 	ori	a1,a1,0x1004
40002914:	34630000 	ori	v1,v1,0x0
40002918:	8ca50000 	lw	a1,0(a1)
4000291c:	00000000 	nop
40002920:	00a3182b 	sltu	v1,a1,v1
40002924:	1460fff8 	bnez	v1,40002908 <printf+0xd94>
40002928:	00000000 	nop
4000292c:	3c05ff20 	lui	a1,0xff20
40002930:	2403000d 	li	v1,13
40002934:	34a51000 	ori	a1,a1,0x1000
40002938:	aca30000 	sw	v1,0(a1)
4000293c:	90830000 	lbu	v1,0(a0)
40002940:	00000000 	nop
40002944:	24110000 	li	s1,0
40002948:	3c05ff20 	lui	a1,0xff20
4000294c:	3c040001 	lui	a0,0x1
40002950:	34a51004 	ori	a1,a1,0x1004
40002954:	34840000 	ori	a0,a0,0x0
40002958:	8ca50000 	lw	a1,0(a1)
4000295c:	00000000 	nop
40002960:	00a4202b 	sltu	a0,a1,a0
40002964:	1480fff8 	bnez	a0,40002948 <printf+0xdd4>
40002968:	00000000 	nop
4000296c:	00032600 	sll	a0,v1,0x18
40002970:	3c03ff20 	lui	v1,0xff20
40002974:	24420001 	addiu	v0,v0,1
40002978:	00042603 	sra	a0,a0,0x18
4000297c:	34631000 	ori	v1,v1,0x1000
40002980:	ac640000 	sw	a0,0(v1)
40002984:	080006eb 	j	40001bac <printf+0x38>
40002988:	00000000 	nop
4000298c:	24020000 	li	v0,0
40002990:	8fb00034 	lw	s0,52(sp)
40002994:	00000000 	nop
40002998:	8fb10038 	lw	s1,56(sp)
4000299c:	00000000 	nop
400029a0:	8fb2003c 	lw	s2,60(sp)
400029a4:	00000000 	nop
400029a8:	8fb30040 	lw	s3,64(sp)
400029ac:	00000000 	nop
400029b0:	8fbf0044 	lw	ra,68(sp)
400029b4:	00000000 	nop
400029b8:	27bd0048 	addiu	sp,sp,72
400029bc:	03e00008 	jr	ra
400029c0:	00000000 	nop

400029c4 <exit>:
400029c4:	27bdffe8 	addiu	sp,sp,-24
400029c8:	afbf0014 	sw	ra,20(sp)
400029cc:	00041021 	addu	v0,zero,a0
400029d0:	3c034000 	lui	v1,0x4000
400029d4:	24643273 	addiu	a0,v1,12915
400029d8:	00022821 	addu	a1,zero,v0
400029dc:	0c0006dd 	jal	40001b74 <printf>
400029e0:	00000000 	nop
400029e4:	08000a79 	j	400029e4 <exit+0x20>
400029e8:	00000000 	nop

Disassembly of section .rodata:

400029ec <inRdbfr>:
400029ec:	30786800 	andi	t8,v1,0x6800
400029f0:	c0a02048 	lwc0	c0_index,8264(a1)
400029f4:	f83840c0 	0xf83840c0
400029f8:	e08858f8 	swc0	c0_badvaddr,22776(a0)
400029fc:	48b0d0c8 	0x48b0d0c8
40002a00:	a0b82860 	sb	t8,10336(a1)
40002a04:	a8782020 	swl	t8,8224(v1)
40002a08:	b8482040 	swr	t0,8256(v0)
40002a0c:	d800f0d8 	0xd800f0d8
40002a10:	307040c0 	andi	s0,v1,0x40c0
40002a14:	b02898a0 	0xb02898a0
40002a18:	c8f82020 	lwc2	$24,8224(a3)
40002a1c:	f0d81868 	0xf0d81868
40002a20:	e848b080 	swc2	$8,-20352(v0)
40002a24:	7830b8f0 	0x7830b8f0
40002a28:	a840c030 	swl	zero,-16336(v0)
40002a2c:	a0a080a0 	sb	zero,-32608(a1)
40002a30:	7868d0e8 	0x7868d0e8
40002a34:	b80878e8 	swr	t0,30952(zero)
40002a38:	a040c878 	sb	zero,-14216(v0)
40002a3c:	a840e0c8 	swl	zero,-7992(v0)
40002a40:	68507828 	0x68507828
40002a44:	78080010 	0x78080010
40002a48:	90508890 	lbu	s0,-30576(v0)
40002a4c:	d8801848 	0xd8801848
40002a50:	105018d8 	beq	v0,s0,40008db4 <ld_Incnt+0x5144>
40002a54:	70c82040 	0x70c82040
40002a58:	18589080 	0x18589080
40002a5c:	68207870 	0x68207870
40002a60:	1018b048 	beq	zero,t8,3ffeeb84 <mem_size+0x3bfeeb84>
40002a64:	c81838b8 	lwc2	$24,14520(zero)
40002a68:	30309898 	andi	s0,at,0x9898
40002a6c:	08f05088 	j	43c14220 <ld_Incnt+0x3c105b0>
40002a70:	20f0c8d8 	addi	s0,a3,-14120
40002a74:	383070a8 	xori	s0,at,0x70a8
40002a78:	20e8c028 	addi	t0,a3,-16344
40002a7c:	20e8e830 	addi	t0,a3,-6096
40002a80:	18d05800 	0x18d05800
40002a84:	607848f0 	0x607848f0
40002a88:	d0e088f8 	0xd0e088f8
40002a8c:	90c0b808 	lbu	zero,-18424(a2)
40002a90:	88903058 	lwl	s0,12376(a0)
40002a94:	f060c070 	0xf060c070
40002a98:	a0b8a0c8 	sb	t8,-24376(a1)
40002a9c:	98d03018 	lwr	s0,12312(a2)
40002aa0:	90b8b880 	lbu	t8,-18304(a1)
40002aa4:	90f0a890 	lbu	s0,-22384(a3)
40002aa8:	3030a8a0 	andi	s0,at,0xa8a0
40002aac:	7890c818 	0x7890c818
40002ab0:	486038d0 	0x486038d0
40002ab4:	c8505830 	lwc2	$16,22576(v0)
40002ab8:	28f8d0f8 	slti	t8,a3,-12040
40002abc:	08207088 	j	4081c220 <ld_Incnt+0x8185b0>
40002ac0:	28c05008 	slti	zero,a2,20488
40002ac4:	c038e020 	lwc0	$24,-8160(at)
40002ac8:	e83838c8 	swc2	$24,14536(at)
40002acc:	087850c8 	j	41e14320 <ld_Incnt+0x1e106b0>
40002ad0:	50e8d8b8 	0x50e8d8b8
40002ad4:	d82080a8 	0xd82080a8
40002ad8:	a8f86888 	swl	t8,26760(a3)
40002adc:	a8c008f8 	swl	zero,2296(a2)
40002ae0:	c0f038c0 	lwc0	$16,14528(a3)
40002ae4:	307888d0 	andi	t8,v1,0x88d0
40002ae8:	50a870e0 	0x50a870e0
40002aec:	785060c0 	0x785060c0
40002af0:	30781078 	andi	t8,v1,0x1078
40002af4:	e0a0a8a8 	swc0	c0_index,-22360(a1)
40002af8:	18481880 	0x18481880
40002afc:	a098f0f8 	sb	t8,-3848(a0)
40002b00:	38c038d0 	xori	zero,a2,0x38d0
40002b04:	88c08058 	lwl	zero,-32680(a2)
40002b08:	2870d080 	slti	s0,v1,-12160
40002b0c:	b020c040 	0xb020c040
40002b10:	d0a83850 	0xd0a83850
40002b14:	f8a8a818 	0xf8a8a818
40002b18:	206088f0 	addi	zero,v1,-30480
40002b1c:	8808b838 	lwl	t0,-18376(zero)
40002b20:	28b00010 	slti	s0,a1,16
40002b24:	a0682000 	sb	t0,8192(v1)
40002b28:	38e85838 	xori	t0,a3,0x5838
40002b2c:	e8b8f000 	swc2	$24,-4096(a1)
40002b30:	00b02058 	0xb02058
40002b34:	28b8f8d8 	slti	t8,a1,-1832
40002b38:	d0085010 	0xd0085010
40002b3c:	2848e040 	slti	t0,v0,-8128
40002b40:	50904848 	0x50904848
40002b44:	40887890 	0x40887890
40002b48:	1088a0b8 	beq	a0,t0,3ffeae2c <mem_size+0x3bfeae2c>
40002b4c:	68e86830 	0x68e86830
40002b50:	48d04868 	0x48d04868
40002b54:	3828b8c0 	xori	t0,at,0xb8c0
40002b58:	50a048e8 	0x50a048e8
40002b5c:	20f8e898 	addi	t8,a3,-5992
40002b60:	a80028e0 	swl	zero,10464(zero)
40002b64:	a0706018 	sb	s0,24600(v1)
40002b68:	a0200898 	sb	zero,2200(at)
40002b6c:	1820d068 	blez	at,3fff6d10 <mem_size+0x3bff6d10>
40002b70:	90f808f8 	lbu	t8,2296(a3)
40002b74:	58c01078 	0x58c01078
40002b78:	a0c8b098 	sb	t0,-20328(a2)
40002b7c:	a860a098 	swl	zero,-24424(v1)
40002b80:	b0f810f0 	0xb0f810f0
40002b84:	3800d818 	xori	zero,zero,0xd818
40002b88:	0860f850 	j	4183e140 <ld_Incnt+0x183a4d0>
40002b8c:	68c02080 	0x68c02080
40002b90:	b8f0d030 	swr	s0,-12240(a3)
40002b94:	c0385080 	lwc0	$24,20608(at)
40002b98:	30b07000 	andi	s0,a1,0x7000
40002b9c:	38183860 	xori	t8,zero,0x3860
40002ba0:	60182018 	0x60182018
40002ba4:	70400050 	0x70400050
40002ba8:	38581830 	xori	t8,v0,0x1830
40002bac:	c0a0e098 	lwc0	c0_index,-8040(a1)
40002bb0:	80f848b8 	lb	t8,18616(a3)
40002bb4:	68680808 	0x68680808
40002bb8:	888830c8 	lwl	t0,12488(a0)
40002bbc:	285090d0 	slti	s0,v0,-28464
40002bc0:	d0086088 	0xd0086088
40002bc4:	50a068a0 	0x50a068a0
40002bc8:	90b06040 	lbu	s0,24640(a1)
40002bcc:	58583808 	0x58583808
40002bd0:	f03078d0 	0xf03078d0
40002bd4:	c0f860f0 	lwc0	$24,24816(a3)
40002bd8:	18f88068 	0x18f88068
40002bdc:	78404868 	0x78404868
40002be0:	c030c0f8 	lwc0	$16,-16136(at)
40002be4:	10905020 	beq	a0,s0,40016c68 <ld_Incnt+0x12ff8>
40002be8:	b8706050 	swr	s0,24656(v1)
40002bec:	e8f85038 	swc2	$24,20536(a3)
40002bf0:	38f82800 	xori	t8,a3,0x2800
40002bf4:	60c020c0 	0x60c020c0
40002bf8:	e08830f8 	swc0	c0_badvaddr,12536(a0)
40002bfc:	80c00050 	lb	zero,80(a2)
40002c00:	80d07868 	lb	s0,30824(a2)
40002c04:	08d8b000 	j	4362c000 <ld_Incnt+0x3628390>
40002c08:	281060c0 	slti	s0,zero,24768
40002c0c:	482060b8 	0x482060b8
40002c10:	6868c050 	0x6868c050
40002c14:	a0100088 	sb	s0,136(zero)
40002c18:	08306818 	j	40c1a060 <ld_Incnt+0xc163f0>
40002c1c:	80789818 	lb	t8,-26600(v1)
40002c20:	70b02048 	0x70b02048
40002c24:	20107868 	addi	s0,zero,30824
40002c28:	f038a090 	0xf038a090
40002c2c:	18b8e800 	0x18b8e800
40002c30:	f0c8d010 	0xf0c8d010
40002c34:	7068c8c8 	0x7068c8c8
40002c38:	a880d018 	swl	zero,-12264(a0)
40002c3c:	789840f8 	0x789840f8
40002c40:	d080e040 	0xd080e040
40002c44:	9810d878 	lwr	s0,-10120(zero)
40002c48:	50f09030 	0x50f09030
40002c4c:	a030e090 	sb	s0,-8048(at)
40002c50:	8000f8c0 	lb	zero,-1856(zero)
40002c54:	e8a08078 	swc2	$0,-32648(a1)
40002c58:	7070d0a8 	0x7070d0a8
40002c5c:	c008b868 	lwc0	c0_badvaddr,-18328(zero)
40002c60:	6028b038 	0x6028b038
40002c64:	d8684840 	0xd8684840
40002c68:	9850d898 	lwr	s0,-10088(v0)
40002c6c:	3820d8b8 	xori	zero,at,0xd8b8
40002c70:	98f04020 	lwr	s0,16416(a3)
40002c74:	0888a8f0 	j	4222a3c0 <ld_Incnt+0x2226750>
40002c78:	5880a8e8 	0x5880a8e8
40002c7c:	c0088048 	lwc0	c0_badvaddr,-32696(zero)
40002c80:	20707830 	addi	s0,v1,30768
40002c84:	d8c0d090 	0xd8c0d090
40002c88:	a0a8b010 	sb	t0,-20464(a1)
40002c8c:	388858a8 	xori	t0,a0,0x58a8
40002c90:	50004008 	0x50004008
40002c94:	504068d8 	0x504068d8
40002c98:	5040d058 	0x5040d058
40002c9c:	a07818c8 	sb	t8,6344(v1)
40002ca0:	d8384850 	0xd8384850
40002ca4:	28483818 	slti	t0,v0,14360
40002ca8:	88380048 	lwl	t8,72(at)
40002cac:	8848c838 	lwl	t0,-14280(v0)
40002cb0:	f0884858 	0xf0884858
40002cb4:	98b0b000 	lwr	s0,-20480(a1)
40002cb8:	f0e0f8c0 	0xf0e0f8c0
40002cbc:	e8700848 	swc2	$16,2120(v1)
40002cc0:	001078c8 	0x1078c8
40002cc4:	48403028 	0x48403028
40002cc8:	98688820 	lwr	t0,-30688(v1)
40002ccc:	50b8f010 	0x50b8f010
40002cd0:	b0209800 	0xb0209800
40002cd4:	a0007880 	sb	zero,30848(zero)
40002cd8:	28704028 	slti	s0,v1,16424
40002cdc:	60903050 	0x60903050
40002ce0:	489800a8 	0x489800a8
40002ce4:	985888b8 	lwr	t8,-30536(v0)
40002ce8:	985830b8 	lwr	t8,12472(v0)
40002cec:	b8f0d860 	swr	s0,-10144(a3)
40002cf0:	684088c8 	0x684088c8
40002cf4:	d000e870 	0xd000e870
40002cf8:	f87080b0 	0xf87080b0
40002cfc:	7078f890 	0x7078f890
40002d00:	58f07800 	0x58f07800
40002d04:	f8085858 	0xf8085858
40002d08:	d8400850 	0xd8400850
40002d0c:	903838f0 	lbu	t8,14576(at)
40002d10:	4890d070 	0x4890d070
40002d14:	d888a010 	0xd888a010
40002d18:	083870b0 	j	40e1c2c0 <ld_Incnt+0xe18650>
40002d1c:	284868a8 	slti	t0,v0,26792
40002d20:	782858b0 	0x782858b0
40002d24:	68382818 	0x68382818
40002d28:	a0e8a028 	sb	t0,-24536(a3)
40002d2c:	e8909018 	swc2	$16,-28648(a0)
40002d30:	60709078 	0x60709078
40002d34:	8008b088 	lb	t0,-20344(zero)
40002d38:	7860b870 	0x7860b870
40002d3c:	b8007040 	swr	zero,28736(zero)
40002d40:	50b84850 	0x50b84850
40002d44:	c8784890 	lwc2	$24,18576(v1)
40002d48:	001820a8 	0x1820a8
40002d4c:	f8184890 	0xf8184890
40002d50:	80489818 	lb	t0,-26600(v0)
40002d54:	20e00800 	addi	zero,a3,2048
40002d58:	70304848 	0x70304848
40002d5c:	18f010e8 	0x18f010e8
40002d60:	78e82040 	0x78e82040
40002d64:	7098c8a8 	0x7098c8a8
40002d68:	78009008 	0x78009008
40002d6c:	90700070 	lbu	s0,112(v1)
40002d70:	d818a048 	0xd818a048
40002d74:	98e08070 	lwr	zero,-32656(a3)
40002d78:	00288868 	0x288868
40002d7c:	f8309010 	0xf8309010
40002d80:	58403088 	0x58403088
40002d84:	10f8d098 	beq	a3,t8,3fff6fe8 <mem_size+0x3bff6fe8>
40002d88:	a8b8e070 	swl	t8,-8080(a1)
40002d8c:	f840a828 	0xf840a828
40002d90:	90c86890 	lbu	t0,26768(a2)
40002d94:	c0a81098 	lwc0	c0_badvaddr,4248(a1)
40002d98:	884860f0 	lwl	t0,24816(v0)
40002d9c:	200088d8 	addi	zero,zero,-30504
40002da0:	a0f070c0 	sb	s0,28864(a3)
40002da4:	3010b8f8 	andi	s0,zero,0xb8f8
40002da8:	10a058e8 	beqz	a1,4001914c <ld_Incnt+0x154dc>
40002dac:	8890b068 	lwl	s0,-20376(a0)
40002db0:	a0b8f018 	sb	t8,-4072(a1)
40002db4:	38201008 	xori	zero,at,0x1008
40002db8:	a8a890b0 	swl	t0,-28496(a1)
40002dbc:	68585838 	0x68585838
40002dc0:	2060b8f8 	addi	zero,v1,-18184
40002dc4:	f0e05880 	0xf0e05880
40002dc8:	88d87820 	lwl	t8,30752(a2)
40002dcc:	68504808 	0x68504808
40002dd0:	60209878 	0x60209878
40002dd4:	18e850e8 	0x18e850e8
40002dd8:	d8d0c850 	0xd8d0c850
40002ddc:	283810b8 	slti	t8,at,4280
40002de0:	7880d0d8 	0x7880d0d8
40002de4:	c8501010 	lwc2	$16,4112(v0)
40002de8:	48a06890 	0x48a06890
40002dec:	20b08818 	addi	s0,a1,-30696
40002df0:	508878c0 	0x508878c0
40002df4:	a0d05810 	sb	s0,22544(a2)
40002df8:	1828e810 	0x1828e810
40002dfc:	1020d090 	beqz	at,3fff7040 <mem_size+0x3bff7040>
40002e00:	b030c058 	0xb030c058
40002e04:	20a01898 	addi	zero,a1,6296
40002e08:	50f01850 	0x50f01850
40002e0c:	80a098a0 	lb	zero,-26464(a1)
40002e10:	b8285850 	swr	t0,22608(at)
40002e14:	c83090d0 	lwc2	$16,-28464(at)
40002e18:	907030c8 	lbu	s0,12488(v1)
40002e1c:	e090e068 	swc0	$16,-8088(a0)
40002e20:	f0e008c8 	0xf0e008c8
40002e24:	10e89820 	beq	a3,t0,3ffe8ea8 <mem_size+0x3bfe8ea8>
40002e28:	28b85008 	slti	t8,a1,20488
40002e2c:	0840f8b8 	j	4103e2e0 <ld_Incnt+0x103a670>
40002e30:	585810e8 	0x585810e8
40002e34:	30807808 	andi	zero,a0,0x7808
40002e38:	684058f0 	0x684058f0
40002e3c:	f060f868 	0xf060f868
40002e40:	38d098c0 	xori	s0,a2,0x98c0
40002e44:	0888f098 	j	4223c260 <ld_Incnt+0x22385f0>
40002e48:	a87018d8 	swl	s0,6360(v1)
40002e4c:	e0508858 	swc0	$16,-30632(v0)
40002e50:	18289888 	0x18289888
40002e54:	8898d8f8 	lwl	t8,-9992(a0)
40002e58:	5040e060 	0x5040e060
40002e5c:	08483838 	j	4120e0e0 <ld_Incnt+0x120a470>
40002e60:	18904018 	0x18904018
40002e64:	7880d8d0 	0x7880d8d0
40002e68:	9878a860 	lwr	t8,-22432(v1)
40002e6c:	5088e870 	0x5088e870
40002e70:	d0986048 	0xd0986048
40002e74:	7840d848 	0x7840d848
40002e78:	48e83078 	0x48e83078
40002e7c:	e830b0b8 	swc2	$16,-20296(at)
40002e80:	4878b8c8 	0x4878b8c8
40002e84:	a0f88070 	sb	t8,-32656(a3)
40002e88:	5098d8a8 	0x5098d8a8
40002e8c:	983070b0 	lwr	s0,28848(at)
40002e90:	c8284070 	lwc2	$8,16496(at)
40002e94:	38a050e8 	xori	zero,a1,0x50e8
40002e98:	48a8c0d8 	0x48a8c0d8
40002e9c:	20d04028 	addi	s0,a2,16424
40002ea0:	6818f0e0 	0x6818f0e0
40002ea4:	18a8f0e8 	0x18a8f0e8
40002ea8:	985020f8 	lwr	s0,8440(v0)
40002eac:	7870a090 	0x7870a090
40002eb0:	a040f060 	sb	zero,-4000(v0)
40002eb4:	3098f8f8 	andi	t8,a0,0xf8f8
40002eb8:	e8805870 	swc2	$0,22640(a0)
40002ebc:	a8e8f0f0 	swl	t0,-3856(a3)
40002ec0:	b0982078 	0xb0982078
40002ec4:	98501068 	lwr	s0,4200(v0)
40002ec8:	1080e0f0 	beqz	a0,3fffb28c <mem_size+0x3bffb28c>
40002ecc:	08d82030 	j	436080c0 <ld_Incnt+0x3604450>
40002ed0:	d0b8f868 	0xd0b8f868
40002ed4:	d05078d8 	0xd05078d8
40002ed8:	28703880 	slti	s0,v1,14464
40002edc:	a8e010b8 	swl	zero,4280(a3)
40002ee0:	9038f898 	lbu	t8,-1896(at)
40002ee4:	a808e0a8 	swl	t0,-8024(zero)
40002ee8:	30988850 	andi	t8,a0,0x8850
40002eec:	58b80060 	0x58b80060
40002ef0:	801018c0 	lb	s0,6336(zero)
40002ef4:	2898b000 	slti	t8,a0,-20480
40002ef8:	00c04860 	0xc04860
40002efc:	f0188020 	0xf0188020
40002f00:	78b0f830 	0x78b0f830
40002f04:	48e0a810 	0x48e0a810
40002f08:	b030c808 	0xb030c808
40002f0c:	08a0e070 	j	428381c0 <ld_Incnt+0x2834550>
40002f10:	10104098 	beq	zero,s0,40013174 <ld_Incnt+0xf504>
40002f14:	9040e0f0 	lbu	zero,-7952(v0)
40002f18:	28b85080 	slti	t8,a1,20608
40002f1c:	f870c8e8 	0xf870c8e8
40002f20:	80b07018 	lb	s0,28696(a1)
40002f24:	98283880 	lwr	t0,14464(at)
40002f28:	6878b818 	0x6878b818
40002f2c:	30c84048 	andi	t0,a2,0x4048
40002f30:	e83800e0 	swc2	$24,224(at)
40002f34:	68b8f020 	0x68b8f020
40002f38:	c8c02068 	lwc2	$0,8296(a2)
40002f3c:	489840c8 	0x489840c8
40002f40:	0050d8d8 	0x50d8d8
40002f44:	a0000050 	sb	zero,80(zero)
40002f48:	f0882878 	0xf0882878
40002f4c:	d8987820 	0xd8987820
40002f50:	18107038 	0x18107038
40002f54:	c0687808 	lwc0	c0_badvaddr,30728(v1)
40002f58:	1008b090 	beq	zero,t0,3ffef19c <mem_size+0x3bfef19c>
40002f5c:	50a86860 	0x50a86860
40002f60:	7070e8c0 	0x7070e8c0
40002f64:	f0b05838 	0xf0b05838
40002f68:	50f8b020 	0x50f8b020
40002f6c:	c0e018b0 	lwc0	c0_index,6320(a3)
40002f70:	10a8b008 	beq	a1,t0,3ffeef94 <mem_size+0x3bfeef94>
40002f74:	1010f8e8 	beq	zero,s0,40001318 <itoa+0x18>
40002f78:	00e88068 	0xe88068
40002f7c:	2070f020 	addi	s0,v1,-4064
40002f80:	e838b8b8 	swc2	$24,-18248(at)
40002f84:	48109050 	0x48109050
40002f88:	b040d0f0 	0xb040d0f0
40002f8c:	108810f0 	beq	a0,t0,40007350 <ld_Incnt+0x36e0>
40002f90:	4818c050 	0x4818c050
40002f94:	d85038d8 	0xd85038d8
40002f98:	18489020 	0x18489020
40002f9c:	e000f840 	swc0	c0_index,-1984(zero)
40002fa0:	e8882048 	swc2	$8,8264(a0)
40002fa4:	582048f0 	0x582048f0
40002fa8:	08106880 	j	4041a200 <ld_Incnt+0x416590>
40002fac:	08e0c020 	j	43830080 <ld_Incnt+0x382c410>
40002fb0:	00e0f898 	0xe0f898
40002fb4:	681030b0 	0x681030b0
40002fb8:	f018b0d8 	0xf018b0d8
40002fbc:	d0f850c8 	0xd0f850c8
40002fc0:	0848c880 	j	41232200 <ld_Incnt+0x122e590>
40002fc4:	78508098 	0x78508098
40002fc8:	c8e89850 	lwc2	$8,-26544(a3)
40002fcc:	b01058a8 	0xb01058a8
40002fd0:	d04828e8 	0xd04828e8
40002fd4:	70f070e8 	0x70f070e8
40002fd8:	10b0b050 	beq	a1,s0,3ffef11c <mem_size+0x3bfef11c>
40002fdc:	b8207848 	swr	zero,30792(at)
40002fe0:	b01850e0 	0xb01850e0
40002fe4:	3810d000 	xori	s0,zero,0xd000
40002fe8:	a0781070 	sb	t8,4208(v1)
40002fec:	8880d818 	lwl	zero,-10216(a0)
40002ff0:	78f898c0 	0x78f898c0
40002ff4:	e0c038a0 	swc0	c0_index,14496(a2)
40002ff8:	70708800 	0x70708800
40002ffc:	a8b80808 	swl	t8,2056(a1)
40003000:	a078a058 	sb	t8,-24488(v1)
40003004:	2820a8f0 	slti	zero,at,-22288
40003008:	100858a8 	beq	zero,t0,400192ac <ld_Incnt+0x1563c>
4000300c:	30686818 	andi	t0,v1,0x6818
40003010:	904888f8 	lbu	t0,-30472(v0)
40003014:	58d8a080 	0x58d8a080
40003018:	48e878f0 	0x48e878f0
4000301c:	c0f8c8c0 	lwc0	$24,-14144(a3)
40003020:	d068f030 	0xd068f030
40003024:	80106828 	lb	s0,26664(zero)
40003028:	38e0e050 	xori	zero,a3,0xe050
4000302c:	18287838 	0x18287838
40003030:	18b810b0 	0x18b810b0
40003034:	10a8e0b0 	beq	a1,t0,3fffb2f8 <mem_size+0x3bffb2f8>
40003038:	c88868b8 	lwc2	$8,26808(a0)
4000303c:	c878d0a8 	lwc2	$24,-12120(v1)
40003040:	10d028e0 	beq	a2,s0,4000d3c4 <ld_Incnt+0x9754>
40003044:	e0c0a070 	swc0	c0_index,-24464(a2)
40003048:	78e82840 	0x78e82840
4000304c:	50a8e818 	0x50a8e818
40003050:	48689058 	0x48689058
40003054:	700070c0 	0x700070c0
40003058:	a0e8e068 	sb	t0,-8088(a3)
4000305c:	d8b0d070 	0xd8b0d070
40003060:	a0e0e038 	sb	zero,-8136(a3)
40003064:	d8b03868 	0xd8b03868
40003068:	08d018c0 	j	43406300 <ld_Incnt+0x3402690>
4000306c:	08f83828 	j	43e0e0a0 <ld_Incnt+0x3e0a430>
40003070:	2880b878 	slti	zero,a0,-18312
40003074:	c0b838a8 	lwc0	$24,14504(a1)
40003078:	d8486088 	0xd8486088
4000307c:	38484008 	xori	t0,v0,0x4008
40003080:	1090b010 	beq	a0,s0,3ffef0c4 <mem_size+0x3bfef0c4>
40003084:	d088b080 	0xd088b080
40003088:	e0b81078 	swc0	$24,4216(a1)
4000308c:	5890d8a0 	0x5890d8a0
40003090:	6090c8d0 	0x6090c8d0
40003094:	d0e0c898 	0xd0e0c898
40003098:	680878f0 	0x680878f0
4000309c:	c8a870b8 	lwc2	$8,28856(a1)
400030a0:	c0004870 	lwc0	c0_index,18544(zero)
400030a4:	88782800 	lwl	t8,10240(v1)
400030a8:	38982870 	xori	t8,a0,0x2870
400030ac:	f0e02090 	0xf0e02090
400030b0:	c838c020 	lwc2	$24,-16352(at)
400030b4:	c0688810 	lwc0	c0_badvaddr,-30704(v1)
400030b8:	000000c0 	ehb
400030bc:	f068e808 	0xf068e808
400030c0:	a808c058 	swl	t0,-16296(zero)
400030c4:	e0b8d0d8 	swc0	$24,-12072(a1)
400030c8:	489848f0 	0x489848f0
400030cc:	d8b0b8a8 	0xd8b0b8a8
400030d0:	20509030 	addi	s0,v0,-28624
400030d4:	a070d0b8 	sb	s0,-12104(v1)
400030d8:	90085858 	lbu	t0,22616(zero)
400030dc:	30987890 	andi	t8,a0,0x7890
400030e0:	0870a8c8 	j	41c2a320 <ld_Incnt+0x1c266b0>
400030e4:	80f0d8a0 	lb	s0,-10080(a3)
400030e8:	f8908068 	0xf8908068
400030ec:	f088a840 	0xf088a840
400030f0:	d88838a0 	0xd88838a0
400030f4:	20c03850 	addi	zero,a2,14416
400030f8:	20508040 	addi	s0,v0,-32704
400030fc:	c8586020 	lwc2	$24,24608(v0)
40003100:	10a04898 	beqz	a1,40015364 <ld_Incnt+0x116f4>
40003104:	90a0c880 	lbu	zero,-14208(a1)
40003108:	98701070 	lwr	s0,4208(v1)
4000310c:	d8388838 	0xd8388838
40003110:	90c01808 	lbu	zero,6152(a2)
40003114:	4830c8b0 	0x4830c8b0
40003118:	78f04828 	0x78f04828
4000311c:	9850a078 	lwr	s0,-24456(v0)
40003120:	98e0d890 	lwr	zero,-10096(a3)
40003124:	58a09028 	0x58a09028
40003128:	80c0b8b8 	lb	zero,-18248(a2)
4000312c:	7048c800 	0x7048c800
40003130:	0098f8d0 	0x98f8d0
40003134:	10280898 	beq	at,t0,40005398 <ld_Incnt+0x1728>
40003138:	b04098a8 	0xb04098a8
4000313c:	88e81858 	lwl	t0,6232(a3)
40003140:	d0e89820 	0xd0e89820
40003144:	0088f0c0 	0x88f0c0
40003148:	d808c8e8 	0xd808c8e8
4000314c:	c040b868 	lwc0	c0_index,-18328(v0)
40003150:	78b86008 	0x78b86008
40003154:	401050d0 	0x401050d0
40003158:	08488888 	j	41222220 <ld_Incnt+0x121e5b0>
4000315c:	78f8b870 	0x78f8b870
40003160:	e8380888 	swc2	$24,2184(at)
40003164:	401060d0 	0x401060d0
40003168:	203070a8 	addi	s0,at,28840
4000316c:	5848e0b8 	0x5848e0b8
40003170:	a848b880 	swl	t0,-18304(v0)
40003174:	e8a0d8e0 	swc2	$0,-10016(a1)
40003178:	9830a840 	lwr	s0,-22464(at)
4000317c:	c8109840 	lwc2	$16,-26560(zero)
40003180:	c09038a8 	lwc0	$16,14504(a0)
40003184:	08a87840 	j	42a1e100 <ld_Incnt+0x2a1a490>
40003188:	0810d880 	j	40436200 <ld_Incnt+0x432590>
4000318c:	60802068 	0x60802068
40003190:	608858a0 	0x608858a0
40003194:	38801038 	xori	zero,a0,0x1038
40003198:	c8d01058 	lwc2	$16,4184(a2)
4000319c:	20f06018 	addi	s0,a3,24600
400031a0:	a868c0e8 	swl	t0,-16152(v1)
400031a4:	28c00028 	slti	zero,a2,40
400031a8:	08b860c8 	j	42e18320 <ld_Incnt+0x2e146b0>
400031ac:	e868d848 	swc2	$8,-10168(v1)
400031b0:	0808f870 	j	4023e1c0 <ld_Incnt+0x23a550>
400031b4:	2098c0f8 	addi	t8,a0,-16136
400031b8:	50e8a800 	0x50e8a800
400031bc:	180840f8 	0x180840f8
400031c0:	f0602050 	0xf0602050
400031c4:	105030e8 	beq	v0,s0,4000f568 <ld_Incnt+0xb8f8>
400031c8:	3010c890 	andi	s0,zero,0xc890
400031cc:	e8702858 	swc2	$16,10328(v1)
400031d0:	a038a858 	sb	t8,-22440(at)
400031d4:	f88010e8 	0xf88010e8
400031d8:	a8c85030 	swl	t0,20528(a2)
400031dc:	e0d84898 	swc0	$24,18584(a2)
400031e0:	c098d048 	lwc0	$24,-12216(a0)
400031e4:	8830e000 	lwl	s0,-8192(at)
400031e8:	981060a8 	lwr	s0,24744(zero)

400031ec <MVtab2>:
400031ec:	090f0910 	j	443c2440 <__stack_top+0x3c2440>
400031f0:	090d090e 	j	44342438 <__stack_top+0x342438>
400031f4:	090b090c 	j	442c2430 <__stack_top+0x2c2430>
400031f8:	080a080a 	j	40282028 <ld_Incnt+0x27e3b8>
400031fc:	08090809 	j	40242024 <ld_Incnt+0x23e3b4>
40003200:	08080808 	j	40202020 <ld_Incnt+0x1fe3b0>
40003204:	40001efc 	0x40001efc
40003208:	40001d6c 	0x40001d6c
4000320c:	4000287c 	0x4000287c
40003210:	4000287c 	0x4000287c
40003214:	4000287c 	0x4000287c
40003218:	40002540 	0x40002540
4000321c:	4000287c 	0x4000287c
40003220:	4000287c 	0x4000287c
40003224:	4000287c 	0x4000287c
40003228:	4000215c 	0x4000215c

Disassembly of section .rodata.cst16:

4000322c <MVtab0>:
4000322c:	030300ff 	0x30300ff
40003230:	02020202 	0x2020202
40003234:	01010101 	0x1010101
40003238:	01010101 	0x1010101

4000323c <MVtab1>:
4000323c:	00ff00ff 	0xff00ff
40003240:	060700ff 	0x60700ff
40003244:	06050606 	0x6050606
40003248:	05040504 	0x5040504

Disassembly of section .rodata.str1.1:

4000324c <.rodata.str1.1>:
4000324c:	75736552 	jalx	45cd9548 <__stack_top+0x1cd9548>
40003250:	203a746c 	addi	k0,at,29804
40003254:	52006425 	0x52006425
40003258:	4c555345 	0x4c555345
4000325c:	50203a54 	0x50203a54
40003260:	00535341 	0x535341
40003264:	55534552 	0x55534552
40003268:	203a544c 	addi	k0,at,21580
4000326c:	4c494146 	0x4c494146
40003270:	70003000 	0x70003000
40003274:	72676f72 	0x72676f72
40003278:	72206d61 	0x72206d61
4000327c:	72757465 	0x72757465
40003280:	2064656e 	addi	a0,v1,25966
40003284:	65206425 	0x65206425
40003288:	20746978 	addi	s4,v1,27000
4000328c:	74617473 	jalx	4185d1cc <ld_Incnt+0x185955c>
40003290:	000a7375 	0xa7375

Disassembly of section .eh_frame:

40003294 <.eh_frame>:
40003294:	00000010 	mfhi	zero
40003298:	00000000 	nop
4000329c:	00527a01 	0x527a01
400032a0:	011f7c01 	0x11f7c01
400032a4:	001d0d0b 	0x1d0d0b
400032a8:	00000010 	mfhi	zero
400032ac:	00000018 	mult	zero,zero
400032b0:	400002b8 	0x400002b8
400032b4:	00000130 	0x130
400032b8:	00000000 	nop
400032bc:	00000010 	mfhi	zero
400032c0:	0000002c 	0x2c
400032c4:	400003e8 	0x400003e8
400032c8:	00000b6c 	0xb6c
400032cc:	00000000 	nop
400032d0:	0000001c 	0x1c
400032d4:	00000040 	ssnop
400032d8:	40000020 	0x40000020
400032dc:	00000298 	0x298
400032e0:	200e4400 	addi	t6,zero,17408
400032e4:	92019f50 	lbu	at,-24752(s0)
400032e8:	90039102 	lbu	v1,-28414(zero)
400032ec:	00000004 	sllv	zero,zero,zero
400032f0:	00000010 	mfhi	zero
400032f4:	00000060 	0x60
400032f8:	40000f98 	0x40000f98
400032fc:	00000038 	0x38
40003300:	00000000 	nop
40003304:	00000010 	mfhi	zero
40003308:	00000074 	0x74
4000330c:	40000fd0 	0x40000fd0
40003310:	00000068 	0x68
40003314:	00000000 	nop
40003318:	00000010 	mfhi	zero
4000331c:	00000088 	0x88
40003320:	40001038 	0x40001038
40003324:	00000030 	0x30
40003328:	00000000 	nop
4000332c:	00000010 	mfhi	zero
40003330:	0000009c 	0x9c
40003334:	40001068 	0x40001068
40003338:	00000030 	0x30
4000333c:	00000000 	nop
40003340:	00000020 	add	zero,zero,zero
40003344:	000000b0 	0xb0
40003348:	40001098 	0x40001098
4000334c:	0000011c 	0x11c
40003350:	380e4400 	xori	t6,zero,0x4400
40003354:	94019f58 	lhu	at,-24744(zero)
40003358:	92039302 	lbu	v1,-27902(s0)
4000335c:	90059104 	lbu	a1,-28412(zero)
40003360:	00000006 	srlv	zero,zero,zero
40003364:	00000020 	add	zero,zero,zero
40003368:	000000d4 	0xd4
4000336c:	400011b4 	0x400011b4
40003370:	0000014c 	syscall	0x5
40003374:	400e4400 	0x400e4400
40003378:	95019f5c 	lhu	at,-24740(t0)
4000337c:	93039402 	lbu	v1,-27646(t8)
40003380:	91059204 	lbu	a1,-28156(t0)
40003384:	00079006 	srlv	s2,a3,zero
40003388:	00000024 	and	zero,zero,zero
4000338c:	000000f8 	0xf8
40003390:	40001300 	0x40001300
40003394:	00000438 	0x438
40003398:	280e4400 	slti	t6,zero,17408
4000339c:	96019760 	lhu	at,-26784(s0)
400033a0:	94039502 	lhu	v1,-27390(zero)
400033a4:	92059304 	lbu	a1,-27900(s0)
400033a8:	90079106 	lbu	a3,-28410(zero)
400033ac:	00000008 	jr	zero
400033b0:	00000020 	add	zero,zero,zero
400033b4:	00000120 	0x120
400033b8:	40001738 	0x40001738
400033bc:	00000334 	0x334
400033c0:	180e4400 	0x180e4400
400033c4:	94019558 	lhu	at,-27304(zero)
400033c8:	92039302 	lbu	v1,-27902(s0)
400033cc:	90059104 	lbu	a1,-28412(zero)
400033d0:	00000006 	srlv	zero,zero,zero
400033d4:	00000010 	mfhi	zero
400033d8:	00000144 	0x144
400033dc:	40001a6c 	0x40001a6c
400033e0:	00000108 	0x108
400033e4:	00000000 	nop
400033e8:	0000001c 	0x1c
400033ec:	00000158 	0x158
400033f0:	40001b74 	0x40001b74
400033f4:	00000e50 	0xe50
400033f8:	480e4400 	0x480e4400
400033fc:	93019f54 	lbu	at,-24748(t8)
40003400:	91039202 	lbu	v1,-28158(t0)
40003404:	00059004 	sllv	s2,a1,zero
40003408:	00000014 	0x14
4000340c:	00000178 	0x178
40003410:	400029c4 	0x400029c4
40003414:	00000028 	0x28
40003418:	180e4400 	0x180e4400
4000341c:	00019f44 	0x19f44

Disassembly of section .bss:

40003420 <ld_Rdbfr>:
	...

40003c20 <i2h.hex>:
	...

40003c29 <l2h.hex>:
	...

40003c3a <itoa.buf>:
	...

40003c45 <itoa.out>:
	...

40003c50 <utoa.buf>:
	...

40003c5b <utoa.out>:
	...

Disassembly of section .sbss:

40003c68 <ld_Rdptr>:
40003c68:	00000000 	nop

40003c6c <ld_Bfr>:
40003c6c:	00000000 	nop

40003c70 <ld_Incnt>:
40003c70:	00000000 	nop

Disassembly of section .reginfo:

00000000 <.reginfo>:
   0:	a0000000 	sb	zero,0(zero)
	...

Disassembly of section .pdr:

00000000 <.pdr>:
   0:	400002b8 	0x400002b8
	...
  18:	0000001d 	0x1d
  1c:	0000001f 	0x1f
  20:	400003e8 	0x400003e8
	...
  38:	0000001d 	0x1d
  3c:	0000001f 	0x1f
  40:	40000020 	0x40000020
  44:	80070000 	lb	a3,0(zero)
  48:	fffffffc 	0xfffffffc
	...
  54:	00000020 	add	zero,zero,zero
  58:	0000001d 	0x1d
  5c:	0000001f 	0x1f
  60:	40000f54 	0x40000f54
	...
  78:	0000001d 	0x1d
  7c:	0000001f 	0x1f
  80:	40000f70 	0x40000f70
	...
  98:	0000001d 	0x1d
  9c:	0000001f 	0x1f
  a0:	40000f98 	0x40000f98
	...
  b8:	0000001d 	0x1d
  bc:	0000001f 	0x1f
  c0:	40000fd0 	0x40000fd0
	...
  d8:	0000001d 	0x1d
  dc:	0000001f 	0x1f
  e0:	40001038 	0x40001038
	...
  f8:	0000001d 	0x1d
  fc:	0000001f 	0x1f
 100:	40001068 	0x40001068
	...
 118:	0000001d 	0x1d
 11c:	0000001f 	0x1f
 120:	40001098 	0x40001098
 124:	801f0000 	lb	ra,0(zero)
 128:	fffffffc 	0xfffffffc
	...
 134:	00000038 	0x38
 138:	0000001d 	0x1d
 13c:	0000001f 	0x1f
 140:	400011b4 	0x400011b4
 144:	803f0000 	lb	ra,0(at)
 148:	fffffffc 	0xfffffffc
	...
 154:	00000040 	ssnop
 158:	0000001d 	0x1d
 15c:	0000001f 	0x1f
 160:	40001300 	0x40001300
 164:	00ff0000 	0xff0000
 168:	fffffffc 	0xfffffffc
	...
 174:	00000028 	0x28
 178:	0000001d 	0x1d
 17c:	0000001f 	0x1f
 180:	40001738 	0x40001738
 184:	003f0000 	0x3f0000
 188:	fffffffc 	0xfffffffc
	...
 194:	00000018 	mult	zero,zero
 198:	0000001d 	0x1d
 19c:	0000001f 	0x1f
 1a0:	40001a6c 	0x40001a6c
	...
 1b8:	0000001d 	0x1d
 1bc:	0000001f 	0x1f
 1c0:	40001b74 	0x40001b74
 1c4:	800f0000 	lb	t7,0(zero)
 1c8:	fffffffc 	0xfffffffc
	...
 1d4:	00000048 	0x48
 1d8:	0000001d 	0x1d
 1dc:	0000001f 	0x1f
 1e0:	400029c4 	0x400029c4
 1e4:	80000000 	lb	zero,0(zero)
 1e8:	fffffffc 	0xfffffffc
	...
 1f4:	00000018 	mult	zero,zero
 1f8:	0000001d 	0x1d
 1fc:	0000001f 	0x1f

Disassembly of section .comment:

00000000 <.comment>:
   0:	3a434347 	xori	v1,s2,0x4347
   4:	72632820 	0x72632820
   8:	7473736f 	jalx	1cdcdbc <mem_size-0x2323244>
   c:	2d6c6f6f 	sltiu	t4,t3,28527
  10:	3120474e 	andi	zero,t1,0x474e
  14:	2e30322e 	sltiu	s0,s1,12846
  18:	34202930 	ori	zero,at,0x2930
  1c:	322e382e 	andi	t6,s1,0x382e
	...

Disassembly of section .gnu.attributes:

00000000 <.gnu.attributes>:
   0:	00000f41 	0xf41
   4:	756e6700 	jalx	5b99c00 <mem_size+0x1b99c00>
   8:	00070100 	sll	zero,a3,0x4
   c:	03040000 	0x3040000
