
output/_gsm.MIPSI.elf:     file format elf32-littlemips


Disassembly of section .text:

40000000 <mips_startup>:
40000000:	3c1d4400 	lui	sp,0x4400
40000004:	0c000008 	jal	40000020 <main>
40000008:	27bd0000 	addiu	sp,sp,0

4000000c <__end_loop>:
	...
40000018:	1000fffc 	b	4000000c <__end_loop>
4000001c:	00000000 	nop

40000020 <main>:
40000020:	27bdfe10 	addiu	sp,sp,-496
40000024:	afbf01ec 	sw	ra,492(sp)
40000028:	afb701e8 	sw	s7,488(sp)
4000002c:	afb601e4 	sw	s6,484(sp)
40000030:	afb501e0 	sw	s5,480(sp)
40000034:	afb401dc 	sw	s4,476(sp)
40000038:	afb301d8 	sw	s3,472(sp)
4000003c:	afb201d4 	sw	s2,468(sp)
40000040:	afb101d0 	sw	s1,464(sp)
40000044:	afb001cc 	sw	s0,460(sp)
40000048:	3c034000 	lui	v1,0x4000
4000004c:	27a2002c 	addiu	v0,sp,44
40000050:	24632f5c 	addiu	v1,v1,12124
40000054:	24450008 	addiu	a1,v0,8
40000058:	24630008 	addiu	v1,v1,8
4000005c:	24040000 	li	a0,0
40000060:	9466fff8 	lhu	a2,-8(v1)
40000064:	00000000 	nop
40000068:	a4a6fff8 	sh	a2,-8(a1)
4000006c:	9466fffa 	lhu	a2,-6(v1)
40000070:	00000000 	nop
40000074:	a4a6fffa 	sh	a2,-6(a1)
40000078:	9466fffc 	lhu	a2,-4(v1)
4000007c:	00000000 	nop
40000080:	a4a6fffc 	sh	a2,-4(a1)
40000084:	9466fffe 	lhu	a2,-2(v1)
40000088:	00000000 	nop
4000008c:	a4a6fffe 	sh	a2,-2(a1)
40000090:	94660000 	lhu	a2,0(v1)
40000094:	00000000 	nop
40000098:	a4a60000 	sh	a2,0(a1)
4000009c:	94660002 	lhu	a2,2(v1)
400000a0:	00000000 	nop
400000a4:	a4a60002 	sh	a2,2(a1)
400000a8:	94660004 	lhu	a2,4(v1)
400000ac:	00000000 	nop
400000b0:	a4a60004 	sh	a2,4(a1)
400000b4:	24840008 	addiu	a0,a0,8
400000b8:	94680006 	lhu	t0,6(v1)
400000bc:	00000000 	nop
400000c0:	24a70010 	addiu	a3,a1,16
400000c4:	24630010 	addiu	v1,v1,16
400000c8:	28860099 	slti	a2,a0,153
400000cc:	a4a80006 	sh	t0,6(a1)
400000d0:	00072821 	addu	a1,zero,a3
400000d4:	14c0ffe2 	bnez	a2,40000060 <main+0x40>
400000d8:	00000000 	nop
400000dc:	24040000 	li	a0,0
400000e0:	00041821 	addu	v1,zero,a0
400000e4:	00042840 	sll	a1,a0,0x1
400000e8:	00452823 	subu	a1,v0,a1
400000ec:	84a50000 	lh	a1,0(a1)
400000f0:	00000000 	nop
400000f4:	2406ffff 	li	a2,-1
400000f8:	00c5302a 	slt	a2,a2,a1
400000fc:	14c0000b 	bnez	a2,4000012c <main+0x10c>
40000100:	00000000 	nop
40000104:	30a6ffff 	andi	a2,a1,0xffff
40000108:	34078000 	li	a3,0x8000
4000010c:	00c73026 	xor	a2,a2,a3
40000110:	10c00005 	beqz	a2,40000128 <main+0x108>
40000114:	00000000 	nop
40000118:	24060000 	li	a2,0
4000011c:	00c52823 	subu	a1,a2,a1
40000120:	0800004b 	j	4000012c <main+0x10c>
40000124:	00000000 	nop
40000128:	24057fff 	li	a1,32767
4000012c:	00033400 	sll	a2,v1,0x10
40000130:	00053c00 	sll	a3,a1,0x10
40000134:	00063403 	sra	a2,a2,0x10
40000138:	00073c03 	sra	a3,a3,0x10
4000013c:	00c7302a 	slt	a2,a2,a3
40000140:	10c00002 	beqz	a2,4000014c <main+0x12c>
40000144:	00000000 	nop
40000148:	00051821 	addu	v1,zero,a1
4000014c:	2484ffff 	addiu	a0,a0,-1
40000150:	2405ff60 	li	a1,-160
40000154:	1485ffe3 	bne	a0,a1,400000e4 <main+0xc4>
40000158:	00000000 	nop
4000015c:	24090000 	li	t1,0
40000160:	3064ffff 	andi	a0,v1,0xffff
40000164:	00094021 	addu	t0,zero,t1
40000168:	10800078 	beqz	a0,4000034c <main+0x32c>
4000016c:	00000000 	nop
40000170:	00031c00 	sll	v1,v1,0x10
40000174:	2404ffff 	li	a0,-1
40000178:	0083202a 	slt	a0,a0,v1
4000017c:	1480000a 	bnez	a0,400001a8 <main+0x188>
40000180:	00000000 	nop
40000184:	3c04c000 	lui	a0,0xc000
40000188:	34840001 	ori	a0,a0,0x1
4000018c:	0064202a 	slt	a0,v1,a0
40000190:	10800004 	beqz	a0,400001a4 <main+0x184>
40000194:	00000000 	nop
40000198:	24030000 	li	v1,0
4000019c:	0800009b 	j	4000026c <main+0x24c>
400001a0:	00000000 	nop
400001a4:	00601827 	nor	v1,v1,zero
400001a8:	3c040001 	lui	a0,0x1
400001ac:	34840000 	ori	a0,a0,0x0
400001b0:	0064202b 	sltu	a0,v1,a0
400001b4:	14800019 	bnez	a0,4000021c <main+0x1fc>
400001b8:	00000000 	nop
400001bc:	3c040100 	lui	a0,0x100
400001c0:	34840000 	ori	a0,a0,0x0
400001c4:	0064202b 	sltu	a0,v1,a0
400001c8:	1480000a 	bnez	a0,400001f4 <main+0x1d4>
400001cc:	00000000 	nop
400001d0:	3c044000 	lui	a0,0x4000
400001d4:	24842e5c 	addiu	a0,a0,11868
400001d8:	00031e02 	srl	v1,v1,0x18
400001dc:	00831821 	addu	v1,a0,v1
400001e0:	90630000 	lbu	v1,0(v1)
400001e4:	00000000 	nop
400001e8:	2463ffff 	addiu	v1,v1,-1
400001ec:	0800009b 	j	4000026c <main+0x24c>
400001f0:	00000000 	nop
400001f4:	3c054000 	lui	a1,0x4000
400001f8:	00032402 	srl	a0,v1,0x10
400001fc:	24a32e5c 	addiu	v1,a1,11868
40000200:	308400ff 	andi	a0,a0,0xff
40000204:	00641821 	addu	v1,v1,a0
40000208:	90630000 	lbu	v1,0(v1)
4000020c:	00000000 	nop
40000210:	24630007 	addiu	v1,v1,7
40000214:	0800009b 	j	4000026c <main+0x24c>
40000218:	00000000 	nop
4000021c:	3064ff00 	andi	a0,v1,0xff00
40000220:	1080000b 	beqz	a0,40000250 <main+0x230>
40000224:	00000000 	nop
40000228:	3c054000 	lui	a1,0x4000
4000022c:	00032202 	srl	a0,v1,0x8
40000230:	24a32e5c 	addiu	v1,a1,11868
40000234:	308400ff 	andi	a0,a0,0xff
40000238:	00641821 	addu	v1,v1,a0
4000023c:	90630000 	lbu	v1,0(v1)
40000240:	00000000 	nop
40000244:	2463000f 	addiu	v1,v1,15
40000248:	0800009b 	j	4000026c <main+0x24c>
4000024c:	00000000 	nop
40000250:	3c044000 	lui	a0,0x4000
40000254:	24842e5c 	addiu	a0,a0,11868
40000258:	306300ff 	andi	v1,v1,0xff
4000025c:	00831821 	addu	v1,a0,v1
40000260:	90630000 	lbu	v1,0(v1)
40000264:	00000000 	nop
40000268:	24630017 	addiu	v1,v1,23
4000026c:	24040004 	li	a0,4
40000270:	00831823 	subu	v1,a0,v1
40000274:	00031c00 	sll	v1,v1,0x10
40000278:	3c040004 	lui	a0,0x4
4000027c:	24050000 	li	a1,0
40000280:	00034403 	sra	t0,v1,0x10
40000284:	00a3482a 	slt	t1,a1,v1
40000288:	3484fffe 	ori	a0,a0,0xfffe
4000028c:	2463ffff 	addiu	v1,v1,-1
40000290:	0083182b 	sltu	v1,a0,v1
40000294:	1460002d 	bnez	v1,4000034c <main+0x32c>
40000298:	00000000 	nop
4000029c:	2503ffff 	addiu	v1,t0,-1
400002a0:	24044000 	li	a0,16384
400002a4:	00642006 	srlv	a0,a0,v1
400002a8:	00041c00 	sll	v1,a0,0x10
400002ac:	00031c03 	sra	v1,v1,0x10
400002b0:	24060000 	li	a2,0
400002b4:	3084ffff 	andi	a0,a0,0xffff
400002b8:	34058000 	li	a1,0x8000
400002bc:	14850016 	bne	a0,a1,40000318 <main+0x2f8>
400002c0:	00000000 	nop
400002c4:	00062040 	sll	a0,a2,0x1
400002c8:	00443823 	subu	a3,v0,a0
400002cc:	84e40000 	lh	a0,0(a3)
400002d0:	00000000 	nop
400002d4:	24058000 	li	a1,-32768
400002d8:	14850004 	bne	a0,a1,400002ec <main+0x2cc>
400002dc:	00000000 	nop
400002e0:	24047fff 	li	a0,32767
400002e4:	080000bf 	j	400002fc <main+0x2dc>
400002e8:	00000000 	nop
400002ec:	00830018 	mult	a0,v1
400002f0:	00002012 	mflo	a0
400002f4:	24844000 	addiu	a0,a0,16384
400002f8:	000423c2 	srl	a0,a0,0xf
400002fc:	24c6ffff 	addiu	a2,a2,-1
40000300:	2405ff60 	li	a1,-160
40000304:	a4e40000 	sh	a0,0(a3)
40000308:	14c5ffee 	bne	a2,a1,400002c4 <main+0x2a4>
4000030c:	00000000 	nop
40000310:	080000d3 	j	4000034c <main+0x32c>
40000314:	00000000 	nop
40000318:	00062040 	sll	a0,a2,0x1
4000031c:	00442023 	subu	a0,v0,a0
40000320:	84850000 	lh	a1,0(a0)
40000324:	00000000 	nop
40000328:	00a30018 	mult	a1,v1
4000032c:	00002812 	mflo	a1
40000330:	24a54000 	addiu	a1,a1,16384
40000334:	24c6ffff 	addiu	a2,a2,-1
40000338:	00053bc2 	srl	a3,a1,0xf
4000033c:	2405ff60 	li	a1,-160
40000340:	a4870000 	sh	a3,0(a0)
40000344:	14c5fff4 	bne	a2,a1,40000318 <main+0x2f8>
40000348:	00000000 	nop
4000034c:	afa90014 	sw	t1,20(sp)
40000350:	afa80018 	sw	t0,24(sp)
40000354:	87a6002c 	lh	a2,44(sp)
40000358:	00000000 	nop
4000035c:	24040009 	li	a0,9
40000360:	27a3016c 	addiu	v1,sp,364
40000364:	00042880 	sll	a1,a0,0x2
40000368:	2484ffff 	addiu	a0,a0,-1
4000036c:	00652821 	addu	a1,v1,a1
40000370:	aca0fffc 	sw	zero,-4(a1)
40000374:	1c80fffa 	bgtz	a0,40000360 <main+0x340>
40000378:	00000000 	nop
4000037c:	87ab002e 	lh	t3,46(sp)
40000380:	00000000 	nop
40000384:	00c60018 	mult	a2,a2
40000388:	00002012 	mflo	a0
4000038c:	8fa5016c 	lw	a1,364(sp)
40000390:	00000000 	nop
40000394:	87ad0030 	lh	t5,48(sp)
40000398:	00000000 	nop
4000039c:	016b0018 	mult	t3,t3
400003a0:	00003812 	mflo	a3
400003a4:	00854821 	addu	t1,a0,a1
400003a8:	87ae0032 	lh	t6,50(sp)
400003ac:	00000000 	nop
400003b0:	00cb0018 	mult	a2,t3
400003b4:	00002812 	mflo	a1
400003b8:	8fa80170 	lw	t0,368(sp)
400003bc:	00000000 	nop
400003c0:	01ad0018 	mult	t5,t5
400003c4:	00002012 	mflo	a0
400003c8:	00e94821 	addu	t1,a3,t1
400003cc:	87ac0034 	lh	t4,52(sp)
400003d0:	00000000 	nop
400003d4:	016d0018 	mult	t3,t5
400003d8:	00003812 	mflo	a3
400003dc:	00a87821 	addu	t7,a1,t0
400003e0:	01ce0018 	mult	t6,t6
400003e4:	00004012 	mflo	t0
400003e8:	00894821 	addu	t1,a0,t1
400003ec:	87aa0036 	lh	t2,54(sp)
400003f0:	00000000 	nop
400003f4:	00cd0018 	mult	a2,t5
400003f8:	00002812 	mflo	a1
400003fc:	8fb90174 	lw	t9,372(sp)
40000400:	00000000 	nop
40000404:	01ae0018 	mult	t5,t6
40000408:	00002012 	mflo	a0
4000040c:	00efc021 	addu	t8,a3,t7
40000410:	018c0018 	mult	t4,t4
40000414:	00003812 	mflo	a3
40000418:	01094821 	addu	t1,t0,t1
4000041c:	87af0038 	lh	t7,56(sp)
40000420:	00000000 	nop
40000424:	016e0018 	mult	t3,t6
40000428:	00004012 	mflo	t0
4000042c:	00b98821 	addu	s1,a1,t9
40000430:	01cc0018 	mult	t6,t4
40000434:	00002812 	mflo	a1
40000438:	00988021 	addu	s0,a0,t8
4000043c:	014a0018 	mult	t2,t2
40000440:	00002012 	mflo	a0
40000444:	00e9c821 	addu	t9,a3,t1
40000448:	87a7003a 	lh	a3,58(sp)
4000044c:	00000000 	nop
40000450:	00ce0018 	mult	a2,t6
40000454:	0000c012 	mflo	t8
40000458:	8fb30178 	lw	s3,376(sp)
4000045c:	00000000 	nop
40000460:	01ac0018 	mult	t5,t4
40000464:	00004812 	mflo	t1
40000468:	01119021 	addu	s2,t0,s1
4000046c:	018a0018 	mult	t4,t2
40000470:	00004012 	mflo	t0
40000474:	00b08821 	addu	s1,a1,s0
40000478:	01ef0018 	mult	t7,t7
4000047c:	00002812 	mflo	a1
40000480:	00992021 	addu	a0,a0,t9
40000484:	016c0018 	mult	t3,t4
40000488:	0000c812 	mflo	t9
4000048c:	03138021 	addu	s0,t8,s3
40000490:	01ca0018 	mult	t6,t2
40000494:	0000c012 	mflo	t8
40000498:	01329821 	addu	s3,t1,s2
4000049c:	014f0018 	mult	t2,t7
400004a0:	00004812 	mflo	t1
400004a4:	0111b021 	addu	s6,t0,s1
400004a8:	00e70018 	mult	a3,a3
400004ac:	00004012 	mflo	t0
400004b0:	00a42021 	addu	a0,a1,a0
400004b4:	01044021 	addu	t0,t0,a0
400004b8:	00cc0018 	mult	a2,t4
400004bc:	00009012 	mflo	s2
400004c0:	8fb5017c 	lw	s5,380(sp)
400004c4:	00000000 	nop
400004c8:	01aa0018 	mult	t5,t2
400004cc:	00008812 	mflo	s1
400004d0:	0330a021 	addu	s4,t9,s0
400004d4:	018f0018 	mult	t4,t7
400004d8:	00008012 	mflo	s0
400004dc:	03139821 	addu	s3,t8,s3
400004e0:	01e70018 	mult	t7,a3
400004e4:	00002012 	mflo	a0
400004e8:	01362821 	addu	a1,t1,s6
400004ec:	8fb90180 	lw	t9,384(sp)
400004f0:	00000000 	nop
400004f4:	8fb80184 	lw	t8,388(sp)
400004f8:	00000000 	nop
400004fc:	00854821 	addu	t1,a0,a1
40000500:	afa8016c 	sw	t0,364(sp)
40000504:	016a0018 	mult	t3,t2
40000508:	00002812 	mflo	a1
4000050c:	02559021 	addu	s2,s2,s5
40000510:	01cf0018 	mult	t6,t7
40000514:	00002012 	mflo	a0
40000518:	02348821 	addu	s1,s1,s4
4000051c:	01470018 	mult	t2,a3
40000520:	0000a012 	mflo	s4
40000524:	02139821 	addu	s3,s0,s3
40000528:	00ca0018 	mult	a2,t2
4000052c:	00008012 	mflo	s0
40000530:	02935021 	addu	t2,s4,s3
40000534:	afa90170 	sw	t1,368(sp)
40000538:	01af0018 	mult	t5,t7
4000053c:	00009812 	mflo	s3
40000540:	00b22821 	addu	a1,a1,s2
40000544:	01870018 	mult	t4,a3
40000548:	00006012 	mflo	t4
4000054c:	00912021 	addu	a0,a0,s1
40000550:	01846021 	addu	t4,t4,a0
40000554:	afaa0174 	sw	t2,372(sp)
40000558:	016f0018 	mult	t3,t7
4000055c:	00002012 	mflo	a0
40000560:	0219c821 	addu	t9,s0,t9
40000564:	01c70018 	mult	t6,a3
40000568:	00007012 	mflo	t6
4000056c:	02658021 	addu	s0,s3,a1
40000570:	00cf0018 	mult	a2,t7
40000574:	00002812 	mflo	a1
40000578:	01d07021 	addu	t6,t6,s0
4000057c:	afac0178 	sw	t4,376(sp)
40000580:	01a70018 	mult	t5,a3
40000584:	00006812 	mflo	t5
40000588:	00992021 	addu	a0,a0,t9
4000058c:	01a46821 	addu	t5,t5,a0
40000590:	afae017c 	sw	t6,380(sp)
40000594:	01670018 	mult	t3,a3
40000598:	00002012 	mflo	a0
4000059c:	00b82821 	addu	a1,a1,t8
400005a0:	00857821 	addu	t7,a0,a1
400005a4:	afad0180 	sw	t5,384(sp)
400005a8:	afaf0184 	sw	t7,388(sp)
400005ac:	00c70018 	mult	a2,a3
400005b0:	00002012 	mflo	a0
400005b4:	8fa50188 	lw	a1,392(sp)
400005b8:	00000000 	nop
400005bc:	0085c021 	addu	t8,a0,a1
400005c0:	afb80188 	sw	t8,392(sp)
400005c4:	8fab018c 	lw	t3,396(sp)
400005c8:	00000000 	nop
400005cc:	24590008 	addiu	t9,v0,8
400005d0:	24100000 	li	s0,0
400005d4:	00102040 	sll	a0,s0,0x1
400005d8:	03248823 	subu	s1,t9,a0
400005dc:	00072400 	sll	a0,a3,0x10
400005e0:	86270008 	lh	a3,8(s1)
400005e4:	00000000 	nop
400005e8:	00049403 	sra	s2,a0,0x10
400005ec:	86340004 	lh	s4,4(s1)
400005f0:	00000000 	nop
400005f4:	86360002 	lh	s6,2(s1)
400005f8:	00000000 	nop
400005fc:	86250000 	lh	a1,0(s1)
40000600:	00000000 	nop
40000604:	8624fffe 	lh	a0,-2(s1)
40000608:	00000000 	nop
4000060c:	8637fffc 	lh	s7,-4(s1)
40000610:	00000000 	nop
40000614:	8635fffa 	lh	s5,-6(s1)
40000618:	00000000 	nop
4000061c:	8633fff8 	lh	s3,-8(s1)
40000620:	00000000 	nop
40000624:	00e70018 	mult	a3,a3
40000628:	00008812 	mflo	s1
4000062c:	02470018 	mult	s2,a3
40000630:	00009012 	mflo	s2
40000634:	02870018 	mult	s4,a3
40000638:	0000a012 	mflo	s4
4000063c:	02c70018 	mult	s6,a3
40000640:	0000b012 	mflo	s6
40000644:	00a70018 	mult	a1,a3
40000648:	00002812 	mflo	a1
4000064c:	00870018 	mult	a0,a3
40000650:	00002012 	mflo	a0
40000654:	02e70018 	mult	s7,a3
40000658:	0000b812 	mflo	s7
4000065c:	02a70018 	mult	s5,a3
40000660:	0000a812 	mflo	s5
40000664:	02670018 	mult	s3,a3
40000668:	00009812 	mflo	s3
4000066c:	2610ffff 	addiu	s0,s0,-1
40000670:	02284021 	addu	t0,s1,t0
40000674:	02494821 	addu	t1,s2,t1
40000678:	028a5021 	addu	t2,s4,t2
4000067c:	02cc6021 	addu	t4,s6,t4
40000680:	00ae7021 	addu	t6,a1,t6
40000684:	008d6821 	addu	t5,a0,t5
40000688:	02ef7821 	addu	t7,s7,t7
4000068c:	02b8c021 	addu	t8,s5,t8
40000690:	026b5821 	addu	t3,s3,t3
40000694:	2404ff68 	li	a0,-152
40000698:	1604ffce 	bne	s0,a0,400005d4 <main+0x5b4>
4000069c:	00000000 	nop
400006a0:	afa8016c 	sw	t0,364(sp)
400006a4:	afa90170 	sw	t1,368(sp)
400006a8:	afaa0174 	sw	t2,372(sp)
400006ac:	afac0178 	sw	t4,376(sp)
400006b0:	afae017c 	sw	t6,380(sp)
400006b4:	afad0180 	sw	t5,384(sp)
400006b8:	afaf0184 	sw	t7,388(sp)
400006bc:	24070008 	li	a3,8
400006c0:	afb80188 	sw	t8,392(sp)
400006c4:	afab018c 	sw	t3,396(sp)
400006c8:	8fa90018 	lw	t1,24(sp)
400006cc:	00000000 	nop
400006d0:	8faa0014 	lw	t2,20(sp)
400006d4:	00000000 	nop
400006d8:	00072080 	sll	a0,a3,0x2
400006dc:	000b2840 	sll	a1,t3,0x1
400006e0:	00642021 	addu	a0,v1,a0
400006e4:	28e80001 	slti	t0,a3,1
400006e8:	ac850000 	sw	a1,0(a0)
400006ec:	15000006 	bnez	t0,40000708 <main+0x6e8>
400006f0:	00000000 	nop
400006f4:	24e7ffff 	addiu	a3,a3,-1
400006f8:	8c8bfffc 	lw	t3,-4(a0)
400006fc:	00000000 	nop
40000700:	080001b6 	j	400006d8 <main+0x6b8>
40000704:	00000000 	nop
40000708:	24040001 	li	a0,1
4000070c:	15440010 	bne	t2,a0,40000750 <main+0x730>
40000710:	00000000 	nop
40000714:	2405009f 	li	a1,159
40000718:	00062400 	sll	a0,a2,0x10
4000071c:	00043403 	sra	a2,a0,0x10
40000720:	00052040 	sll	a0,a1,0x1
40000724:	00442023 	subu	a0,v0,a0
40000728:	01263804 	sllv	a3,a2,t1
4000072c:	28a60001 	slti	a2,a1,1
40000730:	a487013e 	sh	a3,318(a0)
40000734:	14c00006 	bnez	a2,40000750 <main+0x730>
40000738:	00000000 	nop
4000073c:	24a5ffff 	addiu	a1,a1,-1
40000740:	94860140 	lhu	a2,320(a0)
40000744:	00000000 	nop
40000748:	080001c6 	j	40000718 <main+0x6f8>
4000074c:	00000000 	nop
40000750:	8fa4016c 	lw	a0,364(sp)
40000754:	00000000 	nop
40000758:	1480000c 	bnez	a0,4000078c <main+0x76c>
4000075c:	00000000 	nop
40000760:	24030008 	li	v1,8
40000764:	24080000 	li	t0,0
40000768:	27a4001c 	addiu	a0,sp,28
4000076c:	00032840 	sll	a1,v1,0x1
40000770:	2463ffff 	addiu	v1,v1,-1
40000774:	00852023 	subu	a0,a0,a1
40000778:	a4880010 	sh	t0,16(a0)
4000077c:	1c60fffa 	bgtz	v1,40000768 <main+0x748>
40000780:	00000000 	nop
40000784:	08000310 	j	40000c40 <main+0xc20>
40000788:	00000000 	nop
4000078c:	2405ffff 	li	a1,-1
40000790:	00a4302a 	slt	a2,a1,a0
40000794:	00042821 	addu	a1,zero,a0
40000798:	14c0000a 	bnez	a2,400007c4 <main+0x7a4>
4000079c:	00000000 	nop
400007a0:	3c05c000 	lui	a1,0xc000
400007a4:	34a50001 	ori	a1,a1,0x1
400007a8:	0085282a 	slt	a1,a0,a1
400007ac:	10a00004 	beqz	a1,400007c0 <main+0x7a0>
400007b0:	00000000 	nop
400007b4:	24050000 	li	a1,0
400007b8:	08000222 	j	40000888 <main+0x868>
400007bc:	00000000 	nop
400007c0:	00802827 	nor	a1,a0,zero
400007c4:	3c060001 	lui	a2,0x1
400007c8:	34c60000 	ori	a2,a2,0x0
400007cc:	00a6302b 	sltu	a2,a1,a2
400007d0:	14c00019 	bnez	a2,40000838 <main+0x818>
400007d4:	00000000 	nop
400007d8:	3c060100 	lui	a2,0x100
400007dc:	34c60000 	ori	a2,a2,0x0
400007e0:	00a6302b 	sltu	a2,a1,a2
400007e4:	14c0000a 	bnez	a2,40000810 <main+0x7f0>
400007e8:	00000000 	nop
400007ec:	3c064000 	lui	a2,0x4000
400007f0:	24c62e5c 	addiu	a2,a2,11868
400007f4:	00052e02 	srl	a1,a1,0x18
400007f8:	00c52821 	addu	a1,a2,a1
400007fc:	90a50000 	lbu	a1,0(a1)
40000800:	00000000 	nop
40000804:	24a5ffff 	addiu	a1,a1,-1
40000808:	08000222 	j	40000888 <main+0x868>
4000080c:	00000000 	nop
40000810:	3c074000 	lui	a3,0x4000
40000814:	00053402 	srl	a2,a1,0x10
40000818:	24e52e5c 	addiu	a1,a3,11868
4000081c:	30c600ff 	andi	a2,a2,0xff
40000820:	00a62821 	addu	a1,a1,a2
40000824:	90a50000 	lbu	a1,0(a1)
40000828:	00000000 	nop
4000082c:	24a50007 	addiu	a1,a1,7
40000830:	08000222 	j	40000888 <main+0x868>
40000834:	00000000 	nop
40000838:	30a6ff00 	andi	a2,a1,0xff00
4000083c:	10c0000b 	beqz	a2,4000086c <main+0x84c>
40000840:	00000000 	nop
40000844:	3c074000 	lui	a3,0x4000
40000848:	00053202 	srl	a2,a1,0x8
4000084c:	24e52e5c 	addiu	a1,a3,11868
40000850:	30c600ff 	andi	a2,a2,0xff
40000854:	00a62821 	addu	a1,a1,a2
40000858:	90a50000 	lbu	a1,0(a1)
4000085c:	00000000 	nop
40000860:	24a5000f 	addiu	a1,a1,15
40000864:	08000222 	j	40000888 <main+0x868>
40000868:	00000000 	nop
4000086c:	3c064000 	lui	a2,0x4000
40000870:	24c62e5c 	addiu	a2,a2,11868
40000874:	30a500ff 	andi	a1,a1,0xff
40000878:	00c52821 	addu	a1,a2,a1
4000087c:	90a50000 	lbu	a1,0(a1)
40000880:	00000000 	nop
40000884:	24a50017 	addiu	a1,a1,23
40000888:	24060000 	li	a2,0
4000088c:	00a43804 	sllv	a3,a0,a1
40000890:	27a401b8 	addiu	a0,sp,440
40000894:	00064040 	sll	t0,a2,0x1
40000898:	00073c02 	srl	a3,a3,0x10
4000089c:	00884823 	subu	t1,a0,t0
400008a0:	2408fff8 	li	t0,-8
400008a4:	a5270000 	sh	a3,0(t1)
400008a8:	14c802bf 	bne	a2,t0,400013a8 <main+0x1388>
400008ac:	00000000 	nop
400008b0:	27a30190 	addiu	v1,sp,400
400008b4:	34630002 	ori	v1,v1,0x2
400008b8:	34860002 	ori	a2,a0,0x2
400008bc:	24070000 	li	a3,0
400008c0:	24050000 	li	a1,0
400008c4:	00074040 	sll	t0,a3,0x1
400008c8:	00c84823 	subu	t1,a2,t0
400008cc:	24e7ffff 	addiu	a3,a3,-1
400008d0:	95290000 	lhu	t1,0(t1)
400008d4:	00000000 	nop
400008d8:	00685023 	subu	t2,v1,t0
400008dc:	2408fff9 	li	t0,-7
400008e0:	a5490000 	sh	t1,0(t2)
400008e4:	14e8fff7 	bne	a3,t0,400008c4 <main+0x8a4>
400008e8:	00000000 	nop
400008ec:	00053840 	sll	a3,a1,0x1
400008f0:	00874023 	subu	t0,a0,a3
400008f4:	27a601a4 	addiu	a2,sp,420
400008f8:	24a5ffff 	addiu	a1,a1,-1
400008fc:	95080000 	lhu	t0,0(t0)
40000900:	00000000 	nop
40000904:	00c74823 	subu	t1,a2,a3
40000908:	2407fff7 	li	a3,-9
4000090c:	a5280000 	sh	t0,0(t1)
40000910:	14a7fff6 	bne	a1,a3,400008ec <main+0x8cc>
40000914:	00000000 	nop
40000918:	24c60004 	addiu	a2,a2,4
4000091c:	24050000 	li	a1,0
40000920:	24070007 	li	a3,7
40000924:	24040001 	li	a0,1
40000928:	87a901a6 	lh	t1,422(sp)
4000092c:	00000000 	nop
40000930:	2408ffff 	li	t0,-1
40000934:	0109402a 	slt	t0,t0,t1
40000938:	1500000b 	bnez	t0,40000968 <main+0x948>
4000093c:	00000000 	nop
40000940:	3128ffff 	andi	t0,t1,0xffff
40000944:	340a8000 	li	t2,0x8000
40000948:	010a4026 	xor	t0,t0,t2
4000094c:	11000005 	beqz	t0,40000964 <main+0x944>
40000950:	00000000 	nop
40000954:	24080000 	li	t0,0
40000958:	01094823 	subu	t1,t0,t1
4000095c:	0800025a 	j	40000968 <main+0x948>
40000960:	00000000 	nop
40000964:	24097fff 	li	t1,32767
40000968:	27a8001c 	addiu	t0,sp,28
4000096c:	00095c00 	sll	t3,t1,0x10
40000970:	87aa01a4 	lh	t2,420(sp)
40000974:	00000000 	nop
40000978:	000b5c03 	sra	t3,t3,0x10
4000097c:	014b602a 	slt	t4,t2,t3
40000980:	11800014 	beqz	t4,400009d4 <main+0x9b4>
40000984:	00000000 	nop
40000988:	24030008 	li	v1,8
4000098c:	0064182a 	slt	v1,v1,a0
40000990:	10600004 	beqz	v1,400009a4 <main+0x984>
40000994:	00000000 	nop
40000998:	24080000 	li	t0,0
4000099c:	08000310 	j	40000c40 <main+0xc20>
400009a0:	00000000 	nop
400009a4:	01051821 	addu	v1,t0,a1
400009a8:	24050009 	li	a1,9
400009ac:	00a42023 	subu	a0,a1,a0
400009b0:	24080000 	li	t0,0
400009b4:	2484ffff 	addiu	a0,a0,-1
400009b8:	24650002 	addiu	a1,v1,2
400009bc:	a4680000 	sh	t0,0(v1)
400009c0:	00051821 	addu	v1,zero,a1
400009c4:	1480fffb 	bnez	a0,400009b4 <main+0x994>
400009c8:	00000000 	nop
400009cc:	08000310 	j	40000c40 <main+0xc20>
400009d0:	00000000 	nop
400009d4:	00076040 	sll	t4,a3,0x1
400009d8:	010c4023 	subu	t0,t0,t4
400009dc:	3129ffff 	andi	t1,t1,0xffff
400009e0:	15200004 	bnez	t1,400009f4 <main+0x9d4>
400009e4:	00000000 	nop
400009e8:	24090000 	li	t1,0
400009ec:	08000289 	j	40000a24 <main+0xa04>
400009f0:	00000000 	nop
400009f4:	240cfff1 	li	t4,-15
400009f8:	24090000 	li	t1,0
400009fc:	00094840 	sll	t1,t1,0x1
40000a00:	000b5840 	sll	t3,t3,0x1
40000a04:	016a682a 	slt	t5,t3,t2
40000a08:	15a00003 	bnez	t5,40000a18 <main+0x9f8>
40000a0c:	00000000 	nop
40000a10:	016a5823 	subu	t3,t3,t2
40000a14:	35290001 	ori	t1,t1,0x1
40000a18:	258c0001 	addiu	t4,t4,1
40000a1c:	1580fff7 	bnez	t4,400009fc <main+0x9dc>
40000a20:	00000000 	nop
40000a24:	a509000e 	sh	t1,14(t0)
40000a28:	87aa01a6 	lh	t2,422(sp)
40000a2c:	00000000 	nop
40000a30:	294a0001 	slti	t2,t2,1
40000a34:	15400004 	bnez	t2,40000a48 <main+0xa28>
40000a38:	00000000 	nop
40000a3c:	240a0000 	li	t2,0
40000a40:	01494823 	subu	t1,t2,t1
40000a44:	a509000e 	sh	t1,14(t0)
40000a48:	14e00004 	bnez	a3,40000a5c <main+0xa3c>
40000a4c:	00000000 	nop
40000a50:	24080000 	li	t0,0
40000a54:	08000310 	j	40000c40 <main+0xc20>
40000a58:	00000000 	nop
40000a5c:	87aa01a6 	lh	t2,422(sp)
40000a60:	00000000 	nop
40000a64:	312bffff 	andi	t3,t1,0xffff
40000a68:	340c8000 	li	t4,0x8000
40000a6c:	156c0008 	bne	t3,t4,40000a90 <main+0xa70>
40000a70:	00000000 	nop
40000a74:	314bffff 	andi	t3,t2,0xffff
40000a78:	340c8000 	li	t4,0x8000
40000a7c:	156c0004 	bne	t3,t4,40000a90 <main+0xa70>
40000a80:	00000000 	nop
40000a84:	24097fff 	li	t1,32767
40000a88:	080002ac 	j	40000ab0 <main+0xa90>
40000a8c:	00000000 	nop
40000a90:	00094c00 	sll	t1,t1,0x10
40000a94:	00094c03 	sra	t1,t1,0x10
40000a98:	01490018 	mult	t2,t1
40000a9c:	00004812 	mflo	t1
40000aa0:	00094840 	sll	t1,t1,0x1
40000aa4:	340a8000 	li	t2,0x8000
40000aa8:	012a4821 	addu	t1,t1,t2
40000aac:	00094c03 	sra	t1,t1,0x10
40000ab0:	87aa01a4 	lh	t2,420(sp)
40000ab4:	00000000 	nop
40000ab8:	01494821 	addu	t1,t2,t1
40000abc:	292a8000 	slti	t2,t1,-32768
40000ac0:	11400004 	beqz	t2,40000ad4 <main+0xab4>
40000ac4:	00000000 	nop
40000ac8:	34098000 	li	t1,0x8000
40000acc:	080002ba 	j	40000ae8 <main+0xac8>
40000ad0:	00000000 	nop
40000ad4:	240a7fff 	li	t2,32767
40000ad8:	0149582a 	slt	t3,t2,t1
40000adc:	11600002 	beqz	t3,40000ae8 <main+0xac8>
40000ae0:	00000000 	nop
40000ae4:	000a4821 	addu	t1,zero,t2
40000ae8:	28ec0001 	slti	t4,a3,1
40000aec:	a7a901a4 	sh	t1,420(sp)
40000af0:	00035021 	addu	t2,zero,v1
40000af4:	00074821 	addu	t1,zero,a3
40000af8:	00065821 	addu	t3,zero,a2
40000afc:	15800049 	bnez	t4,40000c24 <main+0xc04>
40000b00:	00000000 	nop
40000b04:	854c0000 	lh	t4,0(t2)
40000b08:	00000000 	nop
40000b0c:	850d000e 	lh	t5,14(t0)
40000b10:	00000000 	nop
40000b14:	240e8000 	li	t6,-32768
40000b18:	15ae0008 	bne	t5,t6,40000b3c <main+0xb1c>
40000b1c:	00000000 	nop
40000b20:	318effff 	andi	t6,t4,0xffff
40000b24:	340f8000 	li	t7,0x8000
40000b28:	15cf0004 	bne	t6,t7,40000b3c <main+0xb1c>
40000b2c:	00000000 	nop
40000b30:	240e7fff 	li	t6,32767
40000b34:	080002d5 	j	40000b54 <main+0xb34>
40000b38:	00000000 	nop
40000b3c:	018d0018 	mult	t4,t5
40000b40:	00006812 	mflo	t5
40000b44:	000d6840 	sll	t5,t5,0x1
40000b48:	340e8000 	li	t6,0x8000
40000b4c:	01ae6821 	addu	t5,t5,t6
40000b50:	000d7403 	sra	t6,t5,0x10
40000b54:	856d0000 	lh	t5,0(t3)
40000b58:	00000000 	nop
40000b5c:	01ae7021 	addu	t6,t5,t6
40000b60:	29cf8000 	slti	t7,t6,-32768
40000b64:	11e00004 	beqz	t7,40000b78 <main+0xb58>
40000b68:	00000000 	nop
40000b6c:	340e8000 	li	t6,0x8000
40000b70:	080002e3 	j	40000b8c <main+0xb6c>
40000b74:	00000000 	nop
40000b78:	240f7fff 	li	t7,32767
40000b7c:	01eec02a 	slt	t8,t7,t6
40000b80:	13000002 	beqz	t8,40000b8c <main+0xb6c>
40000b84:	00000000 	nop
40000b88:	000f7021 	addu	t6,zero,t7
40000b8c:	a56efffe 	sh	t6,-2(t3)
40000b90:	850e000e 	lh	t6,14(t0)
40000b94:	00000000 	nop
40000b98:	240f8000 	li	t7,-32768
40000b9c:	15cf0008 	bne	t6,t7,40000bc0 <main+0xba0>
40000ba0:	00000000 	nop
40000ba4:	31afffff 	andi	t7,t5,0xffff
40000ba8:	34188000 	li	t8,0x8000
40000bac:	15f80004 	bne	t7,t8,40000bc0 <main+0xba0>
40000bb0:	00000000 	nop
40000bb4:	240d7fff 	li	t5,32767
40000bb8:	080002f6 	j	40000bd8 <main+0xbb8>
40000bbc:	00000000 	nop
40000bc0:	01ae0018 	mult	t5,t6
40000bc4:	00006812 	mflo	t5
40000bc8:	000d6840 	sll	t5,t5,0x1
40000bcc:	340e8000 	li	t6,0x8000
40000bd0:	01ae6821 	addu	t5,t5,t6
40000bd4:	000d6c03 	sra	t5,t5,0x10
40000bd8:	018d6021 	addu	t4,t4,t5
40000bdc:	298d8000 	slti	t5,t4,-32768
40000be0:	11a00004 	beqz	t5,40000bf4 <main+0xbd4>
40000be4:	00000000 	nop
40000be8:	340c8000 	li	t4,0x8000
40000bec:	08000302 	j	40000c08 <main+0xbe8>
40000bf0:	00000000 	nop
40000bf4:	240d7fff 	li	t5,32767
40000bf8:	01ac702a 	slt	t6,t5,t4
40000bfc:	11c00002 	beqz	t6,40000c08 <main+0xbe8>
40000c00:	00000000 	nop
40000c04:	000d6021 	addu	t4,zero,t5
40000c08:	2529ffff 	addiu	t1,t1,-1
40000c0c:	256b0002 	addiu	t3,t3,2
40000c10:	254d0002 	addiu	t5,t2,2
40000c14:	a54c0000 	sh	t4,0(t2)
40000c18:	000d5021 	addu	t2,zero,t5
40000c1c:	1520ffb9 	bnez	t1,40000b04 <main+0xae4>
40000c20:	00000000 	nop
40000c24:	24840001 	addiu	a0,a0,1
40000c28:	24e7ffff 	addiu	a3,a3,-1
40000c2c:	24a50002 	addiu	a1,a1,2
40000c30:	24080000 	li	t0,0
40000c34:	28890009 	slti	t1,a0,9
40000c38:	1520ff3b 	bnez	t1,40000928 <main+0x908>
40000c3c:	00000000 	nop
40000c40:	27a3001c 	addiu	v1,sp,28
40000c44:	00082040 	sll	a0,t0,0x1
40000c48:	00642023 	subu	a0,v1,a0
40000c4c:	84850000 	lh	a1,0(a0)
40000c50:	00000000 	nop
40000c54:	2406ffff 	li	a2,-1
40000c58:	00c5382a 	slt	a3,a2,a1
40000c5c:	00053021 	addu	a2,zero,a1
40000c60:	14e00007 	bnez	a3,40000c80 <main+0xc60>
40000c64:	00000000 	nop
40000c68:	30a6ffff 	andi	a2,a1,0xffff
40000c6c:	34078000 	li	a3,0x8000
40000c70:	10c70013 	beq	a2,a3,40000cc0 <main+0xca0>
40000c74:	00000000 	nop
40000c78:	24060000 	li	a2,0
40000c7c:	00c53023 	subu	a2,a2,a1
40000c80:	00063c00 	sll	a3,a2,0x10
40000c84:	24095665 	li	t1,22117
40000c88:	00073c03 	sra	a3,a3,0x10
40000c8c:	0127482a 	slt	t1,t1,a3
40000c90:	15200004 	bnez	t1,40000ca4 <main+0xc84>
40000c94:	00000000 	nop
40000c98:	00073042 	srl	a2,a3,0x1
40000c9c:	08000333 	j	40000ccc <main+0xcac>
40000ca0:	00000000 	nop
40000ca4:	24097999 	li	t1,31129
40000ca8:	0127382a 	slt	a3,t1,a3
40000cac:	14e00005 	bnez	a3,40000cc4 <main+0xca4>
40000cb0:	00000000 	nop
40000cb4:	24c6d4cd 	addiu	a2,a2,-11059
40000cb8:	08000333 	j	40000ccc <main+0xcac>
40000cbc:	00000000 	nop
40000cc0:	24067fff 	li	a2,32767
40000cc4:	00063080 	sll	a2,a2,0x2
40000cc8:	24c66800 	addiu	a2,a2,26624
40000ccc:	28a50000 	slti	a1,a1,0
40000cd0:	10a00003 	beqz	a1,40000ce0 <main+0xcc0>
40000cd4:	00000000 	nop
40000cd8:	24050000 	li	a1,0
40000cdc:	00a63023 	subu	a2,a1,a2
40000ce0:	2508ffff 	addiu	t0,t0,-1
40000ce4:	2405fff8 	li	a1,-8
40000ce8:	a4860000 	sh	a2,0(a0)
40000cec:	1505ffd4 	bne	t0,a1,40000c40 <main+0xc20>
40000cf0:	00000000 	nop
40000cf4:	87a4001c 	lh	a0,28(sp)
40000cf8:	00000000 	nop
40000cfc:	3405a000 	li	a1,0xa000
40000d00:	00850018 	mult	a0,a1
40000d04:	00002012 	mflo	a0
40000d08:	00042403 	sra	a0,a0,0x10
40000d0c:	24850100 	addiu	a1,a0,256
40000d10:	28a48000 	slti	a0,a1,-32768
40000d14:	10800004 	beqz	a0,40000d28 <main+0xd08>
40000d18:	00000000 	nop
40000d1c:	24040000 	li	a0,0
40000d20:	0800035c 	j	40000d70 <main+0xd50>
40000d24:	00000000 	nop
40000d28:	24067fff 	li	a2,32767
40000d2c:	2404003f 	li	a0,63
40000d30:	00c5302a 	slt	a2,a2,a1
40000d34:	14c0000e 	bnez	a2,40000d70 <main+0xd50>
40000d38:	00000000 	nop
40000d3c:	00052c00 	sll	a1,a1,0x10
40000d40:	00052e43 	sra	a1,a1,0x19
40000d44:	2406001f 	li	a2,31
40000d48:	00c5302a 	slt	a2,a2,a1
40000d4c:	14c00008 	bnez	a2,40000d70 <main+0xd50>
40000d50:	00000000 	nop
40000d54:	28a4ffe0 	slti	a0,a1,-32
40000d58:	10800004 	beqz	a0,40000d6c <main+0xd4c>
40000d5c:	00000000 	nop
40000d60:	24040000 	li	a0,0
40000d64:	0800035c 	j	40000d70 <main+0xd50>
40000d68:	00000000 	nop
40000d6c:	24a40020 	addiu	a0,a1,32
40000d70:	a7a4001c 	sh	a0,28(sp)
40000d74:	87a5001e 	lh	a1,30(sp)
40000d78:	00000000 	nop
40000d7c:	3406a000 	li	a2,0xa000
40000d80:	00a60018 	mult	a1,a2
40000d84:	00002812 	mflo	a1
40000d88:	00052c03 	sra	a1,a1,0x10
40000d8c:	24a60100 	addiu	a2,a1,256
40000d90:	28c58000 	slti	a1,a2,-32768
40000d94:	10a00004 	beqz	a1,40000da8 <main+0xd88>
40000d98:	00000000 	nop
40000d9c:	24050000 	li	a1,0
40000da0:	0800037c 	j	40000df0 <main+0xdd0>
40000da4:	00000000 	nop
40000da8:	24077fff 	li	a3,32767
40000dac:	2405003f 	li	a1,63
40000db0:	00e6382a 	slt	a3,a3,a2
40000db4:	14e0000e 	bnez	a3,40000df0 <main+0xdd0>
40000db8:	00000000 	nop
40000dbc:	00063400 	sll	a2,a2,0x10
40000dc0:	00063643 	sra	a2,a2,0x19
40000dc4:	2407001f 	li	a3,31
40000dc8:	00e6382a 	slt	a3,a3,a2
40000dcc:	14e00008 	bnez	a3,40000df0 <main+0xdd0>
40000dd0:	00000000 	nop
40000dd4:	28c5ffe0 	slti	a1,a2,-32
40000dd8:	10a00004 	beqz	a1,40000dec <main+0xdcc>
40000ddc:	00000000 	nop
40000de0:	24050000 	li	a1,0
40000de4:	0800037c 	j	40000df0 <main+0xdd0>
40000de8:	00000000 	nop
40000dec:	24c50020 	addiu	a1,a2,32
40000df0:	a7a5001e 	sh	a1,30(sp)
40000df4:	87a50020 	lh	a1,32(sp)
40000df8:	00000000 	nop
40000dfc:	3406a000 	li	a2,0xa000
40000e00:	00a60018 	mult	a1,a2
40000e04:	00002812 	mflo	a1
40000e08:	00052c03 	sra	a1,a1,0x10
40000e0c:	24a50800 	addiu	a1,a1,2048
40000e10:	28a68000 	slti	a2,a1,-32768
40000e14:	10c00004 	beqz	a2,40000e28 <main+0xe08>
40000e18:	00000000 	nop
40000e1c:	24050000 	li	a1,0
40000e20:	080003ac 	j	40000eb0 <main+0xe90>
40000e24:	00000000 	nop
40000e28:	24067fff 	li	a2,32767
40000e2c:	00c5302a 	slt	a2,a2,a1
40000e30:	10c00004 	beqz	a2,40000e44 <main+0xe24>
40000e34:	00000000 	nop
40000e38:	2405001f 	li	a1,31
40000e3c:	080003ac 	j	40000eb0 <main+0xe90>
40000e40:	00000000 	nop
40000e44:	00052c00 	sll	a1,a1,0x10
40000e48:	00052c03 	sra	a1,a1,0x10
40000e4c:	24a60100 	addiu	a2,a1,256
40000e50:	28c58000 	slti	a1,a2,-32768
40000e54:	10a00004 	beqz	a1,40000e68 <main+0xe48>
40000e58:	00000000 	nop
40000e5c:	24050000 	li	a1,0
40000e60:	080003ac 	j	40000eb0 <main+0xe90>
40000e64:	00000000 	nop
40000e68:	24077fff 	li	a3,32767
40000e6c:	2405001f 	li	a1,31
40000e70:	00e6382a 	slt	a3,a3,a2
40000e74:	14e0000e 	bnez	a3,40000eb0 <main+0xe90>
40000e78:	00000000 	nop
40000e7c:	00063400 	sll	a2,a2,0x10
40000e80:	00063643 	sra	a2,a2,0x19
40000e84:	2407000f 	li	a3,15
40000e88:	00e6382a 	slt	a3,a3,a2
40000e8c:	14e00008 	bnez	a3,40000eb0 <main+0xe90>
40000e90:	00000000 	nop
40000e94:	28c5fff0 	slti	a1,a2,-16
40000e98:	10a00004 	beqz	a1,40000eac <main+0xe8c>
40000e9c:	00000000 	nop
40000ea0:	24050000 	li	a1,0
40000ea4:	080003ac 	j	40000eb0 <main+0xe90>
40000ea8:	00000000 	nop
40000eac:	24c50010 	addiu	a1,a2,16
40000eb0:	a7a50020 	sh	a1,32(sp)
40000eb4:	87a50022 	lh	a1,34(sp)
40000eb8:	00000000 	nop
40000ebc:	3406a000 	li	a2,0xa000
40000ec0:	00a60018 	mult	a1,a2
40000ec4:	00002812 	mflo	a1
40000ec8:	00052c03 	sra	a1,a1,0x10
40000ecc:	24a5f600 	addiu	a1,a1,-2560
40000ed0:	28a68000 	slti	a2,a1,-32768
40000ed4:	10c00004 	beqz	a2,40000ee8 <main+0xec8>
40000ed8:	00000000 	nop
40000edc:	24050000 	li	a1,0
40000ee0:	080003dc 	j	40000f70 <main+0xf50>
40000ee4:	00000000 	nop
40000ee8:	24067fff 	li	a2,32767
40000eec:	00c5302a 	slt	a2,a2,a1
40000ef0:	10c00004 	beqz	a2,40000f04 <main+0xee4>
40000ef4:	00000000 	nop
40000ef8:	2405001f 	li	a1,31
40000efc:	080003dc 	j	40000f70 <main+0xf50>
40000f00:	00000000 	nop
40000f04:	00052c00 	sll	a1,a1,0x10
40000f08:	00052c03 	sra	a1,a1,0x10
40000f0c:	24a60100 	addiu	a2,a1,256
40000f10:	28c58000 	slti	a1,a2,-32768
40000f14:	10a00004 	beqz	a1,40000f28 <main+0xf08>
40000f18:	00000000 	nop
40000f1c:	24050000 	li	a1,0
40000f20:	080003dc 	j	40000f70 <main+0xf50>
40000f24:	00000000 	nop
40000f28:	24077fff 	li	a3,32767
40000f2c:	2405001f 	li	a1,31
40000f30:	00e6382a 	slt	a3,a3,a2
40000f34:	14e0000e 	bnez	a3,40000f70 <main+0xf50>
40000f38:	00000000 	nop
40000f3c:	00063400 	sll	a2,a2,0x10
40000f40:	00063643 	sra	a2,a2,0x19
40000f44:	2407000f 	li	a3,15
40000f48:	00e6382a 	slt	a3,a3,a2
40000f4c:	14e00008 	bnez	a3,40000f70 <main+0xf50>
40000f50:	00000000 	nop
40000f54:	28c5fff0 	slti	a1,a2,-16
40000f58:	10a00004 	beqz	a1,40000f6c <main+0xf4c>
40000f5c:	00000000 	nop
40000f60:	24050000 	li	a1,0
40000f64:	080003dc 	j	40000f70 <main+0xf50>
40000f68:	00000000 	nop
40000f6c:	24c50010 	addiu	a1,a2,16
40000f70:	a7a50022 	sh	a1,34(sp)
40000f74:	87a50024 	lh	a1,36(sp)
40000f78:	00000000 	nop
40000f7c:	24066d18 	li	a2,27928
40000f80:	00a60018 	mult	a1,a2
40000f84:	00002812 	mflo	a1
40000f88:	00052c03 	sra	a1,a1,0x10
40000f8c:	24a5005e 	addiu	a1,a1,94
40000f90:	28a68000 	slti	a2,a1,-32768
40000f94:	10c00004 	beqz	a2,40000fa8 <main+0xf88>
40000f98:	00000000 	nop
40000f9c:	24050000 	li	a1,0
40000fa0:	0800040c 	j	40001030 <main+0x1010>
40000fa4:	00000000 	nop
40000fa8:	24067fff 	li	a2,32767
40000fac:	00c5302a 	slt	a2,a2,a1
40000fb0:	10c00004 	beqz	a2,40000fc4 <main+0xfa4>
40000fb4:	00000000 	nop
40000fb8:	2405000f 	li	a1,15
40000fbc:	0800040c 	j	40001030 <main+0x1010>
40000fc0:	00000000 	nop
40000fc4:	00052c00 	sll	a1,a1,0x10
40000fc8:	00052c03 	sra	a1,a1,0x10
40000fcc:	24a60100 	addiu	a2,a1,256
40000fd0:	28c58000 	slti	a1,a2,-32768
40000fd4:	10a00004 	beqz	a1,40000fe8 <main+0xfc8>
40000fd8:	00000000 	nop
40000fdc:	24050000 	li	a1,0
40000fe0:	0800040c 	j	40001030 <main+0x1010>
40000fe4:	00000000 	nop
40000fe8:	24077fff 	li	a3,32767
40000fec:	2405000f 	li	a1,15
40000ff0:	00e6382a 	slt	a3,a3,a2
40000ff4:	14e0000e 	bnez	a3,40001030 <main+0x1010>
40000ff8:	00000000 	nop
40000ffc:	00063400 	sll	a2,a2,0x10
40001000:	00063643 	sra	a2,a2,0x19
40001004:	24070007 	li	a3,7
40001008:	00e6382a 	slt	a3,a3,a2
4000100c:	14e00008 	bnez	a3,40001030 <main+0x1010>
40001010:	00000000 	nop
40001014:	28c5fff8 	slti	a1,a2,-8
40001018:	10a00004 	beqz	a1,4000102c <main+0x100c>
4000101c:	00000000 	nop
40001020:	24050000 	li	a1,0
40001024:	0800040c 	j	40001030 <main+0x1010>
40001028:	00000000 	nop
4000102c:	24c50008 	addiu	a1,a2,8
40001030:	a7a50024 	sh	a1,36(sp)
40001034:	87a50026 	lh	a1,38(sp)
40001038:	00000000 	nop
4000103c:	24067800 	li	a2,30720
40001040:	00a60018 	mult	a1,a2
40001044:	00002812 	mflo	a1
40001048:	00052c03 	sra	a1,a1,0x10
4000104c:	24a5f900 	addiu	a1,a1,-1792
40001050:	28a68000 	slti	a2,a1,-32768
40001054:	10c00004 	beqz	a2,40001068 <main+0x1048>
40001058:	00000000 	nop
4000105c:	24050000 	li	a1,0
40001060:	0800043c 	j	400010f0 <main+0x10d0>
40001064:	00000000 	nop
40001068:	24067fff 	li	a2,32767
4000106c:	00c5302a 	slt	a2,a2,a1
40001070:	10c00004 	beqz	a2,40001084 <main+0x1064>
40001074:	00000000 	nop
40001078:	2405000f 	li	a1,15
4000107c:	0800043c 	j	400010f0 <main+0x10d0>
40001080:	00000000 	nop
40001084:	00052c00 	sll	a1,a1,0x10
40001088:	00052c03 	sra	a1,a1,0x10
4000108c:	24a60100 	addiu	a2,a1,256
40001090:	28c58000 	slti	a1,a2,-32768
40001094:	10a00004 	beqz	a1,400010a8 <main+0x1088>
40001098:	00000000 	nop
4000109c:	24050000 	li	a1,0
400010a0:	0800043c 	j	400010f0 <main+0x10d0>
400010a4:	00000000 	nop
400010a8:	24077fff 	li	a3,32767
400010ac:	2405000f 	li	a1,15
400010b0:	00e6382a 	slt	a3,a3,a2
400010b4:	14e0000e 	bnez	a3,400010f0 <main+0x10d0>
400010b8:	00000000 	nop
400010bc:	00063400 	sll	a2,a2,0x10
400010c0:	00063643 	sra	a2,a2,0x19
400010c4:	24070007 	li	a3,7
400010c8:	00e6382a 	slt	a3,a3,a2
400010cc:	14e00008 	bnez	a3,400010f0 <main+0x10d0>
400010d0:	00000000 	nop
400010d4:	28c5fff8 	slti	a1,a2,-8
400010d8:	10a00004 	beqz	a1,400010ec <main+0x10cc>
400010dc:	00000000 	nop
400010e0:	24050000 	li	a1,0
400010e4:	0800043c 	j	400010f0 <main+0x10d0>
400010e8:	00000000 	nop
400010ec:	24c50008 	addiu	a1,a2,8
400010f0:	a7a50026 	sh	a1,38(sp)
400010f4:	87a50028 	lh	a1,40(sp)
400010f8:	00000000 	nop
400010fc:	240642ac 	li	a2,17068
40001100:	00a60018 	mult	a1,a2
40001104:	00002812 	mflo	a1
40001108:	00052c03 	sra	a1,a1,0x10
4000110c:	24a5feab 	addiu	a1,a1,-341
40001110:	28a68000 	slti	a2,a1,-32768
40001114:	10c00004 	beqz	a2,40001128 <main+0x1108>
40001118:	00000000 	nop
4000111c:	24050000 	li	a1,0
40001120:	0800046c 	j	400011b0 <main+0x1190>
40001124:	00000000 	nop
40001128:	24067fff 	li	a2,32767
4000112c:	00c5302a 	slt	a2,a2,a1
40001130:	10c00004 	beqz	a2,40001144 <main+0x1124>
40001134:	00000000 	nop
40001138:	24050007 	li	a1,7
4000113c:	0800046c 	j	400011b0 <main+0x1190>
40001140:	00000000 	nop
40001144:	00052c00 	sll	a1,a1,0x10
40001148:	00052c03 	sra	a1,a1,0x10
4000114c:	24a60100 	addiu	a2,a1,256
40001150:	28c58000 	slti	a1,a2,-32768
40001154:	10a00004 	beqz	a1,40001168 <main+0x1148>
40001158:	00000000 	nop
4000115c:	24050000 	li	a1,0
40001160:	0800046c 	j	400011b0 <main+0x1190>
40001164:	00000000 	nop
40001168:	24077fff 	li	a3,32767
4000116c:	24050007 	li	a1,7
40001170:	00e6382a 	slt	a3,a3,a2
40001174:	14e0000e 	bnez	a3,400011b0 <main+0x1190>
40001178:	00000000 	nop
4000117c:	00063400 	sll	a2,a2,0x10
40001180:	00063643 	sra	a2,a2,0x19
40001184:	24070003 	li	a3,3
40001188:	00e6382a 	slt	a3,a3,a2
4000118c:	14e00008 	bnez	a3,400011b0 <main+0x1190>
40001190:	00000000 	nop
40001194:	28c5fffc 	slti	a1,a2,-4
40001198:	10a00004 	beqz	a1,400011ac <main+0x118c>
4000119c:	00000000 	nop
400011a0:	24050000 	li	a1,0
400011a4:	0800046c 	j	400011b0 <main+0x1190>
400011a8:	00000000 	nop
400011ac:	24c50004 	addiu	a1,a2,4
400011b0:	a7a50028 	sh	a1,40(sp)
400011b4:	87a5002a 	lh	a1,42(sp)
400011b8:	00000000 	nop
400011bc:	24064698 	li	a2,18072
400011c0:	00a60018 	mult	a1,a2
400011c4:	00002812 	mflo	a1
400011c8:	00052c03 	sra	a1,a1,0x10
400011cc:	24a5fb88 	addiu	a1,a1,-1144
400011d0:	28a68000 	slti	a2,a1,-32768
400011d4:	10c00004 	beqz	a2,400011e8 <main+0x11c8>
400011d8:	00000000 	nop
400011dc:	24050000 	li	a1,0
400011e0:	0800049c 	j	40001270 <main+0x1250>
400011e4:	00000000 	nop
400011e8:	24067fff 	li	a2,32767
400011ec:	00c5302a 	slt	a2,a2,a1
400011f0:	10c00004 	beqz	a2,40001204 <main+0x11e4>
400011f4:	00000000 	nop
400011f8:	24050007 	li	a1,7
400011fc:	0800049c 	j	40001270 <main+0x1250>
40001200:	00000000 	nop
40001204:	00052c00 	sll	a1,a1,0x10
40001208:	00052c03 	sra	a1,a1,0x10
4000120c:	24a60100 	addiu	a2,a1,256
40001210:	28c58000 	slti	a1,a2,-32768
40001214:	10a00004 	beqz	a1,40001228 <main+0x1208>
40001218:	00000000 	nop
4000121c:	24050000 	li	a1,0
40001220:	0800049c 	j	40001270 <main+0x1250>
40001224:	00000000 	nop
40001228:	24077fff 	li	a3,32767
4000122c:	24050007 	li	a1,7
40001230:	00e6382a 	slt	a3,a3,a2
40001234:	14e0000e 	bnez	a3,40001270 <main+0x1250>
40001238:	00000000 	nop
4000123c:	00063400 	sll	a2,a2,0x10
40001240:	00063643 	sra	a2,a2,0x19
40001244:	24070003 	li	a3,3
40001248:	00e6382a 	slt	a3,a3,a2
4000124c:	14e00008 	bnez	a3,40001270 <main+0x1250>
40001250:	00000000 	nop
40001254:	28c5fffc 	slti	a1,a2,-4
40001258:	10a00004 	beqz	a1,4000126c <main+0x124c>
4000125c:	00000000 	nop
40001260:	24050000 	li	a1,0
40001264:	0800049c 	j	40001270 <main+0x1250>
40001268:	00000000 	nop
4000126c:	24c50004 	addiu	a1,a2,4
40001270:	24060000 	li	a2,0
40001274:	a7a5002a 	sh	a1,42(sp)
40001278:	00068021 	addu	s0,zero,a2
4000127c:	3c074000 	lui	a3,0x4000
40001280:	00062840 	sll	a1,a2,0x1
40001284:	24e7309c 	addiu	a3,a3,12444
40001288:	00454023 	subu	t0,v0,a1
4000128c:	00e53823 	subu	a3,a3,a1
40001290:	95050000 	lhu	a1,0(t0)
40001294:	00000000 	nop
40001298:	94e70000 	lhu	a3,0(a3)
4000129c:	00000000 	nop
400012a0:	00a72826 	xor	a1,a1,a3
400012a4:	2ca50001 	sltiu	a1,a1,1
400012a8:	24c6ffff 	addiu	a2,a2,-1
400012ac:	00b08021 	addu	s0,a1,s0
400012b0:	2405ff60 	li	a1,-160
400012b4:	14c5fff1 	bne	a2,a1,4000127c <main+0x125c>
400012b8:	00000000 	nop
400012bc:	34620002 	ori	v0,v1,0x2
400012c0:	24030000 	li	v1,0
400012c4:	3c054000 	lui	a1,0x4000
400012c8:	24a63204 	addiu	a2,a1,12804
400012cc:	00032840 	sll	a1,v1,0x1
400012d0:	00c53023 	subu	a2,a2,a1
400012d4:	3084ffff 	andi	a0,a0,0xffff
400012d8:	94c60000 	lhu	a2,0(a2)
400012dc:	00000000 	nop
400012e0:	00862026 	xor	a0,a0,a2
400012e4:	2c840001 	sltiu	a0,a0,1
400012e8:	00908021 	addu	s0,a0,s0
400012ec:	2404fff9 	li	a0,-7
400012f0:	10640007 	beq	v1,a0,40001310 <main+0x12f0>
400012f4:	00000000 	nop
400012f8:	00452023 	subu	a0,v0,a1
400012fc:	94840000 	lhu	a0,0(a0)
40001300:	00000000 	nop
40001304:	2463ffff 	addiu	v1,v1,-1
40001308:	080004b1 	j	400012c4 <main+0x12a4>
4000130c:	00000000 	nop
40001310:	3c024000 	lui	v0,0x4000
40001314:	24443214 	addiu	a0,v0,12820
40001318:	241100a8 	li	s1,168
4000131c:	00102821 	addu	a1,zero,s0
40001320:	0c0007f9 	jal	40001fe4 <printf>
40001324:	00000000 	nop
40001328:	16110005 	bne	s0,s1,40001340 <main+0x1320>
4000132c:	00000000 	nop
40001330:	3c024000 	lui	v0,0x4000
40001334:	2444321f 	addiu	a0,v0,12831
40001338:	080004d2 	j	40001348 <main+0x1328>
4000133c:	00000000 	nop
40001340:	3c024000 	lui	v0,0x4000
40001344:	2444322c 	addiu	a0,v0,12844
40001348:	0c0007f9 	jal	40001fe4 <printf>
4000134c:	00000000 	nop
40001350:	00101021 	addu	v0,zero,s0
40001354:	8fb001cc 	lw	s0,460(sp)
40001358:	00000000 	nop
4000135c:	8fb101d0 	lw	s1,464(sp)
40001360:	00000000 	nop
40001364:	8fb201d4 	lw	s2,468(sp)
40001368:	00000000 	nop
4000136c:	8fb301d8 	lw	s3,472(sp)
40001370:	00000000 	nop
40001374:	8fb401dc 	lw	s4,476(sp)
40001378:	00000000 	nop
4000137c:	8fb501e0 	lw	s5,480(sp)
40001380:	00000000 	nop
40001384:	8fb601e4 	lw	s6,484(sp)
40001388:	00000000 	nop
4000138c:	8fb701e8 	lw	s7,488(sp)
40001390:	00000000 	nop
40001394:	8fbf01ec 	lw	ra,492(sp)
40001398:	00000000 	nop
4000139c:	27bd01f0 	addiu	sp,sp,496
400013a0:	03e00008 	jr	ra
400013a4:	00000000 	nop
400013a8:	00062080 	sll	a0,a2,0x2
400013ac:	00642023 	subu	a0,v1,a0
400013b0:	8c840004 	lw	a0,4(a0)
400013b4:	00000000 	nop
400013b8:	24c6ffff 	addiu	a2,a2,-1
400013bc:	08000223 	j	4000088c <main+0x86c>
400013c0:	00000000 	nop

400013c4 <legup_start_counter>:
400013c4:	3c02f100 	lui	v0,0xf100
400013c8:	000420c0 	sll	a0,a0,0x3
400013cc:	00822021 	addu	a0,a0,v0
400013d0:	24020001 	li	v0,1
400013d4:	ac820000 	sw	v0,0(a0)
400013d8:	03e00008 	jr	ra
400013dc:	00000000 	nop

400013e0 <legup_stop_counter>:
400013e0:	3c02f100 	lui	v0,0xf100
400013e4:	000420c0 	sll	a0,a0,0x3
400013e8:	24430004 	addiu	v1,v0,4
400013ec:	00831821 	addu	v1,a0,v1
400013f0:	24050001 	li	a1,1
400013f4:	ac650000 	sw	a1,0(v1)
400013f8:	00821021 	addu	v0,a0,v0
400013fc:	8c420000 	lw	v0,0(v0)
40001400:	03e00008 	jr	ra
40001404:	00000000 	nop

40001408 <printc_uart>:
40001408:	3c03ff20 	lui	v1,0xff20
4000140c:	3c020001 	lui	v0,0x1
40001410:	34631004 	ori	v1,v1,0x1004
40001414:	34420000 	ori	v0,v0,0x0
40001418:	8c630000 	lw	v1,0(v1)
4000141c:	00000000 	nop
40001420:	0062102b 	sltu	v0,v1,v0
40001424:	1440fff8 	bnez	v0,40001408 <printc_uart>
40001428:	00000000 	nop
4000142c:	3c02ff20 	lui	v0,0xff20
40001430:	34421000 	ori	v0,v0,0x1000
40001434:	ac440000 	sw	a0,0(v0)
40001438:	03e00008 	jr	ra
4000143c:	00000000 	nop

40001440 <print_uart>:
40001440:	90830000 	lbu	v1,0(a0)
40001444:	00000000 	nop
40001448:	10600015 	beqz	v1,400014a0 <print_uart+0x60>
4000144c:	00000000 	nop
40001450:	24820001 	addiu	v0,a0,1
40001454:	3c05ff20 	lui	a1,0xff20
40001458:	3c040001 	lui	a0,0x1
4000145c:	34a51004 	ori	a1,a1,0x1004
40001460:	34840000 	ori	a0,a0,0x0
40001464:	8ca50000 	lw	a1,0(a1)
40001468:	00000000 	nop
4000146c:	00a4202b 	sltu	a0,a1,a0
40001470:	1480fff8 	bnez	a0,40001454 <print_uart+0x14>
40001474:	00000000 	nop
40001478:	00031e00 	sll	v1,v1,0x18
4000147c:	3c04ff20 	lui	a0,0xff20
40001480:	00031e03 	sra	v1,v1,0x18
40001484:	34841000 	ori	a0,a0,0x1000
40001488:	ac830000 	sw	v1,0(a0)
4000148c:	90430000 	lbu	v1,0(v0)
40001490:	00000000 	nop
40001494:	24420001 	addiu	v0,v0,1
40001498:	1460ffee 	bnez	v1,40001454 <print_uart+0x14>
4000149c:	00000000 	nop
400014a0:	03e00008 	jr	ra
400014a4:	00000000 	nop

400014a8 <_i2h>:
400014a8:	2882000a 	slti	v0,a0,10
400014ac:	14400004 	bnez	v0,400014c0 <_i2h+0x18>
400014b0:	00000000 	nop
400014b4:	24020057 	li	v0,87
400014b8:	08000531 	j	400014c4 <_i2h+0x1c>
400014bc:	00000000 	nop
400014c0:	24020030 	li	v0,48
400014c4:	00441021 	addu	v0,v0,a0
400014c8:	00021600 	sll	v0,v0,0x18
400014cc:	00021603 	sra	v0,v0,0x18
400014d0:	03e00008 	jr	ra
400014d4:	00000000 	nop

400014d8 <_i2H>:
400014d8:	2882000a 	slti	v0,a0,10
400014dc:	14400004 	bnez	v0,400014f0 <_i2H+0x18>
400014e0:	00000000 	nop
400014e4:	24020037 	li	v0,55
400014e8:	0800053d 	j	400014f4 <_i2H+0x1c>
400014ec:	00000000 	nop
400014f0:	24020030 	li	v0,48
400014f4:	00441021 	addu	v0,v0,a0
400014f8:	00021600 	sll	v0,v0,0x18
400014fc:	00021603 	sra	v0,v0,0x18
40001500:	03e00008 	jr	ra
40001504:	00000000 	nop

40001508 <i2h>:
40001508:	27bdffc8 	addiu	sp,sp,-56
4000150c:	afbf0034 	sw	ra,52(sp)
40001510:	afb40030 	sw	s4,48(sp)
40001514:	afb3002c 	sw	s3,44(sp)
40001518:	afb20028 	sw	s2,40(sp)
4000151c:	afb10024 	sw	s1,36(sp)
40001520:	afb00020 	sw	s0,32(sp)
40001524:	00048021 	addu	s0,zero,a0
40001528:	3c034000 	lui	v1,0x4000
4000152c:	3c044000 	lui	a0,0x4000
40001530:	3c024000 	lui	v0,0x4000
40001534:	10a00004 	beqz	a1,40001548 <i2h+0x40>
40001538:	00000000 	nop
4000153c:	249214d8 	addiu	s2,a0,5336
40001540:	08000553 	j	4000154c <i2h+0x44>
40001544:	00000000 	nop
40001548:	247214a8 	addiu	s2,v1,5288
4000154c:	16000004 	bnez	s0,40001560 <i2h+0x58>
40001550:	00000000 	nop
40001554:	24423239 	addiu	v0,v0,12857
40001558:	0800057a 	j	400015e8 <i2h+0xe0>
4000155c:	00000000 	nop
40001560:	24130000 	li	s3,0
40001564:	0013a021 	addu	s4,zero,s3
40001568:	27b10014 	addiu	s1,sp,20
4000156c:	3204000f 	andi	a0,s0,0xf
40001570:	00108102 	srl	s0,s0,0x4
40001574:	26930001 	addiu	s3,s4,1
40001578:	0240f809 	jalr	s2
4000157c:	00000000 	nop
40001580:	02341821 	addu	v1,s1,s4
40001584:	a0620000 	sb	v0,0(v1)
40001588:	1600fff6 	bnez	s0,40001564 <i2h+0x5c>
4000158c:	00000000 	nop
40001590:	3c024000 	lui	v0,0x4000
40001594:	244233c8 	addiu	v0,v0,13256
40001598:	24030000 	li	v1,0
4000159c:	00532021 	addu	a0,v0,s3
400015a0:	a0830000 	sb	v1,0(a0)
400015a4:	06800010 	bltz	s4,400015e8 <i2h+0xe0>
400015a8:	00000000 	nop
400015ac:	3c034000 	lui	v1,0x4000
400015b0:	24020000 	li	v0,0
400015b4:	00531023 	subu	v0,v0,s3
400015b8:	246333c8 	addiu	v1,v1,13256
400015bc:	3c044000 	lui	a0,0x4000
400015c0:	02222823 	subu	a1,s1,v0
400015c4:	90a5ffff 	lbu	a1,-1(a1)
400015c8:	00000000 	nop
400015cc:	24420001 	addiu	v0,v0,1
400015d0:	24660001 	addiu	a2,v1,1
400015d4:	a0650000 	sb	a1,0(v1)
400015d8:	00061821 	addu	v1,zero,a2
400015dc:	1440fff7 	bnez	v0,400015bc <i2h+0xb4>
400015e0:	00000000 	nop
400015e4:	248233c8 	addiu	v0,a0,13256
400015e8:	8fb00020 	lw	s0,32(sp)
400015ec:	00000000 	nop
400015f0:	8fb10024 	lw	s1,36(sp)
400015f4:	00000000 	nop
400015f8:	8fb20028 	lw	s2,40(sp)
400015fc:	00000000 	nop
40001600:	8fb3002c 	lw	s3,44(sp)
40001604:	00000000 	nop
40001608:	8fb40030 	lw	s4,48(sp)
4000160c:	00000000 	nop
40001610:	8fbf0034 	lw	ra,52(sp)
40001614:	00000000 	nop
40001618:	27bd0038 	addiu	sp,sp,56
4000161c:	03e00008 	jr	ra
40001620:	00000000 	nop

40001624 <l2h>:
40001624:	27bdffc0 	addiu	sp,sp,-64
40001628:	afbf003c 	sw	ra,60(sp)
4000162c:	afb50038 	sw	s5,56(sp)
40001630:	afb40034 	sw	s4,52(sp)
40001634:	afb30030 	sw	s3,48(sp)
40001638:	afb2002c 	sw	s2,44(sp)
4000163c:	afb10028 	sw	s1,40(sp)
40001640:	afb00024 	sw	s0,36(sp)
40001644:	00058021 	addu	s0,zero,a1
40001648:	00048821 	addu	s1,zero,a0
4000164c:	3c034000 	lui	v1,0x4000
40001650:	3c044000 	lui	a0,0x4000
40001654:	3c024000 	lui	v0,0x4000
40001658:	10c00004 	beqz	a2,4000166c <l2h+0x48>
4000165c:	00000000 	nop
40001660:	249414d8 	addiu	s4,a0,5336
40001664:	0800059c 	j	40001670 <l2h+0x4c>
40001668:	00000000 	nop
4000166c:	247414a8 	addiu	s4,v1,5288
40001670:	02301825 	or	v1,s1,s0
40001674:	14600004 	bnez	v1,40001688 <l2h+0x64>
40001678:	00000000 	nop
4000167c:	24423239 	addiu	v0,v0,12857
40001680:	080005cb 	j	4000172c <l2h+0x108>
40001684:	00000000 	nop
40001688:	24120000 	li	s2,0
4000168c:	0012a821 	addu	s5,zero,s2
40001690:	27b30010 	addiu	s3,sp,16
40001694:	3224000f 	andi	a0,s1,0xf
40001698:	00111102 	srl	v0,s1,0x4
4000169c:	00101f00 	sll	v1,s0,0x1c
400016a0:	26b20001 	addiu	s2,s5,1
400016a4:	00438825 	or	s1,v0,v1
400016a8:	00108102 	srl	s0,s0,0x4
400016ac:	0280f809 	jalr	s4
400016b0:	00000000 	nop
400016b4:	02752021 	addu	a0,s3,s5
400016b8:	02301825 	or	v1,s1,s0
400016bc:	a0820000 	sb	v0,0(a0)
400016c0:	1460fff2 	bnez	v1,4000168c <l2h+0x68>
400016c4:	00000000 	nop
400016c8:	3c024000 	lui	v0,0x4000
400016cc:	244233d1 	addiu	v0,v0,13265
400016d0:	24030000 	li	v1,0
400016d4:	00522021 	addu	a0,v0,s2
400016d8:	a0830000 	sb	v1,0(a0)
400016dc:	06a00013 	bltz	s5,4000172c <l2h+0x108>
400016e0:	00000000 	nop
400016e4:	00032021 	addu	a0,zero,v1
400016e8:	24080000 	li	t0,0
400016ec:	24650001 	addiu	a1,v1,1
400016f0:	24060001 	li	a2,1
400016f4:	3c024000 	lui	v0,0x4000
400016f8:	00a6382b 	sltu	a3,a1,a2
400016fc:	244233d1 	addiu	v0,v0,13265
40001700:	02723021 	addu	a2,s3,s2
40001704:	00e83821 	addu	a3,a3,t0
40001708:	2652ffff 	addiu	s2,s2,-1
4000170c:	00872021 	addu	a0,a0,a3
40001710:	90c6ffff 	lbu	a2,-1(a2)
40001714:	00000000 	nop
40001718:	00431821 	addu	v1,v0,v1
4000171c:	a0660000 	sb	a2,0(v1)
40001720:	00051821 	addu	v1,zero,a1
40001724:	1e40fff1 	bgtz	s2,400016ec <l2h+0xc8>
40001728:	00000000 	nop
4000172c:	8fb00024 	lw	s0,36(sp)
40001730:	00000000 	nop
40001734:	8fb10028 	lw	s1,40(sp)
40001738:	00000000 	nop
4000173c:	8fb2002c 	lw	s2,44(sp)
40001740:	00000000 	nop
40001744:	8fb30030 	lw	s3,48(sp)
40001748:	00000000 	nop
4000174c:	8fb40034 	lw	s4,52(sp)
40001750:	00000000 	nop
40001754:	8fb50038 	lw	s5,56(sp)
40001758:	00000000 	nop
4000175c:	8fbf003c 	lw	ra,60(sp)
40001760:	00000000 	nop
40001764:	27bd0040 	addiu	sp,sp,64
40001768:	03e00008 	jr	ra
4000176c:	00000000 	nop

40001770 <itoa>:
40001770:	27bdffd8 	addiu	sp,sp,-40
40001774:	afb70024 	sw	s7,36(sp)
40001778:	afb60020 	sw	s6,32(sp)
4000177c:	afb5001c 	sw	s5,28(sp)
40001780:	afb40018 	sw	s4,24(sp)
40001784:	afb30014 	sw	s3,20(sp)
40001788:	afb20010 	sw	s2,16(sp)
4000178c:	afb1000c 	sw	s1,12(sp)
40001790:	afb00008 	sw	s0,8(sp)
40001794:	2402ffff 	li	v0,-1
40001798:	0044102a 	slt	v0,v0,a0
4000179c:	14400006 	bnez	v0,400017b8 <itoa+0x48>
400017a0:	00000000 	nop
400017a4:	24020000 	li	v0,0
400017a8:	00442023 	subu	a0,v0,a0
400017ac:	24020001 	li	v0,1
400017b0:	080005f5 	j	400017d4 <itoa+0x64>
400017b4:	00000000 	nop
400017b8:	3c024000 	lui	v0,0x4000
400017bc:	14800004 	bnez	a0,400017d0 <itoa+0x60>
400017c0:	00000000 	nop
400017c4:	24423239 	addiu	v0,v0,12857
400017c8:	080006d7 	j	40001b5c <itoa+0x3ec>
400017cc:	00000000 	nop
400017d0:	24020000 	li	v0,0
400017d4:	afa20004 	sw	v0,4(sp)
400017d8:	3c026666 	lui	v0,0x6666
400017dc:	3c0551eb 	lui	a1,0x51eb
400017e0:	34426667 	ori	v0,v0,0x6667
400017e4:	00820018 	mult	a0,v0
400017e8:	00001810 	mfhi	v1
400017ec:	3c061062 	lui	a2,0x1062
400017f0:	34a5851f 	ori	a1,a1,0x851f
400017f4:	00850018 	mult	a0,a1
400017f8:	00002810 	mfhi	a1
400017fc:	3c0868db 	lui	t0,0x68db
40001800:	34c64dd3 	ori	a2,a2,0x4dd3
40001804:	00034883 	sra	t1,v1,0x2
40001808:	00031fc2 	srl	v1,v1,0x1f
4000180c:	00860018 	mult	a0,a2
40001810:	00003010 	mfhi	a2
40001814:	3c0714f8 	lui	a3,0x14f8
40001818:	35088bad 	ori	t0,t0,0x8bad
4000181c:	01236021 	addu	t4,t1,v1
40001820:	00051943 	sra	v1,a1,0x5
40001824:	000557c2 	srl	t2,a1,0x1f
40001828:	00880018 	mult	a0,t0
4000182c:	00004010 	mfhi	t0
40001830:	01820018 	mult	t4,v0
40001834:	00002810 	mfhi	a1
40001838:	3c09431b 	lui	t1,0x431b
4000183c:	34e7b589 	ori	a3,a3,0xb589
40001840:	006a5821 	addu	t3,v1,t2
40001844:	00061983 	sra	v1,a2,0x6
40001848:	000637c2 	srl	a2,a2,0x1f
4000184c:	00870018 	mult	a0,a3
40001850:	00005010 	mfhi	t2
40001854:	01620018 	mult	t3,v0
40001858:	00003810 	mfhi	a3
4000185c:	3c0f6b5f 	lui	t7,0x6b5f
40001860:	352dde83 	ori	t5,t1,0xde83
40001864:	00664821 	addu	t1,v1,a2
40001868:	2406000a 	li	a2,10
4000186c:	0008c303 	sra	t8,t0,0xc
40001870:	000847c2 	srl	t0,t0,0x1f
40001874:	0005c882 	srl	t9,a1,0x2
40001878:	000587c2 	srl	s0,a1,0x1f
4000187c:	008d0018 	mult	a0,t5
40001880:	00007010 	mfhi	t6
40001884:	01220018 	mult	t1,v0
40001888:	00006810 	mfhi	t5
4000188c:	3c054000 	lui	a1,0x4000
40001890:	afa50000 	sw	a1,0(sp)
40001894:	3c1155e6 	lui	s1,0x55e6
40001898:	35efca6b 	ori	t7,t7,0xca6b
4000189c:	03084021 	addu	t0,t8,t0
400018a0:	03308021 	addu	s0,t9,s0
400018a4:	01860018 	mult	t4,a2
400018a8:	0000c812 	mflo	t9
400018ac:	000a9343 	sra	s2,t2,0xd
400018b0:	000a57c2 	srl	t2,t2,0x1f
400018b4:	00079882 	srl	s3,a3,0x2
400018b8:	00071fc2 	srl	v1,a3,0x1f
400018bc:	008f0018 	mult	a0,t7
400018c0:	0000c010 	mfhi	t8
400018c4:	01020018 	mult	t0,v0
400018c8:	00007810 	mfhi	t7
400018cc:	3c1444b8 	lui	s4,0x44b8
400018d0:	36353b89 	ori	s5,s1,0x3b89
400018d4:	024a5021 	addu	t2,s2,t2
400018d8:	02639821 	addu	s3,s3,v1
400018dc:	02060018 	mult	s0,a2
400018e0:	00008812 	mflo	s1
400018e4:	00998023 	subu	s0,a0,t9
400018e8:	24a733e2 	addiu	a3,a1,13282
400018ec:	24120000 	li	s2,0
400018f0:	000eb483 	sra	s6,t6,0x12
400018f4:	000ebfc2 	srl	s7,t6,0x1f
400018f8:	000d1882 	srl	v1,t5,0x2
400018fc:	000d2fc2 	srl	a1,t5,0x1f
40001900:	00950018 	mult	a0,s5
40001904:	0000c810 	mfhi	t9
40001908:	01420018 	mult	t2,v0
4000190c:	00007010 	mfhi	t6
40001910:	36952fa1 	ori	s5,s4,0x2fa1
40001914:	02d76821 	addu	t5,s6,s7
40001918:	0065a021 	addu	s4,v1,a1
4000191c:	02660018 	mult	s3,a2
40001920:	00009812 	mflo	s3
40001924:	01918823 	subu	s1,t4,s1
40001928:	0018b583 	sra	s6,t8,0x16
4000192c:	0018bfc2 	srl	s7,t8,0x1f
40001930:	000fc082 	srl	t8,t7,0x2
40001934:	000f1fc2 	srl	v1,t7,0x1f
40001938:	26100030 	addiu	s0,s0,48
4000193c:	a0f2000a 	sb	s2,10(a3)
40001940:	00950018 	mult	a0,s5
40001944:	00007810 	mfhi	t7
40001948:	01a20018 	mult	t5,v0
4000194c:	00006010 	mfhi	t4
40001950:	02d72021 	addu	a0,s6,s7
40001954:	0303a821 	addu	s5,t8,v1
40001958:	02860018 	mult	s4,a2
4000195c:	0000a012 	mflo	s4
40001960:	0173c023 	subu	t8,t3,s3
40001964:	00195e43 	sra	t3,t9,0x19
40001968:	0019cfc2 	srl	t9,t9,0x1f
4000196c:	000e1882 	srl	v1,t6,0x2
40001970:	000e2fc2 	srl	a1,t6,0x1f
40001974:	26320030 	addiu	s2,s1,48
40001978:	a0f00009 	sb	s0,9(a3)
4000197c:	00820018 	mult	a0,v0
40001980:	00007010 	mfhi	t6
40001984:	01795821 	addu	t3,t3,t9
40001988:	00658821 	addu	s1,v1,a1
4000198c:	02a60018 	mult	s5,a2
40001990:	00008012 	mflo	s0
40001994:	0134c823 	subu	t9,t1,s4
40001998:	000f4f03 	sra	t1,t7,0x1c
4000199c:	000f9fc2 	srl	s3,t7,0x1f
400019a0:	000c1882 	srl	v1,t4,0x2
400019a4:	000c2fc2 	srl	a1,t4,0x1f
400019a8:	270f0030 	addiu	t7,t8,48
400019ac:	a0f20008 	sb	s2,8(a3)
400019b0:	01620018 	mult	t3,v0
400019b4:	00006010 	mfhi	t4
400019b8:	01334821 	addu	t1,t1,s3
400019bc:	00659021 	addu	s2,v1,a1
400019c0:	02260018 	mult	s1,a2
400019c4:	0000c012 	mflo	t8
400019c8:	01104023 	subu	t0,t0,s0
400019cc:	000e1882 	srl	v1,t6,0x2
400019d0:	000e2fc2 	srl	a1,t6,0x1f
400019d4:	272e0030 	addiu	t6,t9,48
400019d8:	a0ef0007 	sb	t7,7(a3)
400019dc:	01220018 	mult	t1,v0
400019e0:	00001010 	mfhi	v0
400019e4:	00658021 	addu	s0,v1,a1
400019e8:	02460018 	mult	s2,a2
400019ec:	0000c812 	mflo	t9
400019f0:	01585023 	subu	t2,t2,t8
400019f4:	000c1882 	srl	v1,t4,0x2
400019f8:	000c2fc2 	srl	a1,t4,0x1f
400019fc:	250f0030 	addiu	t7,t0,48
40001a00:	a0ee0006 	sb	t6,6(a3)
40001a04:	00657021 	addu	t6,v1,a1
40001a08:	02060018 	mult	s0,a2
40001a0c:	00006012 	mflo	t4
40001a10:	01b94023 	subu	t0,t5,t9
40001a14:	00021883 	sra	v1,v0,0x2
40001a18:	00022fc2 	srl	a1,v0,0x1f
40001a1c:	25420030 	addiu	v0,t2,48
40001a20:	a0ef0005 	sb	t7,5(a3)
40001a24:	00655021 	addu	t2,v1,a1
40001a28:	01c60018 	mult	t6,a2
40001a2c:	00002812 	mflo	a1
40001a30:	008c2023 	subu	a0,a0,t4
40001a34:	25030030 	addiu	v1,t0,48
40001a38:	a0e20004 	sb	v0,4(a3)
40001a3c:	01460018 	mult	t2,a2
40001a40:	00003012 	mflo	a2
40001a44:	01652823 	subu	a1,t3,a1
40001a48:	24820030 	addiu	v0,a0,48
40001a4c:	a0e30003 	sb	v1,3(a3)
40001a50:	01262023 	subu	a0,t1,a2
40001a54:	24a30030 	addiu	v1,a1,48
40001a58:	a0e20002 	sb	v0,2(a3)
40001a5c:	24020001 	li	v0,1
40001a60:	24840030 	addiu	a0,a0,48
40001a64:	a0e30001 	sb	v1,1(a3)
40001a68:	8fa30000 	lw	v1,0(sp)
40001a6c:	00000000 	nop
40001a70:	a06433e2 	sb	a0,13282(v1)
40001a74:	080006a9 	j	40001aa4 <itoa+0x334>
40001a78:	00000000 	nop
40001a7c:	24030009 	li	v1,9
40001a80:	0062182a 	slt	v1,v1,v0
40001a84:	1460000c 	bnez	v1,40001ab8 <itoa+0x348>
40001a88:	00000000 	nop
40001a8c:	3c034000 	lui	v1,0x4000
40001a90:	246333e2 	addiu	v1,v1,13282
40001a94:	00621821 	addu	v1,v1,v0
40001a98:	90640000 	lbu	a0,0(v1)
40001a9c:	00000000 	nop
40001aa0:	24420001 	addiu	v0,v0,1
40001aa4:	308300ff 	andi	v1,a0,0xff
40001aa8:	24040030 	li	a0,48
40001aac:	1064fff3 	beq	v1,a0,40001a7c <itoa+0x30c>
40001ab0:	00000000 	nop
40001ab4:	2442ffff 	addiu	v0,v0,-1
40001ab8:	8fa30004 	lw	v1,4(sp)
40001abc:	00000000 	nop
40001ac0:	10600004 	beqz	v1,40001ad4 <itoa+0x364>
40001ac4:	00000000 	nop
40001ac8:	2403002d 	li	v1,45
40001acc:	3c044000 	lui	a0,0x4000
40001ad0:	a08333ed 	sb	v1,13293(a0)
40001ad4:	2403000a 	li	v1,10
40001ad8:	00622023 	subu	a0,v1,v0
40001adc:	28830001 	slti	v1,a0,1
40001ae0:	10600004 	beqz	v1,40001af4 <itoa+0x384>
40001ae4:	00000000 	nop
40001ae8:	24040000 	li	a0,0
40001aec:	080006cf 	j	40001b3c <itoa+0x3cc>
40001af0:	00000000 	nop
40001af4:	3c034000 	lui	v1,0x4000
40001af8:	2405000a 	li	a1,10
40001afc:	246333ed 	addiu	v1,v1,13293
40001b00:	00a21023 	subu	v0,a1,v0
40001b04:	8fa50004 	lw	a1,4(sp)
40001b08:	00000000 	nop
40001b0c:	00652821 	addu	a1,v1,a1
40001b10:	3c034000 	lui	v1,0x4000
40001b14:	246333e2 	addiu	v1,v1,13282
40001b18:	00621823 	subu	v1,v1,v0
40001b1c:	9063000a 	lbu	v1,10(v1)
40001b20:	00000000 	nop
40001b24:	2442ffff 	addiu	v0,v0,-1
40001b28:	24a60001 	addiu	a2,a1,1
40001b2c:	a0a30000 	sb	v1,0(a1)
40001b30:	00062821 	addu	a1,zero,a2
40001b34:	1440fff6 	bnez	v0,40001b10 <itoa+0x3a0>
40001b38:	00000000 	nop
40001b3c:	3c024000 	lui	v0,0x4000
40001b40:	244233ed 	addiu	v0,v0,13293
40001b44:	8fa30004 	lw	v1,4(sp)
40001b48:	00000000 	nop
40001b4c:	00832021 	addu	a0,a0,v1
40001b50:	24030000 	li	v1,0
40001b54:	00442021 	addu	a0,v0,a0
40001b58:	a0830000 	sb	v1,0(a0)
40001b5c:	8fb00008 	lw	s0,8(sp)
40001b60:	00000000 	nop
40001b64:	8fb1000c 	lw	s1,12(sp)
40001b68:	00000000 	nop
40001b6c:	8fb20010 	lw	s2,16(sp)
40001b70:	00000000 	nop
40001b74:	8fb30014 	lw	s3,20(sp)
40001b78:	00000000 	nop
40001b7c:	8fb40018 	lw	s4,24(sp)
40001b80:	00000000 	nop
40001b84:	8fb5001c 	lw	s5,28(sp)
40001b88:	00000000 	nop
40001b8c:	8fb60020 	lw	s6,32(sp)
40001b90:	00000000 	nop
40001b94:	8fb70024 	lw	s7,36(sp)
40001b98:	00000000 	nop
40001b9c:	27bd0028 	addiu	sp,sp,40
40001ba0:	03e00008 	jr	ra
40001ba4:	00000000 	nop

40001ba8 <utoa>:
40001ba8:	27bdffe8 	addiu	sp,sp,-24
40001bac:	afb50014 	sw	s5,20(sp)
40001bb0:	afb40010 	sw	s4,16(sp)
40001bb4:	afb3000c 	sw	s3,12(sp)
40001bb8:	afb20008 	sw	s2,8(sp)
40001bbc:	afb10004 	sw	s1,4(sp)
40001bc0:	afb00000 	sw	s0,0(sp)
40001bc4:	3c024000 	lui	v0,0x4000
40001bc8:	14800019 	bnez	a0,40001c30 <utoa+0x88>
40001bcc:	00000000 	nop
40001bd0:	24423239 	addiu	v0,v0,12857
40001bd4:	080007a8 	j	40001ea0 <utoa+0x2f8>
40001bd8:	00000000 	nop
40001bdc:	24020009 	li	v0,9
40001be0:	0043102a 	slt	v0,v0,v1
40001be4:	1440000a 	bnez	v0,40001c10 <utoa+0x68>
40001be8:	00000000 	nop
40001bec:	3c024000 	lui	v0,0x4000
40001bf0:	244233f8 	addiu	v0,v0,13304
40001bf4:	00431021 	addu	v0,v0,v1
40001bf8:	90440000 	lbu	a0,0(v0)
40001bfc:	00000000 	nop
40001c00:	24630001 	addiu	v1,v1,1
40001c04:	0800078e 	j	40001e38 <utoa+0x290>
40001c08:	00000000 	nop
40001c0c:	2463ffff 	addiu	v1,v1,-1
40001c10:	2402000a 	li	v0,10
40001c14:	00432023 	subu	a0,v0,v1
40001c18:	28820001 	slti	v0,a0,1
40001c1c:	1040008c 	beqz	v0,40001e50 <utoa+0x2a8>
40001c20:	00000000 	nop
40001c24:	24040000 	li	a0,0
40001c28:	080007a3 	j	40001e8c <utoa+0x2e4>
40001c2c:	00000000 	nop
40001c30:	3c03cccc 	lui	v1,0xcccc
40001c34:	3c0251eb 	lui	v0,0x51eb
40001c38:	3463cccd 	ori	v1,v1,0xcccd
40001c3c:	3c051062 	lui	a1,0x1062
40001c40:	3442851f 	ori	v0,v0,0x851f
40001c44:	00830019 	multu	a0,v1
40001c48:	00003010 	mfhi	a2
40001c4c:	3c07d1b7 	lui	a3,0xd1b7
40001c50:	34a54dd3 	ori	a1,a1,0x4dd3
40001c54:	00820019 	multu	a0,v0
40001c58:	00001010 	mfhi	v0
40001c5c:	000658c2 	srl	t3,a2,0x3
40001c60:	3c060a7c 	lui	a2,0xa7c
40001c64:	34e71759 	ori	a3,a3,0x1759
40001c68:	00850019 	multu	a0,a1
40001c6c:	00004010 	mfhi	t0
40001c70:	00025142 	srl	t2,v0,0x5
40001c74:	01630019 	multu	t3,v1
40001c78:	00006010 	mfhi	t4
40001c7c:	2405000a 	li	a1,10
40001c80:	3c024000 	lui	v0,0x4000
40001c84:	3c09431b 	lui	t1,0x431b
40001c88:	00870019 	multu	a0,a3
40001c8c:	00003810 	mfhi	a3
40001c90:	00084182 	srl	t0,t0,0x6
40001c94:	01430019 	multu	t2,v1
40001c98:	00007010 	mfhi	t6
40001c9c:	000c68c2 	srl	t5,t4,0x3
40001ca0:	01650018 	mult	t3,a1
40001ca4:	00006012 	mflo	t4
40001ca8:	00047942 	srl	t7,a0,0x5
40001cac:	34c65ac5 	ori	a2,a2,0x5ac5
40001cb0:	3c196b5f 	lui	t9,0x6b5f
40001cb4:	3538de83 	ori	t8,t1,0xde83
40001cb8:	01e60019 	multu	t7,a2
40001cbc:	00004810 	mfhi	t1
40001cc0:	00073b42 	srl	a3,a3,0xd
40001cc4:	01030019 	multu	t0,v1
40001cc8:	00007810 	mfhi	t7
40001ccc:	000e70c2 	srl	t6,t6,0x3
40001cd0:	01a50018 	mult	t5,a1
40001cd4:	00006812 	mflo	t5
40001cd8:	008c6023 	subu	t4,a0,t4
40001cdc:	244633f8 	addiu	a2,v0,13304
40001ce0:	24130000 	li	s3,0
40001ce4:	3c1255e6 	lui	s2,0x55e6
40001ce8:	3731ca6b 	ori	s1,t9,0xca6b
40001cec:	00980019 	multu	a0,t8
40001cf0:	00008010 	mfhi	s0
40001cf4:	000949c2 	srl	t1,t1,0x7
40001cf8:	00e30019 	multu	a3,v1
40001cfc:	0000c810 	mfhi	t9
40001d00:	000fc0c2 	srl	t8,t7,0x3
40001d04:	01c50018 	mult	t6,a1
40001d08:	00007812 	mflo	t7
40001d0c:	016d7023 	subu	t6,t3,t5
40001d10:	358d0030 	ori	t5,t4,0x30
40001d14:	a0d3000a 	sb	s3,10(a2)
40001d18:	3c0c0004 	lui	t4,0x4
40001d1c:	36553b89 	ori	s5,s2,0x3b89
40001d20:	00910019 	multu	a0,s1
40001d24:	0000a010 	mfhi	s4
40001d28:	00105c82 	srl	t3,s0,0x12
40001d2c:	01230019 	multu	t1,v1
40001d30:	00009810 	mfhi	s3
40001d34:	001990c2 	srl	s2,t9,0x3
40001d38:	03050018 	mult	t8,a1
40001d3c:	00008812 	mflo	s1
40001d40:	014f8023 	subu	s0,t2,t7
40001d44:	35d90030 	ori	t9,t6,0x30
40001d48:	a0cd0009 	sb	t5,9(a2)
40001d4c:	00950019 	multu	a0,s5
40001d50:	0000c010 	mfhi	t8
40001d54:	00145582 	srl	t2,s4,0x16
40001d58:	01630019 	multu	t3,v1
40001d5c:	00007810 	mfhi	t7
40001d60:	001370c2 	srl	t6,s3,0x3
40001d64:	02450018 	mult	s2,a1
40001d68:	00006812 	mflo	t5
40001d6c:	01114023 	subu	t0,t0,s1
40001d70:	00042242 	srl	a0,a0,0x9
40001d74:	35914b83 	ori	s1,t4,0x4b83
40001d78:	360c0030 	ori	t4,s0,0x30
40001d7c:	a0d90008 	sb	t9,8(a2)
40001d80:	00910019 	multu	a0,s1
40001d84:	0000c810 	mfhi	t9
40001d88:	00182642 	srl	a0,t8,0x19
40001d8c:	01430019 	multu	t2,v1
40001d90:	0000c010 	mfhi	t8
40001d94:	000f78c2 	srl	t7,t7,0x3
40001d98:	01c50018 	mult	t6,a1
40001d9c:	00007012 	mflo	t6
40001da0:	00ed6823 	subu	t5,a3,t5
40001da4:	35080030 	ori	t0,t0,0x30
40001da8:	a0cc0007 	sb	t4,7(a2)
40001dac:	001939c2 	srl	a3,t9,0x7
40001db0:	00830019 	multu	a0,v1
40001db4:	0000c810 	mfhi	t9
40001db8:	0018c0c2 	srl	t8,t8,0x3
40001dbc:	01e50018 	mult	t7,a1
40001dc0:	00007812 	mflo	t7
40001dc4:	012e6023 	subu	t4,t1,t6
40001dc8:	35a90030 	ori	t1,t5,0x30
40001dcc:	a0c80006 	sb	t0,6(a2)
40001dd0:	00e30019 	multu	a3,v1
40001dd4:	00008010 	mfhi	s0
40001dd8:	001970c2 	srl	t6,t9,0x3
40001ddc:	03050018 	mult	t8,a1
40001de0:	00006812 	mflo	t5
40001de4:	016f4023 	subu	t0,t3,t7
40001de8:	35830030 	ori	v1,t4,0x30
40001dec:	a0c90005 	sb	t1,5(a2)
40001df0:	001060c2 	srl	t4,s0,0x3
40001df4:	01c50018 	mult	t6,a1
40001df8:	00005812 	mflo	t3
40001dfc:	014d4823 	subu	t1,t2,t5
40001e00:	35080030 	ori	t0,t0,0x30
40001e04:	a0c30004 	sb	v1,4(a2)
40001e08:	01850018 	mult	t4,a1
40001e0c:	00005012 	mflo	t2
40001e10:	008b2823 	subu	a1,a0,t3
40001e14:	35230030 	ori	v1,t1,0x30
40001e18:	a0c80003 	sb	t0,3(a2)
40001e1c:	00ea2023 	subu	a0,a3,t2
40001e20:	34a50030 	ori	a1,a1,0x30
40001e24:	a0c30002 	sb	v1,2(a2)
40001e28:	24030001 	li	v1,1
40001e2c:	34840030 	ori	a0,a0,0x30
40001e30:	a0c50001 	sb	a1,1(a2)
40001e34:	a04433f8 	sb	a0,13304(v0)
40001e38:	308200ff 	andi	v0,a0,0xff
40001e3c:	24040030 	li	a0,48
40001e40:	1044ff66 	beq	v0,a0,40001bdc <utoa+0x34>
40001e44:	00000000 	nop
40001e48:	08000703 	j	40001c0c <utoa+0x64>
40001e4c:	00000000 	nop
40001e50:	3c054000 	lui	a1,0x4000
40001e54:	2402000a 	li	v0,10
40001e58:	00431023 	subu	v0,v0,v1
40001e5c:	24a33403 	addiu	v1,a1,13315
40001e60:	3c054000 	lui	a1,0x4000
40001e64:	24a533f8 	addiu	a1,a1,13304
40001e68:	00a22823 	subu	a1,a1,v0
40001e6c:	90a5000a 	lbu	a1,10(a1)
40001e70:	00000000 	nop
40001e74:	2442ffff 	addiu	v0,v0,-1
40001e78:	24660001 	addiu	a2,v1,1
40001e7c:	a0650000 	sb	a1,0(v1)
40001e80:	00061821 	addu	v1,zero,a2
40001e84:	1440fff6 	bnez	v0,40001e60 <utoa+0x2b8>
40001e88:	00000000 	nop
40001e8c:	3c024000 	lui	v0,0x4000
40001e90:	24423403 	addiu	v0,v0,13315
40001e94:	24030000 	li	v1,0
40001e98:	00442021 	addu	a0,v0,a0
40001e9c:	a0830000 	sb	v1,0(a0)
40001ea0:	8fb00000 	lw	s0,0(sp)
40001ea4:	00000000 	nop
40001ea8:	8fb10004 	lw	s1,4(sp)
40001eac:	00000000 	nop
40001eb0:	8fb20008 	lw	s2,8(sp)
40001eb4:	00000000 	nop
40001eb8:	8fb3000c 	lw	s3,12(sp)
40001ebc:	00000000 	nop
40001ec0:	8fb40010 	lw	s4,16(sp)
40001ec4:	00000000 	nop
40001ec8:	8fb50014 	lw	s5,20(sp)
40001ecc:	00000000 	nop
40001ed0:	27bd0018 	addiu	sp,sp,24
40001ed4:	03e00008 	jr	ra
40001ed8:	00000000 	nop

40001edc <puts>:
40001edc:	24020000 	li	v0,0
40001ee0:	90830000 	lbu	v1,0(a0)
40001ee4:	00000000 	nop
40001ee8:	1060002e 	beqz	v1,40001fa4 <puts+0xc8>
40001eec:	00000000 	nop
40001ef0:	2405000d 	li	a1,13
40001ef4:	14650005 	bne	v1,a1,40001f0c <puts+0x30>
40001ef8:	00000000 	nop
40001efc:	2403000d 	li	v1,13
40001f00:	24020001 	li	v0,1
40001f04:	080007d8 	j	40001f60 <puts+0x84>
40001f08:	00000000 	nop
40001f0c:	2405000a 	li	a1,10
40001f10:	14650013 	bne	v1,a1,40001f60 <puts+0x84>
40001f14:	00000000 	nop
40001f18:	14400011 	bnez	v0,40001f60 <puts+0x84>
40001f1c:	00000000 	nop
40001f20:	3c03ff20 	lui	v1,0xff20
40001f24:	3c020001 	lui	v0,0x1
40001f28:	34631004 	ori	v1,v1,0x1004
40001f2c:	34420000 	ori	v0,v0,0x0
40001f30:	8c630000 	lw	v1,0(v1)
40001f34:	00000000 	nop
40001f38:	0062102b 	sltu	v0,v1,v0
40001f3c:	1440fff8 	bnez	v0,40001f20 <puts+0x44>
40001f40:	00000000 	nop
40001f44:	3c03ff20 	lui	v1,0xff20
40001f48:	2402000d 	li	v0,13
40001f4c:	34631000 	ori	v1,v1,0x1000
40001f50:	ac620000 	sw	v0,0(v1)
40001f54:	90830000 	lbu	v1,0(a0)
40001f58:	00000000 	nop
40001f5c:	24020000 	li	v0,0
40001f60:	3c06ff20 	lui	a2,0xff20
40001f64:	3c050001 	lui	a1,0x1
40001f68:	34c61004 	ori	a2,a2,0x1004
40001f6c:	34a50000 	ori	a1,a1,0x0
40001f70:	8cc60000 	lw	a2,0(a2)
40001f74:	00000000 	nop
40001f78:	00c5282b 	sltu	a1,a2,a1
40001f7c:	14a0fff8 	bnez	a1,40001f60 <puts+0x84>
40001f80:	00000000 	nop
40001f84:	00032e00 	sll	a1,v1,0x18
40001f88:	3c03ff20 	lui	v1,0xff20
40001f8c:	24840001 	addiu	a0,a0,1
40001f90:	00052e03 	sra	a1,a1,0x18
40001f94:	34631000 	ori	v1,v1,0x1000
40001f98:	ac650000 	sw	a1,0(v1)
40001f9c:	080007b8 	j	40001ee0 <puts+0x4>
40001fa0:	00000000 	nop
40001fa4:	3c03ff20 	lui	v1,0xff20
40001fa8:	3c020001 	lui	v0,0x1
40001fac:	34631004 	ori	v1,v1,0x1004
40001fb0:	34420000 	ori	v0,v0,0x0
40001fb4:	8c630000 	lw	v1,0(v1)
40001fb8:	00000000 	nop
40001fbc:	0062102b 	sltu	v0,v1,v0
40001fc0:	1440fff8 	bnez	v0,40001fa4 <puts+0xc8>
40001fc4:	00000000 	nop
40001fc8:	3c03ff20 	lui	v1,0xff20
40001fcc:	2402000a 	li	v0,10
40001fd0:	34631000 	ori	v1,v1,0x1000
40001fd4:	ac620000 	sw	v0,0(v1)
40001fd8:	24020000 	li	v0,0
40001fdc:	03e00008 	jr	ra
40001fe0:	00000000 	nop

40001fe4 <printf>:
40001fe4:	27bdffb8 	addiu	sp,sp,-72
40001fe8:	afbf0044 	sw	ra,68(sp)
40001fec:	afb30040 	sw	s3,64(sp)
40001ff0:	afb2003c 	sw	s2,60(sp)
40001ff4:	afb10038 	sw	s1,56(sp)
40001ff8:	afb00034 	sw	s0,52(sp)
40001ffc:	00048021 	addu	s0,zero,a0
40002000:	24020000 	li	v0,0
40002004:	27a3004c 	addiu	v1,sp,76
40002008:	afa5004c 	sw	a1,76(sp)
4000200c:	afa60050 	sw	a2,80(sp)
40002010:	afa70054 	sw	a3,84(sp)
40002014:	afa30010 	sw	v1,16(sp)
40002018:	00028821 	addu	s1,zero,v0
4000201c:	02022021 	addu	a0,s0,v0
40002020:	90830000 	lbu	v1,0(a0)
40002024:	00000000 	nop
40002028:	10600374 	beqz	v1,40002dfc <printf+0xe18>
4000202c:	00000000 	nop
40002030:	2405000d 	li	a1,13
40002034:	14650005 	bne	v1,a1,4000204c <printf+0x68>
40002038:	00000000 	nop
4000203c:	2403000d 	li	v1,13
40002040:	24110001 	li	s1,1
40002044:	08000b6e 	j	40002db8 <printf+0xdd4>
40002048:	00000000 	nop
4000204c:	24050025 	li	a1,37
40002050:	14650344 	bne	v1,a1,40002d64 <printf+0xd80>
40002054:	00000000 	nop
40002058:	02021821 	addu	v1,s0,v0
4000205c:	90640001 	lbu	a0,1(v1)
40002060:	00000000 	nop
40002064:	2483ffd0 	addiu	v1,a0,-48
40002068:	306300ff 	andi	v1,v1,0xff
4000206c:	24520001 	addiu	s2,v0,1
40002070:	2c65000a 	sltiu	a1,v1,10
40002074:	00021821 	addu	v1,zero,v0
40002078:	00121021 	addu	v0,zero,s2
4000207c:	14a0fff6 	bnez	a1,40002058 <printf+0x74>
40002080:	00000000 	nop
40002084:	308200ff 	andi	v0,a0,0xff
40002088:	2404006c 	li	a0,108
4000208c:	00441026 	xor	v0,v0,a0
40002090:	14400002 	bnez	v0,4000209c <printf+0xb8>
40002094:	00000000 	nop
40002098:	24720002 	addiu	s2,v1,2
4000209c:	02121021 	addu	v0,s0,s2
400020a0:	80430000 	lb	v1,0(v0)
400020a4:	00000000 	nop
400020a8:	24040057 	li	a0,87
400020ac:	0083202a 	slt	a0,a0,v1
400020b0:	14800011 	bnez	a0,400020f8 <printf+0x114>
400020b4:	00000000 	nop
400020b8:	24040025 	li	a0,37
400020bc:	1464030b 	bne	v1,a0,40002cec <printf+0xd08>
400020c0:	00000000 	nop
400020c4:	3c03ff20 	lui	v1,0xff20
400020c8:	3c020001 	lui	v0,0x1
400020cc:	34631004 	ori	v1,v1,0x1004
400020d0:	34420000 	ori	v0,v0,0x0
400020d4:	8c630000 	lw	v1,0(v1)
400020d8:	00000000 	nop
400020dc:	0062102b 	sltu	v0,v1,v0
400020e0:	1440fff8 	bnez	v0,400020c4 <printf+0xe0>
400020e4:	00000000 	nop
400020e8:	3c03ff20 	lui	v1,0xff20
400020ec:	24020025 	li	v0,37
400020f0:	08000b54 	j	40002d50 <printf+0xd6c>
400020f4:	00000000 	nop
400020f8:	24040062 	li	a0,98
400020fc:	0083202a 	slt	a0,a0,v1
40002100:	14800010 	bnez	a0,40002144 <printf+0x160>
40002104:	00000000 	nop
40002108:	24040058 	li	a0,88
4000210c:	146402f7 	bne	v1,a0,40002cec <printf+0xd08>
40002110:	00000000 	nop
40002114:	8fa30010 	lw	v1,16(sp)
40002118:	00000000 	nop
4000211c:	24640004 	addiu	a0,v1,4
40002120:	3c024000 	lui	v0,0x4000
40002124:	afa40010 	sw	a0,16(sp)
40002128:	8c640000 	lw	a0,0(v1)
4000212c:	00000000 	nop
40002130:	148000e4 	bnez	a0,400024c4 <printf+0x4e0>
40002134:	00000000 	nop
40002138:	24443239 	addiu	a0,v0,12857
4000213c:	08000959 	j	40002564 <printf+0x580>
40002140:	00000000 	nop
40002144:	24040072 	li	a0,114
40002148:	0083202a 	slt	a0,a0,v1
4000214c:	1480000e 	bnez	a0,40002188 <printf+0x1a4>
40002150:	00000000 	nop
40002154:	2463ff9d 	addiu	v1,v1,-99
40002158:	24040009 	li	a0,9
4000215c:	0083202b 	sltu	a0,a0,v1
40002160:	148002e2 	bnez	a0,40002cec <printf+0xd08>
40002164:	00000000 	nop
40002168:	3c044000 	lui	a0,0x4000
4000216c:	00031880 	sll	v1,v1,0x2
40002170:	248431dc 	addiu	a0,a0,12764
40002174:	00641821 	addu	v1,v1,a0
40002178:	8c630000 	lw	v1,0(v1)
4000217c:	00000000 	nop
40002180:	00600008 	jr	v1
40002184:	00000000 	nop
40002188:	24040073 	li	a0,115
4000218c:	10640057 	beq	v1,a0,400022ec <printf+0x308>
40002190:	00000000 	nop
40002194:	24040075 	li	a0,117
40002198:	10640032 	beq	v1,a0,40002264 <printf+0x280>
4000219c:	00000000 	nop
400021a0:	24040078 	li	a0,120
400021a4:	146402d1 	bne	v1,a0,40002cec <printf+0xd08>
400021a8:	00000000 	nop
400021ac:	8fa30010 	lw	v1,16(sp)
400021b0:	00000000 	nop
400021b4:	24640004 	addiu	a0,v1,4
400021b8:	3c024000 	lui	v0,0x4000
400021bc:	afa40010 	sw	a0,16(sp)
400021c0:	8c640000 	lw	a0,0(v1)
400021c4:	00000000 	nop
400021c8:	1480007c 	bnez	a0,400023bc <printf+0x3d8>
400021cc:	00000000 	nop
400021d0:	24443239 	addiu	a0,v0,12857
400021d4:	08000917 	j	4000245c <printf+0x478>
400021d8:	00000000 	nop
400021dc:	8fa20010 	lw	v0,16(sp)
400021e0:	00000000 	nop
400021e4:	24430004 	addiu	v1,v0,4
400021e8:	afa30010 	sw	v1,16(sp)
400021ec:	8c440000 	lw	a0,0(v0)
400021f0:	00000000 	nop
400021f4:	0c0005dc 	jal	40001770 <itoa>
400021f8:	00000000 	nop
400021fc:	90430000 	lbu	v1,0(v0)
40002200:	00000000 	nop
40002204:	106002d4 	beqz	v1,40002d58 <printf+0xd74>
40002208:	00000000 	nop
4000220c:	24420001 	addiu	v0,v0,1
40002210:	3c05ff20 	lui	a1,0xff20
40002214:	3c040001 	lui	a0,0x1
40002218:	34a51004 	ori	a1,a1,0x1004
4000221c:	34840000 	ori	a0,a0,0x0
40002220:	8ca50000 	lw	a1,0(a1)
40002224:	00000000 	nop
40002228:	00a4202b 	sltu	a0,a1,a0
4000222c:	1480fff8 	bnez	a0,40002210 <printf+0x22c>
40002230:	00000000 	nop
40002234:	00031e00 	sll	v1,v1,0x18
40002238:	3c04ff20 	lui	a0,0xff20
4000223c:	00031e03 	sra	v1,v1,0x18
40002240:	34841000 	ori	a0,a0,0x1000
40002244:	ac830000 	sw	v1,0(a0)
40002248:	90430000 	lbu	v1,0(v0)
4000224c:	00000000 	nop
40002250:	24420001 	addiu	v0,v0,1
40002254:	1460ffee 	bnez	v1,40002210 <printf+0x22c>
40002258:	00000000 	nop
4000225c:	08000b56 	j	40002d58 <printf+0xd74>
40002260:	00000000 	nop
40002264:	8fa20010 	lw	v0,16(sp)
40002268:	00000000 	nop
4000226c:	24430004 	addiu	v1,v0,4
40002270:	afa30010 	sw	v1,16(sp)
40002274:	8c440000 	lw	a0,0(v0)
40002278:	00000000 	nop
4000227c:	0c0006ea 	jal	40001ba8 <utoa>
40002280:	00000000 	nop
40002284:	90430000 	lbu	v1,0(v0)
40002288:	00000000 	nop
4000228c:	106002b2 	beqz	v1,40002d58 <printf+0xd74>
40002290:	00000000 	nop
40002294:	24420001 	addiu	v0,v0,1
40002298:	3c05ff20 	lui	a1,0xff20
4000229c:	3c040001 	lui	a0,0x1
400022a0:	34a51004 	ori	a1,a1,0x1004
400022a4:	34840000 	ori	a0,a0,0x0
400022a8:	8ca50000 	lw	a1,0(a1)
400022ac:	00000000 	nop
400022b0:	00a4202b 	sltu	a0,a1,a0
400022b4:	1480fff8 	bnez	a0,40002298 <printf+0x2b4>
400022b8:	00000000 	nop
400022bc:	00031e00 	sll	v1,v1,0x18
400022c0:	3c04ff20 	lui	a0,0xff20
400022c4:	00031e03 	sra	v1,v1,0x18
400022c8:	34841000 	ori	a0,a0,0x1000
400022cc:	ac830000 	sw	v1,0(a0)
400022d0:	90430000 	lbu	v1,0(v0)
400022d4:	00000000 	nop
400022d8:	24420001 	addiu	v0,v0,1
400022dc:	1460ffee 	bnez	v1,40002298 <printf+0x2b4>
400022e0:	00000000 	nop
400022e4:	08000b56 	j	40002d58 <printf+0xd74>
400022e8:	00000000 	nop
400022ec:	8fa20010 	lw	v0,16(sp)
400022f0:	00000000 	nop
400022f4:	24430004 	addiu	v1,v0,4
400022f8:	afa30010 	sw	v1,16(sp)
400022fc:	8c420000 	lw	v0,0(v0)
40002300:	00000000 	nop
40002304:	90430000 	lbu	v1,0(v0)
40002308:	00000000 	nop
4000230c:	10600292 	beqz	v1,40002d58 <printf+0xd74>
40002310:	00000000 	nop
40002314:	24420001 	addiu	v0,v0,1
40002318:	3c05ff20 	lui	a1,0xff20
4000231c:	3c040001 	lui	a0,0x1
40002320:	34a51004 	ori	a1,a1,0x1004
40002324:	34840000 	ori	a0,a0,0x0
40002328:	8ca50000 	lw	a1,0(a1)
4000232c:	00000000 	nop
40002330:	00a4202b 	sltu	a0,a1,a0
40002334:	1480fff8 	bnez	a0,40002318 <printf+0x334>
40002338:	00000000 	nop
4000233c:	00031e00 	sll	v1,v1,0x18
40002340:	3c04ff20 	lui	a0,0xff20
40002344:	00031e03 	sra	v1,v1,0x18
40002348:	34841000 	ori	a0,a0,0x1000
4000234c:	ac830000 	sw	v1,0(a0)
40002350:	90430000 	lbu	v1,0(v0)
40002354:	00000000 	nop
40002358:	24420001 	addiu	v0,v0,1
4000235c:	1460ffee 	bnez	v1,40002318 <printf+0x334>
40002360:	00000000 	nop
40002364:	08000b56 	j	40002d58 <printf+0xd74>
40002368:	00000000 	nop
4000236c:	8fa20010 	lw	v0,16(sp)
40002370:	00000000 	nop
40002374:	24430004 	addiu	v1,v0,4
40002378:	afa30010 	sw	v1,16(sp)
4000237c:	8c420000 	lw	v0,0(v0)
40002380:	00000000 	nop
40002384:	3c04ff20 	lui	a0,0xff20
40002388:	3c030001 	lui	v1,0x1
4000238c:	34841004 	ori	a0,a0,0x1004
40002390:	34630000 	ori	v1,v1,0x0
40002394:	8c840000 	lw	a0,0(a0)
40002398:	00000000 	nop
4000239c:	0083182b 	sltu	v1,a0,v1
400023a0:	1460fff8 	bnez	v1,40002384 <printf+0x3a0>
400023a4:	00000000 	nop
400023a8:	00021600 	sll	v0,v0,0x18
400023ac:	3c03ff20 	lui	v1,0xff20
400023b0:	00021603 	sra	v0,v0,0x18
400023b4:	08000b54 	j	40002d50 <printf+0xd6c>
400023b8:	00000000 	nop
400023bc:	24050000 	li	a1,0
400023c0:	00051821 	addu	v1,zero,a1
400023c4:	3086000f 	andi	a2,a0,0xf
400023c8:	2cc2000a 	sltiu	v0,a2,10
400023cc:	14400004 	bnez	v0,400023e0 <printf+0x3fc>
400023d0:	00000000 	nop
400023d4:	24070057 	li	a3,87
400023d8:	080008f9 	j	400023e4 <printf+0x400>
400023dc:	00000000 	nop
400023e0:	24070030 	li	a3,48
400023e4:	27a20014 	addiu	v0,sp,20
400023e8:	00042102 	srl	a0,a0,0x4
400023ec:	24650001 	addiu	a1,v1,1
400023f0:	00e63021 	addu	a2,a3,a2
400023f4:	00433821 	addu	a3,v0,v1
400023f8:	a0e60000 	sb	a2,0(a3)
400023fc:	1480fff0 	bnez	a0,400023c0 <printf+0x3dc>
40002400:	00000000 	nop
40002404:	3c044000 	lui	a0,0x4000
40002408:	248433c8 	addiu	a0,a0,13256
4000240c:	24060000 	li	a2,0
40002410:	00853821 	addu	a3,a0,a1
40002414:	a0e60000 	sb	a2,0(a3)
40002418:	04600010 	bltz	v1,4000245c <printf+0x478>
4000241c:	00000000 	nop
40002420:	3c044000 	lui	a0,0x4000
40002424:	24030000 	li	v1,0
40002428:	00651823 	subu	v1,v1,a1
4000242c:	248433c8 	addiu	a0,a0,13256
40002430:	3c054000 	lui	a1,0x4000
40002434:	00433023 	subu	a2,v0,v1
40002438:	90c6ffff 	lbu	a2,-1(a2)
4000243c:	00000000 	nop
40002440:	24630001 	addiu	v1,v1,1
40002444:	24870001 	addiu	a3,a0,1
40002448:	a0860000 	sb	a2,0(a0)
4000244c:	00072021 	addu	a0,zero,a3
40002450:	1460fff7 	bnez	v1,40002430 <printf+0x44c>
40002454:	00000000 	nop
40002458:	24a433c8 	addiu	a0,a1,13256
4000245c:	90830000 	lbu	v1,0(a0)
40002460:	00000000 	nop
40002464:	1060023c 	beqz	v1,40002d58 <printf+0xd74>
40002468:	00000000 	nop
4000246c:	24820001 	addiu	v0,a0,1
40002470:	3c05ff20 	lui	a1,0xff20
40002474:	3c040001 	lui	a0,0x1
40002478:	34a51004 	ori	a1,a1,0x1004
4000247c:	34840000 	ori	a0,a0,0x0
40002480:	8ca50000 	lw	a1,0(a1)
40002484:	00000000 	nop
40002488:	00a4202b 	sltu	a0,a1,a0
4000248c:	1480fff8 	bnez	a0,40002470 <printf+0x48c>
40002490:	00000000 	nop
40002494:	00031e00 	sll	v1,v1,0x18
40002498:	3c04ff20 	lui	a0,0xff20
4000249c:	00031e03 	sra	v1,v1,0x18
400024a0:	34841000 	ori	a0,a0,0x1000
400024a4:	ac830000 	sw	v1,0(a0)
400024a8:	90430000 	lbu	v1,0(v0)
400024ac:	00000000 	nop
400024b0:	24420001 	addiu	v0,v0,1
400024b4:	1460ffee 	bnez	v1,40002470 <printf+0x48c>
400024b8:	00000000 	nop
400024bc:	08000b56 	j	40002d58 <printf+0xd74>
400024c0:	00000000 	nop
400024c4:	24050000 	li	a1,0
400024c8:	00051821 	addu	v1,zero,a1
400024cc:	3086000f 	andi	a2,a0,0xf
400024d0:	2cc2000a 	sltiu	v0,a2,10
400024d4:	14400004 	bnez	v0,400024e8 <printf+0x504>
400024d8:	00000000 	nop
400024dc:	24070037 	li	a3,55
400024e0:	0800093b 	j	400024ec <printf+0x508>
400024e4:	00000000 	nop
400024e8:	24070030 	li	a3,48
400024ec:	27a20014 	addiu	v0,sp,20
400024f0:	00042102 	srl	a0,a0,0x4
400024f4:	24650001 	addiu	a1,v1,1
400024f8:	00e63021 	addu	a2,a3,a2
400024fc:	00433821 	addu	a3,v0,v1
40002500:	a0e60000 	sb	a2,0(a3)
40002504:	1480fff0 	bnez	a0,400024c8 <printf+0x4e4>
40002508:	00000000 	nop
4000250c:	3c044000 	lui	a0,0x4000
40002510:	248433c8 	addiu	a0,a0,13256
40002514:	24060000 	li	a2,0
40002518:	00853821 	addu	a3,a0,a1
4000251c:	a0e60000 	sb	a2,0(a3)
40002520:	04600010 	bltz	v1,40002564 <printf+0x580>
40002524:	00000000 	nop
40002528:	3c044000 	lui	a0,0x4000
4000252c:	24030000 	li	v1,0
40002530:	00651823 	subu	v1,v1,a1
40002534:	248433c8 	addiu	a0,a0,13256
40002538:	3c054000 	lui	a1,0x4000
4000253c:	00433023 	subu	a2,v0,v1
40002540:	90c6ffff 	lbu	a2,-1(a2)
40002544:	00000000 	nop
40002548:	24630001 	addiu	v1,v1,1
4000254c:	24870001 	addiu	a3,a0,1
40002550:	a0860000 	sb	a2,0(a0)
40002554:	00072021 	addu	a0,zero,a3
40002558:	1460fff7 	bnez	v1,40002538 <printf+0x554>
4000255c:	00000000 	nop
40002560:	24a433c8 	addiu	a0,a1,13256
40002564:	90830000 	lbu	v1,0(a0)
40002568:	00000000 	nop
4000256c:	106001fa 	beqz	v1,40002d58 <printf+0xd74>
40002570:	00000000 	nop
40002574:	24820001 	addiu	v0,a0,1
40002578:	3c05ff20 	lui	a1,0xff20
4000257c:	3c040001 	lui	a0,0x1
40002580:	34a51004 	ori	a1,a1,0x1004
40002584:	34840000 	ori	a0,a0,0x0
40002588:	8ca50000 	lw	a1,0(a1)
4000258c:	00000000 	nop
40002590:	00a4202b 	sltu	a0,a1,a0
40002594:	1480fff8 	bnez	a0,40002578 <printf+0x594>
40002598:	00000000 	nop
4000259c:	00031e00 	sll	v1,v1,0x18
400025a0:	3c04ff20 	lui	a0,0xff20
400025a4:	00031e03 	sra	v1,v1,0x18
400025a8:	34841000 	ori	a0,a0,0x1000
400025ac:	ac830000 	sw	v1,0(a0)
400025b0:	90430000 	lbu	v1,0(v0)
400025b4:	00000000 	nop
400025b8:	24420001 	addiu	v0,v0,1
400025bc:	1460ffee 	bnez	v1,40002578 <printf+0x594>
400025c0:	00000000 	nop
400025c4:	08000b56 	j	40002d58 <printf+0xd74>
400025c8:	00000000 	nop
400025cc:	26530001 	addiu	s3,s2,1
400025d0:	02131021 	addu	v0,s0,s3
400025d4:	80420000 	lb	v0,0(v0)
400025d8:	00000000 	nop
400025dc:	24030058 	li	v1,88
400025e0:	10430091 	beq	v0,v1,40002828 <printf+0x844>
400025e4:	00000000 	nop
400025e8:	24030078 	li	v1,120
400025ec:	1043002c 	beq	v0,v1,400026a0 <printf+0x6bc>
400025f0:	00000000 	nop
400025f4:	24030064 	li	v1,100
400025f8:	144301d7 	bne	v0,v1,40002d58 <printf+0xd74>
400025fc:	00000000 	nop
40002600:	8fa20010 	lw	v0,16(sp)
40002604:	00000000 	nop
40002608:	24430008 	addiu	v1,v0,8
4000260c:	afa30010 	sw	v1,16(sp)
40002610:	8c440004 	lw	a0,4(v0)
40002614:	00000000 	nop
40002618:	0c0005dc 	jal	40001770 <itoa>
4000261c:	00000000 	nop
40002620:	90430000 	lbu	v1,0(v0)
40002624:	00000000 	nop
40002628:	14600005 	bnez	v1,40002640 <printf+0x65c>
4000262c:	00000000 	nop
40002630:	00139021 	addu	s2,zero,s3
40002634:	26420001 	addiu	v0,s2,1
40002638:	08000807 	j	4000201c <printf+0x38>
4000263c:	00000000 	nop
40002640:	24420001 	addiu	v0,v0,1
40002644:	3c05ff20 	lui	a1,0xff20
40002648:	3c040001 	lui	a0,0x1
4000264c:	34a51004 	ori	a1,a1,0x1004
40002650:	34840000 	ori	a0,a0,0x0
40002654:	8ca50000 	lw	a1,0(a1)
40002658:	00000000 	nop
4000265c:	00a4202b 	sltu	a0,a1,a0
40002660:	1480fff8 	bnez	a0,40002644 <printf+0x660>
40002664:	00000000 	nop
40002668:	00031e00 	sll	v1,v1,0x18
4000266c:	3c04ff20 	lui	a0,0xff20
40002670:	00031e03 	sra	v1,v1,0x18
40002674:	34841000 	ori	a0,a0,0x1000
40002678:	ac830000 	sw	v1,0(a0)
4000267c:	90430000 	lbu	v1,0(v0)
40002680:	00000000 	nop
40002684:	24420001 	addiu	v0,v0,1
40002688:	1460ffee 	bnez	v1,40002644 <printf+0x660>
4000268c:	00000000 	nop
40002690:	00139021 	addu	s2,zero,s3
40002694:	26420001 	addiu	v0,s2,1
40002698:	08000807 	j	4000201c <printf+0x38>
4000269c:	00000000 	nop
400026a0:	8fa20010 	lw	v0,16(sp)
400026a4:	00000000 	nop
400026a8:	24430004 	addiu	v1,v0,4
400026ac:	afa30010 	sw	v1,16(sp)
400026b0:	8c430000 	lw	v1,0(v0)
400026b4:	00000000 	nop
400026b8:	24440008 	addiu	a0,v0,8
400026bc:	3c054000 	lui	a1,0x4000
400026c0:	afa40010 	sw	a0,16(sp)
400026c4:	8c440004 	lw	a0,4(v0)
400026c8:	00000000 	nop
400026cc:	00641025 	or	v0,v1,a0
400026d0:	1440000a 	bnez	v0,400026fc <printf+0x718>
400026d4:	00000000 	nop
400026d8:	24a73239 	addiu	a3,a1,12857
400026dc:	90e30000 	lbu	v1,0(a3)
400026e0:	00000000 	nop
400026e4:	14600038 	bnez	v1,400027c8 <printf+0x7e4>
400026e8:	00000000 	nop
400026ec:	00139021 	addu	s2,zero,s3
400026f0:	26420001 	addiu	v0,s2,1
400026f4:	08000807 	j	4000201c <printf+0x38>
400026f8:	00000000 	nop
400026fc:	24060000 	li	a2,0
40002700:	00062821 	addu	a1,zero,a2
40002704:	3067000f 	andi	a3,v1,0xf
40002708:	2ce2000a 	sltiu	v0,a3,10
4000270c:	14400004 	bnez	v0,40002720 <printf+0x73c>
40002710:	00000000 	nop
40002714:	24080057 	li	t0,87
40002718:	080009c9 	j	40002724 <printf+0x740>
4000271c:	00000000 	nop
40002720:	24080030 	li	t0,48
40002724:	27a20020 	addiu	v0,sp,32
40002728:	00031902 	srl	v1,v1,0x4
4000272c:	00044f00 	sll	t1,a0,0x1c
40002730:	24a60001 	addiu	a2,a1,1
40002734:	00691825 	or	v1,v1,t1
40002738:	00042102 	srl	a0,a0,0x4
4000273c:	01074021 	addu	t0,t0,a3
40002740:	00454821 	addu	t1,v0,a1
40002744:	00643825 	or	a3,v1,a0
40002748:	a1280000 	sb	t0,0(t1)
4000274c:	14e0ffec 	bnez	a3,40002700 <printf+0x71c>
40002750:	00000000 	nop
40002754:	3c034000 	lui	v1,0x4000
40002758:	246733d1 	addiu	a3,v1,13265
4000275c:	24030000 	li	v1,0
40002760:	00e62021 	addu	a0,a3,a2
40002764:	a0830000 	sb	v1,0(a0)
40002768:	04a0ffdc 	bltz	a1,400026dc <printf+0x6f8>
4000276c:	00000000 	nop
40002770:	24030000 	li	v1,0
40002774:	24c4ffff 	addiu	a0,a2,-1
40002778:	00032821 	addu	a1,zero,v1
4000277c:	3c074000 	lui	a3,0x4000
40002780:	00443021 	addu	a2,v0,a0
40002784:	24e733d1 	addiu	a3,a3,13265
40002788:	90c80000 	lbu	t0,0(a2)
4000278c:	00000000 	nop
40002790:	00e34821 	addu	t1,a3,v1
40002794:	28860001 	slti	a2,a0,1
40002798:	a1280000 	sb	t0,0(t1)
4000279c:	14c0ffcf 	bnez	a2,400026dc <printf+0x6f8>
400027a0:	00000000 	nop
400027a4:	24630001 	addiu	v1,v1,1
400027a8:	24060001 	li	a2,1
400027ac:	0066302b 	sltu	a2,v1,a2
400027b0:	24070000 	li	a3,0
400027b4:	00c73021 	addu	a2,a2,a3
400027b8:	2484ffff 	addiu	a0,a0,-1
400027bc:	00a62821 	addu	a1,a1,a2
400027c0:	080009df 	j	4000277c <printf+0x798>
400027c4:	00000000 	nop
400027c8:	24e20001 	addiu	v0,a3,1
400027cc:	3c05ff20 	lui	a1,0xff20
400027d0:	3c040001 	lui	a0,0x1
400027d4:	34a51004 	ori	a1,a1,0x1004
400027d8:	34840000 	ori	a0,a0,0x0
400027dc:	8ca50000 	lw	a1,0(a1)
400027e0:	00000000 	nop
400027e4:	00a4202b 	sltu	a0,a1,a0
400027e8:	1480fff8 	bnez	a0,400027cc <printf+0x7e8>
400027ec:	00000000 	nop
400027f0:	00031e00 	sll	v1,v1,0x18
400027f4:	3c04ff20 	lui	a0,0xff20
400027f8:	00031e03 	sra	v1,v1,0x18
400027fc:	34841000 	ori	a0,a0,0x1000
40002800:	ac830000 	sw	v1,0(a0)
40002804:	90430000 	lbu	v1,0(v0)
40002808:	00000000 	nop
4000280c:	24420001 	addiu	v0,v0,1
40002810:	1460ffee 	bnez	v1,400027cc <printf+0x7e8>
40002814:	00000000 	nop
40002818:	00139021 	addu	s2,zero,s3
4000281c:	26420001 	addiu	v0,s2,1
40002820:	08000807 	j	4000201c <printf+0x38>
40002824:	00000000 	nop
40002828:	8fa20010 	lw	v0,16(sp)
4000282c:	00000000 	nop
40002830:	24430004 	addiu	v1,v0,4
40002834:	afa30010 	sw	v1,16(sp)
40002838:	8c430000 	lw	v1,0(v0)
4000283c:	00000000 	nop
40002840:	24440008 	addiu	a0,v0,8
40002844:	3c054000 	lui	a1,0x4000
40002848:	afa40010 	sw	a0,16(sp)
4000284c:	8c440004 	lw	a0,4(v0)
40002850:	00000000 	nop
40002854:	00641025 	or	v0,v1,a0
40002858:	1440000a 	bnez	v0,40002884 <printf+0x8a0>
4000285c:	00000000 	nop
40002860:	24a73239 	addiu	a3,a1,12857
40002864:	90e30000 	lbu	v1,0(a3)
40002868:	00000000 	nop
4000286c:	14600038 	bnez	v1,40002950 <printf+0x96c>
40002870:	00000000 	nop
40002874:	00139021 	addu	s2,zero,s3
40002878:	26420001 	addiu	v0,s2,1
4000287c:	08000807 	j	4000201c <printf+0x38>
40002880:	00000000 	nop
40002884:	24060000 	li	a2,0
40002888:	00062821 	addu	a1,zero,a2
4000288c:	3067000f 	andi	a3,v1,0xf
40002890:	2ce2000a 	sltiu	v0,a3,10
40002894:	14400004 	bnez	v0,400028a8 <printf+0x8c4>
40002898:	00000000 	nop
4000289c:	24080037 	li	t0,55
400028a0:	08000a2b 	j	400028ac <printf+0x8c8>
400028a4:	00000000 	nop
400028a8:	24080030 	li	t0,48
400028ac:	27a20020 	addiu	v0,sp,32
400028b0:	00031902 	srl	v1,v1,0x4
400028b4:	00044f00 	sll	t1,a0,0x1c
400028b8:	24a60001 	addiu	a2,a1,1
400028bc:	00691825 	or	v1,v1,t1
400028c0:	00042102 	srl	a0,a0,0x4
400028c4:	01074021 	addu	t0,t0,a3
400028c8:	00454821 	addu	t1,v0,a1
400028cc:	00643825 	or	a3,v1,a0
400028d0:	a1280000 	sb	t0,0(t1)
400028d4:	14e0ffec 	bnez	a3,40002888 <printf+0x8a4>
400028d8:	00000000 	nop
400028dc:	3c034000 	lui	v1,0x4000
400028e0:	246733d1 	addiu	a3,v1,13265
400028e4:	24030000 	li	v1,0
400028e8:	00e62021 	addu	a0,a3,a2
400028ec:	a0830000 	sb	v1,0(a0)
400028f0:	04a0ffdc 	bltz	a1,40002864 <printf+0x880>
400028f4:	00000000 	nop
400028f8:	24030000 	li	v1,0
400028fc:	24c4ffff 	addiu	a0,a2,-1
40002900:	00032821 	addu	a1,zero,v1
40002904:	3c074000 	lui	a3,0x4000
40002908:	00443021 	addu	a2,v0,a0
4000290c:	24e733d1 	addiu	a3,a3,13265
40002910:	90c80000 	lbu	t0,0(a2)
40002914:	00000000 	nop
40002918:	00e34821 	addu	t1,a3,v1
4000291c:	28860001 	slti	a2,a0,1
40002920:	a1280000 	sb	t0,0(t1)
40002924:	14c0ffcf 	bnez	a2,40002864 <printf+0x880>
40002928:	00000000 	nop
4000292c:	24630001 	addiu	v1,v1,1
40002930:	24060001 	li	a2,1
40002934:	0066302b 	sltu	a2,v1,a2
40002938:	24070000 	li	a3,0
4000293c:	00c73021 	addu	a2,a2,a3
40002940:	2484ffff 	addiu	a0,a0,-1
40002944:	00a62821 	addu	a1,a1,a2
40002948:	08000a41 	j	40002904 <printf+0x920>
4000294c:	00000000 	nop
40002950:	24e20001 	addiu	v0,a3,1
40002954:	3c05ff20 	lui	a1,0xff20
40002958:	3c040001 	lui	a0,0x1
4000295c:	34a51004 	ori	a1,a1,0x1004
40002960:	34840000 	ori	a0,a0,0x0
40002964:	8ca50000 	lw	a1,0(a1)
40002968:	00000000 	nop
4000296c:	00a4202b 	sltu	a0,a1,a0
40002970:	1480fff8 	bnez	a0,40002954 <printf+0x970>
40002974:	00000000 	nop
40002978:	00031e00 	sll	v1,v1,0x18
4000297c:	3c04ff20 	lui	a0,0xff20
40002980:	00031e03 	sra	v1,v1,0x18
40002984:	34841000 	ori	a0,a0,0x1000
40002988:	ac830000 	sw	v1,0(a0)
4000298c:	90430000 	lbu	v1,0(v0)
40002990:	00000000 	nop
40002994:	24420001 	addiu	v0,v0,1
40002998:	1460ffee 	bnez	v1,40002954 <printf+0x970>
4000299c:	00000000 	nop
400029a0:	00139021 	addu	s2,zero,s3
400029a4:	26420001 	addiu	v0,s2,1
400029a8:	08000807 	j	4000201c <printf+0x38>
400029ac:	00000000 	nop
400029b0:	8fa20010 	lw	v0,16(sp)
400029b4:	00000000 	nop
400029b8:	24440004 	addiu	a0,v0,4
400029bc:	26430001 	addiu	v1,s2,1
400029c0:	afa40010 	sw	a0,16(sp)
400029c4:	02032021 	addu	a0,s0,v1
400029c8:	90840000 	lbu	a0,0(a0)
400029cc:	00000000 	nop
400029d0:	24050068 	li	a1,104
400029d4:	00852026 	xor	a0,a0,a1
400029d8:	14800002 	bnez	a0,400029e4 <printf+0xa00>
400029dc:	00000000 	nop
400029e0:	00039021 	addu	s2,zero,v1
400029e4:	26520001 	addiu	s2,s2,1
400029e8:	10800004 	beqz	a0,400029fc <printf+0xa18>
400029ec:	00000000 	nop
400029f0:	3403ffff 	li	v1,0xffff
400029f4:	08000a80 	j	40002a00 <printf+0xa1c>
400029f8:	00000000 	nop
400029fc:	240300ff 	li	v1,255
40002a00:	02122821 	addu	a1,s0,s2
40002a04:	8c440000 	lw	a0,0(v0)
40002a08:	00000000 	nop
40002a0c:	80a20000 	lb	v0,0(a1)
40002a10:	00000000 	nop
40002a14:	00642024 	and	a0,v1,a0
40002a18:	24030058 	li	v1,88
40002a1c:	1043006b 	beq	v0,v1,40002bcc <printf+0xbe8>
40002a20:	00000000 	nop
40002a24:	24030078 	li	v1,120
40002a28:	10430020 	beq	v0,v1,40002aac <printf+0xac8>
40002a2c:	00000000 	nop
40002a30:	24030064 	li	v1,100
40002a34:	144300c8 	bne	v0,v1,40002d58 <printf+0xd74>
40002a38:	00000000 	nop
40002a3c:	0c0005dc 	jal	40001770 <itoa>
40002a40:	00000000 	nop
40002a44:	90430000 	lbu	v1,0(v0)
40002a48:	00000000 	nop
40002a4c:	106000c2 	beqz	v1,40002d58 <printf+0xd74>
40002a50:	00000000 	nop
40002a54:	24420001 	addiu	v0,v0,1
40002a58:	3c05ff20 	lui	a1,0xff20
40002a5c:	3c040001 	lui	a0,0x1
40002a60:	34a51004 	ori	a1,a1,0x1004
40002a64:	34840000 	ori	a0,a0,0x0
40002a68:	8ca50000 	lw	a1,0(a1)
40002a6c:	00000000 	nop
40002a70:	00a4202b 	sltu	a0,a1,a0
40002a74:	1480fff8 	bnez	a0,40002a58 <printf+0xa74>
40002a78:	00000000 	nop
40002a7c:	00031e00 	sll	v1,v1,0x18
40002a80:	3c04ff20 	lui	a0,0xff20
40002a84:	00031e03 	sra	v1,v1,0x18
40002a88:	34841000 	ori	a0,a0,0x1000
40002a8c:	ac830000 	sw	v1,0(a0)
40002a90:	90430000 	lbu	v1,0(v0)
40002a94:	00000000 	nop
40002a98:	24420001 	addiu	v0,v0,1
40002a9c:	1460ffee 	bnez	v1,40002a58 <printf+0xa74>
40002aa0:	00000000 	nop
40002aa4:	08000b56 	j	40002d58 <printf+0xd74>
40002aa8:	00000000 	nop
40002aac:	3c024000 	lui	v0,0x4000
40002ab0:	14800004 	bnez	a0,40002ac4 <printf+0xae0>
40002ab4:	00000000 	nop
40002ab8:	24443239 	addiu	a0,v0,12857
40002abc:	08000ad9 	j	40002b64 <printf+0xb80>
40002ac0:	00000000 	nop
40002ac4:	24050000 	li	a1,0
40002ac8:	00051821 	addu	v1,zero,a1
40002acc:	3086000f 	andi	a2,a0,0xf
40002ad0:	2cc2000a 	sltiu	v0,a2,10
40002ad4:	14400004 	bnez	v0,40002ae8 <printf+0xb04>
40002ad8:	00000000 	nop
40002adc:	24070057 	li	a3,87
40002ae0:	08000abb 	j	40002aec <printf+0xb08>
40002ae4:	00000000 	nop
40002ae8:	24070030 	li	a3,48
40002aec:	27a20014 	addiu	v0,sp,20
40002af0:	00042102 	srl	a0,a0,0x4
40002af4:	24650001 	addiu	a1,v1,1
40002af8:	00e63021 	addu	a2,a3,a2
40002afc:	00433821 	addu	a3,v0,v1
40002b00:	a0e60000 	sb	a2,0(a3)
40002b04:	1480fff0 	bnez	a0,40002ac8 <printf+0xae4>
40002b08:	00000000 	nop
40002b0c:	3c044000 	lui	a0,0x4000
40002b10:	248433c8 	addiu	a0,a0,13256
40002b14:	24060000 	li	a2,0
40002b18:	00853821 	addu	a3,a0,a1
40002b1c:	a0e60000 	sb	a2,0(a3)
40002b20:	04600010 	bltz	v1,40002b64 <printf+0xb80>
40002b24:	00000000 	nop
40002b28:	3c044000 	lui	a0,0x4000
40002b2c:	24030000 	li	v1,0
40002b30:	00651823 	subu	v1,v1,a1
40002b34:	248433c8 	addiu	a0,a0,13256
40002b38:	3c054000 	lui	a1,0x4000
40002b3c:	00433023 	subu	a2,v0,v1
40002b40:	90c6ffff 	lbu	a2,-1(a2)
40002b44:	00000000 	nop
40002b48:	24630001 	addiu	v1,v1,1
40002b4c:	24870001 	addiu	a3,a0,1
40002b50:	a0860000 	sb	a2,0(a0)
40002b54:	00072021 	addu	a0,zero,a3
40002b58:	1460fff7 	bnez	v1,40002b38 <printf+0xb54>
40002b5c:	00000000 	nop
40002b60:	24a433c8 	addiu	a0,a1,13256
40002b64:	90830000 	lbu	v1,0(a0)
40002b68:	00000000 	nop
40002b6c:	1060007a 	beqz	v1,40002d58 <printf+0xd74>
40002b70:	00000000 	nop
40002b74:	24820001 	addiu	v0,a0,1
40002b78:	3c05ff20 	lui	a1,0xff20
40002b7c:	3c040001 	lui	a0,0x1
40002b80:	34a51004 	ori	a1,a1,0x1004
40002b84:	34840000 	ori	a0,a0,0x0
40002b88:	8ca50000 	lw	a1,0(a1)
40002b8c:	00000000 	nop
40002b90:	00a4202b 	sltu	a0,a1,a0
40002b94:	1480fff8 	bnez	a0,40002b78 <printf+0xb94>
40002b98:	00000000 	nop
40002b9c:	00031e00 	sll	v1,v1,0x18
40002ba0:	3c04ff20 	lui	a0,0xff20
40002ba4:	00031e03 	sra	v1,v1,0x18
40002ba8:	34841000 	ori	a0,a0,0x1000
40002bac:	ac830000 	sw	v1,0(a0)
40002bb0:	90430000 	lbu	v1,0(v0)
40002bb4:	00000000 	nop
40002bb8:	24420001 	addiu	v0,v0,1
40002bbc:	1460ffee 	bnez	v1,40002b78 <printf+0xb94>
40002bc0:	00000000 	nop
40002bc4:	08000b56 	j	40002d58 <printf+0xd74>
40002bc8:	00000000 	nop
40002bcc:	3c024000 	lui	v0,0x4000
40002bd0:	14800004 	bnez	a0,40002be4 <printf+0xc00>
40002bd4:	00000000 	nop
40002bd8:	24443239 	addiu	a0,v0,12857
40002bdc:	08000b21 	j	40002c84 <printf+0xca0>
40002be0:	00000000 	nop
40002be4:	24050000 	li	a1,0
40002be8:	00051821 	addu	v1,zero,a1
40002bec:	3086000f 	andi	a2,a0,0xf
40002bf0:	2cc2000a 	sltiu	v0,a2,10
40002bf4:	14400004 	bnez	v0,40002c08 <printf+0xc24>
40002bf8:	00000000 	nop
40002bfc:	24070037 	li	a3,55
40002c00:	08000b03 	j	40002c0c <printf+0xc28>
40002c04:	00000000 	nop
40002c08:	24070030 	li	a3,48
40002c0c:	27a20014 	addiu	v0,sp,20
40002c10:	00042102 	srl	a0,a0,0x4
40002c14:	24650001 	addiu	a1,v1,1
40002c18:	00e63021 	addu	a2,a3,a2
40002c1c:	00433821 	addu	a3,v0,v1
40002c20:	a0e60000 	sb	a2,0(a3)
40002c24:	1480fff0 	bnez	a0,40002be8 <printf+0xc04>
40002c28:	00000000 	nop
40002c2c:	3c044000 	lui	a0,0x4000
40002c30:	248433c8 	addiu	a0,a0,13256
40002c34:	24060000 	li	a2,0
40002c38:	00853821 	addu	a3,a0,a1
40002c3c:	a0e60000 	sb	a2,0(a3)
40002c40:	04600010 	bltz	v1,40002c84 <printf+0xca0>
40002c44:	00000000 	nop
40002c48:	3c044000 	lui	a0,0x4000
40002c4c:	24030000 	li	v1,0
40002c50:	00651823 	subu	v1,v1,a1
40002c54:	248433c8 	addiu	a0,a0,13256
40002c58:	3c054000 	lui	a1,0x4000
40002c5c:	00433023 	subu	a2,v0,v1
40002c60:	90c6ffff 	lbu	a2,-1(a2)
40002c64:	00000000 	nop
40002c68:	24630001 	addiu	v1,v1,1
40002c6c:	24870001 	addiu	a3,a0,1
40002c70:	a0860000 	sb	a2,0(a0)
40002c74:	00072021 	addu	a0,zero,a3
40002c78:	1460fff7 	bnez	v1,40002c58 <printf+0xc74>
40002c7c:	00000000 	nop
40002c80:	24a433c8 	addiu	a0,a1,13256
40002c84:	90830000 	lbu	v1,0(a0)
40002c88:	00000000 	nop
40002c8c:	10600032 	beqz	v1,40002d58 <printf+0xd74>
40002c90:	00000000 	nop
40002c94:	24820001 	addiu	v0,a0,1
40002c98:	3c05ff20 	lui	a1,0xff20
40002c9c:	3c040001 	lui	a0,0x1
40002ca0:	34a51004 	ori	a1,a1,0x1004
40002ca4:	34840000 	ori	a0,a0,0x0
40002ca8:	8ca50000 	lw	a1,0(a1)
40002cac:	00000000 	nop
40002cb0:	00a4202b 	sltu	a0,a1,a0
40002cb4:	1480fff8 	bnez	a0,40002c98 <printf+0xcb4>
40002cb8:	00000000 	nop
40002cbc:	00031e00 	sll	v1,v1,0x18
40002cc0:	3c04ff20 	lui	a0,0xff20
40002cc4:	00031e03 	sra	v1,v1,0x18
40002cc8:	34841000 	ori	a0,a0,0x1000
40002ccc:	ac830000 	sw	v1,0(a0)
40002cd0:	90430000 	lbu	v1,0(v0)
40002cd4:	00000000 	nop
40002cd8:	24420001 	addiu	v0,v0,1
40002cdc:	1460ffee 	bnez	v1,40002c98 <printf+0xcb4>
40002ce0:	00000000 	nop
40002ce4:	08000b56 	j	40002d58 <printf+0xd74>
40002ce8:	00000000 	nop
40002cec:	3c04ff20 	lui	a0,0xff20
40002cf0:	3c030001 	lui	v1,0x1
40002cf4:	34841004 	ori	a0,a0,0x1004
40002cf8:	34630000 	ori	v1,v1,0x0
40002cfc:	8c840000 	lw	a0,0(a0)
40002d00:	00000000 	nop
40002d04:	0083182b 	sltu	v1,a0,v1
40002d08:	1460fff8 	bnez	v1,40002cec <printf+0xd08>
40002d0c:	00000000 	nop
40002d10:	3c04ff20 	lui	a0,0xff20
40002d14:	24030025 	li	v1,37
40002d18:	34841000 	ori	a0,a0,0x1000
40002d1c:	ac830000 	sw	v1,0(a0)
40002d20:	80420000 	lb	v0,0(v0)
40002d24:	00000000 	nop
40002d28:	3c04ff20 	lui	a0,0xff20
40002d2c:	3c030001 	lui	v1,0x1
40002d30:	34841004 	ori	a0,a0,0x1004
40002d34:	34630000 	ori	v1,v1,0x0
40002d38:	8c840000 	lw	a0,0(a0)
40002d3c:	00000000 	nop
40002d40:	0083182b 	sltu	v1,a0,v1
40002d44:	1460fff8 	bnez	v1,40002d28 <printf+0xd44>
40002d48:	00000000 	nop
40002d4c:	3c03ff20 	lui	v1,0xff20
40002d50:	34631000 	ori	v1,v1,0x1000
40002d54:	ac620000 	sw	v0,0(v1)
40002d58:	26420001 	addiu	v0,s2,1
40002d5c:	08000807 	j	4000201c <printf+0x38>
40002d60:	00000000 	nop
40002d64:	2405000a 	li	a1,10
40002d68:	14650013 	bne	v1,a1,40002db8 <printf+0xdd4>
40002d6c:	00000000 	nop
40002d70:	16200011 	bnez	s1,40002db8 <printf+0xdd4>
40002d74:	00000000 	nop
40002d78:	3c05ff20 	lui	a1,0xff20
40002d7c:	3c030001 	lui	v1,0x1
40002d80:	34a51004 	ori	a1,a1,0x1004
40002d84:	34630000 	ori	v1,v1,0x0
40002d88:	8ca50000 	lw	a1,0(a1)
40002d8c:	00000000 	nop
40002d90:	00a3182b 	sltu	v1,a1,v1
40002d94:	1460fff8 	bnez	v1,40002d78 <printf+0xd94>
40002d98:	00000000 	nop
40002d9c:	3c05ff20 	lui	a1,0xff20
40002da0:	2403000d 	li	v1,13
40002da4:	34a51000 	ori	a1,a1,0x1000
40002da8:	aca30000 	sw	v1,0(a1)
40002dac:	90830000 	lbu	v1,0(a0)
40002db0:	00000000 	nop
40002db4:	24110000 	li	s1,0
40002db8:	3c05ff20 	lui	a1,0xff20
40002dbc:	3c040001 	lui	a0,0x1
40002dc0:	34a51004 	ori	a1,a1,0x1004
40002dc4:	34840000 	ori	a0,a0,0x0
40002dc8:	8ca50000 	lw	a1,0(a1)
40002dcc:	00000000 	nop
40002dd0:	00a4202b 	sltu	a0,a1,a0
40002dd4:	1480fff8 	bnez	a0,40002db8 <printf+0xdd4>
40002dd8:	00000000 	nop
40002ddc:	00032600 	sll	a0,v1,0x18
40002de0:	3c03ff20 	lui	v1,0xff20
40002de4:	24420001 	addiu	v0,v0,1
40002de8:	00042603 	sra	a0,a0,0x18
40002dec:	34631000 	ori	v1,v1,0x1000
40002df0:	ac640000 	sw	a0,0(v1)
40002df4:	08000807 	j	4000201c <printf+0x38>
40002df8:	00000000 	nop
40002dfc:	24020000 	li	v0,0
40002e00:	8fb00034 	lw	s0,52(sp)
40002e04:	00000000 	nop
40002e08:	8fb10038 	lw	s1,56(sp)
40002e0c:	00000000 	nop
40002e10:	8fb2003c 	lw	s2,60(sp)
40002e14:	00000000 	nop
40002e18:	8fb30040 	lw	s3,64(sp)
40002e1c:	00000000 	nop
40002e20:	8fbf0044 	lw	ra,68(sp)
40002e24:	00000000 	nop
40002e28:	27bd0048 	addiu	sp,sp,72
40002e2c:	03e00008 	jr	ra
40002e30:	00000000 	nop

40002e34 <exit>:
40002e34:	27bdffe8 	addiu	sp,sp,-24
40002e38:	afbf0014 	sw	ra,20(sp)
40002e3c:	00041021 	addu	v0,zero,a0
40002e40:	3c034000 	lui	v1,0x4000
40002e44:	2464323b 	addiu	a0,v1,12859
40002e48:	00022821 	addu	a1,zero,v0
40002e4c:	0c0007f9 	jal	40001fe4 <printf>
40002e50:	00000000 	nop
40002e54:	08000b95 	j	40002e54 <exit+0x20>
40002e58:	00000000 	nop

Disassembly of section .rodata:

40002e5c <bitoff>:
40002e5c:	06060708 	0x6060708
40002e60:	05050505 	0x5050505
40002e64:	04040404 	0x4040404
40002e68:	04040404 	0x4040404
40002e6c:	03030303 	0x3030303
40002e70:	03030303 	0x3030303
40002e74:	03030303 	0x3030303
40002e78:	03030303 	0x3030303
40002e7c:	02020202 	0x2020202
40002e80:	02020202 	0x2020202
40002e84:	02020202 	0x2020202
40002e88:	02020202 	0x2020202
40002e8c:	02020202 	0x2020202
40002e90:	02020202 	0x2020202
40002e94:	02020202 	0x2020202
40002e98:	02020202 	0x2020202
40002e9c:	01010101 	0x1010101
40002ea0:	01010101 	0x1010101
40002ea4:	01010101 	0x1010101
40002ea8:	01010101 	0x1010101
40002eac:	01010101 	0x1010101
40002eb0:	01010101 	0x1010101
40002eb4:	01010101 	0x1010101
40002eb8:	01010101 	0x1010101
40002ebc:	01010101 	0x1010101
40002ec0:	01010101 	0x1010101
40002ec4:	01010101 	0x1010101
40002ec8:	01010101 	0x1010101
40002ecc:	01010101 	0x1010101
40002ed0:	01010101 	0x1010101
40002ed4:	01010101 	0x1010101
40002ed8:	01010101 	0x1010101
	...

40002f5c <inData>:
40002f5c:	2a660051 	slti	a2,s3,81
40002f60:	d7cd0765 	0xd7cd0765
40002f64:	74161dbe 	jalx	405876f8 <utoa.out+0x5842f5>
40002f68:	8de14ffb 	lw	at,20475(t7)
40002f6c:	8b92b5fb 	lwl	s2,-18949(gp)
40002f70:	063c82ef 	0x63c82ef
40002f74:	f3f03d80 	0xf3f03d80
40002f78:	a995bbfb 	swl	s5,-17413(t4)
40002f7c:	cc241a8e 	lwc3	$4,6798(at)
40002f80:	c06f0eeb 	lwc0	c0_prid,3819(v1)
40002f84:	cf15f9db 	lwc3	$21,-1573(t8)
40002f88:	ff3f9621 	0xff3f9621
40002f8c:	125a9c0c 	beq	s2,k0,3ffe9fc0 <mem_size+0x3bfe9fc0>
40002f90:	3ba0891c 	xori	zero,sp,0x891c
40002f94:	2c9afa8f 	sltiu	k0,a0,-1393
40002f98:	137a2c6a 	beq	k1,k0,4000e144 <utoa.out+0xad41>
40002f9c:	f8911ebd 	0xf8911ebd
40002fa0:	841223a3 	lh	s2,9123(zero)
40002fa4:	c8b59d6b 	lwc2	$21,-25237(a1)
40002fa8:	7eab463e 	0x7eab463e
40002fac:	c1c5cf69 	lwc0	$5,-12439(t6)
40002fb0:	1ed8ab8a 	0x1ed8ab8a
40002fb4:	6dd10699 	0x6dd10699
40002fb8:	56730e1f 	0x56730e1f
40002fbc:	b172ea3c 	0xb172ea3c
40002fc0:	23d93063 	addi	t9,s8,12387
40002fc4:	30c0a020 	andi	zero,a2,0xa020
40002fc8:	ba4e542a 	swr	t6,21546(s2)
40002fcc:	4f35cab3 	c3	0x135cab3
40002fd0:	44f42703 	0x44f42703
40002fd4:	bc52d338 	0xbc52d338
40002fd8:	9624d6c8 	lhu	a0,-10552(s1)
40002fdc:	6bdc00cf 	0x6bdc00cf
40002fe0:	1bff09d5 	0x1bff09d5
40002fe4:	a8578bda 	swl	s7,-29734(v0)
40002fe8:	f6c07557 	0xf6c07557
40002fec:	012c320d 	break	0x12c,0xc8
40002ff0:	237f9c2d 	addi	ra,k1,-25555
40002ff4:	e661715e 	swc1	$f1,29022(s3)
40002ff8:	c7f5b0a9 	lwc1	$f21,-20311(ra)
40002ffc:	ab33e27d 	swl	s3,-7555(t9)
40003000:	8a7ef1a4 	lwl	s8,-3676(s3)
40003004:	86fdf38a 	lh	sp,-3190(s7)
40003008:	69f62184 	0x69f62184
4000300c:	ee050d56 	swc3	$5,3414(s0)
40003010:	bd09a8e1 	0xbd09a8e1
40003014:	fbb835dc 	0xfbb835dc
40003018:	5637c6e7 	0x5637c6e7
4000301c:	7f86cb10 	0x7f86cb10
40003020:	dee74131 	0xdee74131
40003024:	2907ce43 	slti	a3,t0,-12733
40003028:	1a285109 	0x1a285109
4000302c:	86d99726 	lh	t9,-26842(s6)
40003030:	b2680ed0 	0xb2680ed0
40003034:	899db031 	lwl	sp,-20431(t4)
40003038:	cc4b7ea5 	lwc3	$11,32421(v0)
4000303c:	4749232e 	c1	0x149232e
40003040:	e0c40963 	swc0	c0_context,2403(a2)
40003044:	e91cc615 	swc2	$28,-14827(t0)
40003048:	74791bd2 	jalx	41e46f48 <utoa.out+0x1e43b45>
4000304c:	4623836a 	c1	0x23836a
40003050:	85bf70a4 	lh	ra,28836(t5)
40003054:	94927c4d 	lhu	s2,31821(a0)
40003058:	ea2d2ff4 	swc2	$13,12276(s1)
4000305c:	23e8a9a7 	addi	t0,ra,-22105
40003060:	3d3ba7eb 	0x3d3ba7eb
40003064:	1c2cd017 	0x1c2cd017
40003068:	cdc8a33b 	lwc3	$8,-23749(t6)
4000306c:	1d61e91f 	0x1d61e91f
40003070:	35cd43c5 	ori	t5,t6,0x43c5
40003074:	ba6cf3ed 	swr	t4,-3091(s3)
40003078:	682bda49 	0x682bda49
4000307c:	09b71ede 	j	46dc7b78 <__stack_top+0x2dc7b78>
40003080:	72e40c69 	0x72e40c69
40003084:	f528b100 	0xf528b100
40003088:	e0e55e14 	swc0	$5,24084(a3)
4000308c:	d15ed73a 	0xd15ed73a
40003090:	e5fec60f 	swc1	$f30,-14833(t7)
40003094:	0fb47d3a 	jal	4ed1f4e8 <__stack_top+0xad1f4e8>
40003098:	3b3728dd 	xori	s7,t9,0x28dd

4000309c <outData>:
4000309c:	2a600050 	slti	zero,s3,80
400030a0:	d7d00760 	0xd7d00760
400030a4:	74101dc0 	jalx	40407700 <utoa.out+0x4042fd>
400030a8:	8de05000 	lw	zero,20480(t7)
400030ac:	8b90b600 	lwl	s0,-18944(gp)
400030b0:	064082f0 	bltz	s2,3ffe3c74 <mem_size+0x3bfe3c74>
400030b4:	f3f03d80 	0xf3f03d80
400030b8:	a990bc00 	swl	s0,-17408(t4)
400030bc:	cc201a90 	lwc3	$0,6800(at)
400030c0:	c0700ef0 	lwc0	$16,3824(v1)
400030c4:	cf10f9e0 	lwc3	$16,-1568(t8)
400030c8:	ff409620 	0xff409620
400030cc:	12609c10 	beqz	s3,3ffea110 <mem_size+0x3bfea110>
400030d0:	3ba08920 	xori	zero,sp,0x8920
400030d4:	2ca0fa90 	sltiu	zero,a1,-1392
400030d8:	13802c70 	beqz	gp,4000e29c <utoa.out+0xae99>
400030dc:	f8901ec0 	0xf8901ec0
400030e0:	841023a0 	lh	s0,9120(zero)
400030e4:	c8b09d70 	lwc2	$16,-25232(a1)
400030e8:	7eb04640 	0x7eb04640
400030ec:	c1c0cf70 	lwc0	c0_index,-12432(t6)
400030f0:	1ee0ab90 	bgtz	s7,3ffedf34 <mem_size+0x3bfedf34>
400030f4:	6dd006a0 	0x6dd006a0
400030f8:	56700e20 	0x56700e20
400030fc:	b170ea40 	0xb170ea40
40003100:	23e03060 	addi	zero,ra,12384
40003104:	30c0a020 	andi	zero,a2,0xa020
40003108:	ba505430 	swr	s0,21552(s2)
4000310c:	4f30cab0 	c3	0x130cab0
40003110:	44f02700 	0x44f02700
40003114:	bc50d340 	0xbc50d340
40003118:	9620d6d0 	lhu	zero,-10544(s1)
4000311c:	6be000d0 	0x6be000d0
40003120:	1c0009d0 	bgtz	zero,40005864 <utoa.out+0x2461>
40003124:	a8508be0 	swl	s0,-29728(v0)
40003128:	f6c07550 	0xf6c07550
4000312c:	01303210 	0x1303210
40003130:	23809c30 	addi	zero,gp,-25552
40003134:	e6607160 	swc1	$f0,29024(s3)
40003138:	c7f0b0b0 	lwc1	$f16,-20304(ra)
4000313c:	ab30e280 	swl	s0,-7552(t9)
40003140:	8a80f1a0 	lwl	zero,-3680(s4)
40003144:	8700f390 	lh	zero,-3184(t8)
40003148:	69f02180 	0x69f02180
4000314c:	ee000d50 	swc3	$0,3408(s0)
40003150:	bd10a8e0 	0xbd10a8e0
40003154:	fbc035e0 	0xfbc035e0
40003158:	5630c6e0 	0x5630c6e0
4000315c:	7f80cb10 	0x7f80cb10
40003160:	dee04130 	0xdee04130
40003164:	2900ce40 	slti	zero,t0,-12736
40003168:	1a305110 	0x1a305110
4000316c:	86e09720 	lh	zero,-26848(s7)
40003170:	b2700ed0 	0xb2700ed0
40003174:	89a0b030 	lwl	zero,-20432(t5)
40003178:	cc507ea0 	lwc3	$16,32416(v0)
4000317c:	47502330 	c1	0x1502330
40003180:	e0c00960 	swc0	c0_index,2400(a2)
40003184:	e920c610 	swc2	$0,-14832(t1)
40003188:	74801bd0 	jalx	42006f40 <utoa.out+0x2003b3d>
4000318c:	46208370 	c1	0x208370
40003190:	85c070a0 	lh	zero,28832(t6)
40003194:	94907c50 	lhu	s0,31824(a0)
40003198:	ea302ff0 	swc2	$16,12272(s1)
4000319c:	23f0a9a0 	addi	s0,ra,-22112
400031a0:	3d40a7f0 	0x3d40a7f0
400031a4:	1c30d010 	0x1c30d010
400031a8:	cdd0a340 	lwc3	$16,-23744(t6)
400031ac:	1d60e920 	bgtz	t3,3fffd630 <mem_size+0x3bffd630>
400031b0:	35d043c0 	ori	s0,t6,0x43c0
400031b4:	ba70f3f0 	swr	s0,-3088(s3)
400031b8:	6830da50 	0x6830da50
400031bc:	09b01ee0 	j	46c07b80 <__stack_top+0x2c07b80>
400031c0:	72e00c70 	0x72e00c70
400031c4:	f530b100 	0xf530b100
400031c8:	e0e05e10 	swc0	c0_index,24080(a3)
400031cc:	d160d740 	0xd160d740
400031d0:	e600c610 	swc1	$f0,-14832(s0)
400031d4:	0fb07d40 	jal	4ec1f500 <__stack_top+0xac1f500>
400031d8:	3b3028e0 	xori	s0,t9,0x28e0
400031dc:	4000236c 	0x4000236c
400031e0:	400021dc 	0x400021dc
400031e4:	40002cec 	0x40002cec
400031e8:	40002cec 	0x40002cec
400031ec:	40002cec 	0x40002cec
400031f0:	400029b0 	0x400029b0
400031f4:	40002cec 	0x40002cec
400031f8:	40002cec 	0x40002cec
400031fc:	40002cec 	0x40002cec
40003200:	400025cc 	0x400025cc

Disassembly of section .rodata.cst16:

40003204 <outLARc>:
40003204:	00210020 	add	zero,at,at
40003208:	000d0016 	0xd0016
4000320c:	00050007 	srav	zero,a1,zero
40003210:	00020003 	sra	zero,v0,0x0

Disassembly of section .rodata.str1.1:

40003214 <.rodata.str1.1>:
40003214:	75736552 	jalx	45cd9548 <__stack_top+0x1cd9548>
40003218:	203a746c 	addi	k0,at,29804
4000321c:	52006425 	0x52006425
40003220:	4c555345 	0x4c555345
40003224:	50203a54 	0x50203a54
40003228:	00535341 	0x535341
4000322c:	55534552 	0x55534552
40003230:	203a544c 	addi	k0,at,21580
40003234:	4c494146 	0x4c494146
40003238:	70003000 	0x70003000
4000323c:	72676f72 	0x72676f72
40003240:	72206d61 	0x72206d61
40003244:	72757465 	0x72757465
40003248:	2064656e 	addi	a0,v1,25966
4000324c:	65206425 	0x65206425
40003250:	20746978 	addi	s4,v1,27000
40003254:	74617473 	jalx	4185d1cc <utoa.out+0x1859dc9>
40003258:	000a7375 	0xa7375

Disassembly of section .eh_frame:

4000325c <.eh_frame>:
4000325c:	00000010 	mfhi	zero
40003260:	00000000 	nop
40003264:	00527a01 	0x527a01
40003268:	011f7c01 	0x11f7c01
4000326c:	001d0d0b 	0x1d0d0b
40003270:	00000024 	and	zero,zero,zero
40003274:	00000018 	mult	zero,zero
40003278:	40000020 	0x40000020
4000327c:	000013a4 	0x13a4
40003280:	f00e4400 	0xf00e4400
40003284:	019f6403 	0x19f6403
40003288:	03960297 	0x3960297
4000328c:	05940495 	0x5940495
40003290:	07920693 	0x7920693
40003294:	09900891 	j	46402244 <__stack_top+0x2402244>
40003298:	00000010 	mfhi	zero
4000329c:	00000040 	ssnop
400032a0:	40001408 	0x40001408
400032a4:	00000038 	0x38
400032a8:	00000000 	nop
400032ac:	00000010 	mfhi	zero
400032b0:	00000054 	0x54
400032b4:	40001440 	0x40001440
400032b8:	00000068 	0x68
400032bc:	00000000 	nop
400032c0:	00000010 	mfhi	zero
400032c4:	00000068 	0x68
400032c8:	400014a8 	0x400014a8
400032cc:	00000030 	0x30
400032d0:	00000000 	nop
400032d4:	00000010 	mfhi	zero
400032d8:	0000007c 	0x7c
400032dc:	400014d8 	0x400014d8
400032e0:	00000030 	0x30
400032e4:	00000000 	nop
400032e8:	00000020 	add	zero,zero,zero
400032ec:	00000090 	0x90
400032f0:	40001508 	0x40001508
400032f4:	0000011c 	0x11c
400032f8:	380e4400 	xori	t6,zero,0x4400
400032fc:	94019f58 	lhu	at,-24744(zero)
40003300:	92039302 	lbu	v1,-27902(s0)
40003304:	90059104 	lbu	a1,-28412(zero)
40003308:	00000006 	srlv	zero,zero,zero
4000330c:	00000020 	add	zero,zero,zero
40003310:	000000b4 	0xb4
40003314:	40001624 	0x40001624
40003318:	0000014c 	syscall	0x5
4000331c:	400e4400 	0x400e4400
40003320:	95019f5c 	lhu	at,-24740(t0)
40003324:	93039402 	lbu	v1,-27646(t8)
40003328:	91059204 	lbu	a1,-28156(t0)
4000332c:	00079006 	srlv	s2,a3,zero
40003330:	00000024 	and	zero,zero,zero
40003334:	000000d8 	0xd8
40003338:	40001770 	0x40001770
4000333c:	00000438 	0x438
40003340:	280e4400 	slti	t6,zero,17408
40003344:	96019760 	lhu	at,-26784(s0)
40003348:	94039502 	lhu	v1,-27390(zero)
4000334c:	92059304 	lbu	a1,-27900(s0)
40003350:	90079106 	lbu	a3,-28410(zero)
40003354:	00000008 	jr	zero
40003358:	00000020 	add	zero,zero,zero
4000335c:	00000100 	sll	zero,zero,0x4
40003360:	40001ba8 	0x40001ba8
40003364:	00000334 	0x334
40003368:	180e4400 	0x180e4400
4000336c:	94019558 	lhu	at,-27304(zero)
40003370:	92039302 	lbu	v1,-27902(s0)
40003374:	90059104 	lbu	a1,-28412(zero)
40003378:	00000006 	srlv	zero,zero,zero
4000337c:	00000010 	mfhi	zero
40003380:	00000124 	0x124
40003384:	40001edc 	0x40001edc
40003388:	00000108 	0x108
4000338c:	00000000 	nop
40003390:	0000001c 	0x1c
40003394:	00000138 	0x138
40003398:	40001fe4 	0x40001fe4
4000339c:	00000e50 	0xe50
400033a0:	480e4400 	0x480e4400
400033a4:	93019f54 	lbu	at,-24748(t8)
400033a8:	91039202 	lbu	v1,-28158(t0)
400033ac:	00059004 	sllv	s2,a1,zero
400033b0:	00000014 	0x14
400033b4:	00000158 	0x158
400033b8:	40002e34 	0x40002e34
400033bc:	00000028 	0x28
400033c0:	180e4400 	0x180e4400
400033c4:	00019f44 	0x19f44

Disassembly of section .bss:

400033c8 <i2h.hex>:
	...

400033d1 <l2h.hex>:
	...

400033e2 <itoa.buf>:
	...

400033ed <itoa.out>:
	...

400033f8 <utoa.buf>:
	...

40003403 <utoa.out>:
	...

Disassembly of section .reginfo:

00000000 <.reginfo>:
   0:	a0000000 	sb	zero,0(zero)
	...

Disassembly of section .pdr:

00000000 <.pdr>:
   0:	40000020 	0x40000020
   4:	80ff0000 	lb	ra,0(a3)
   8:	fffffffc 	0xfffffffc
	...
  14:	000001f0 	0x1f0
  18:	0000001d 	0x1d
  1c:	0000001f 	0x1f
  20:	400013c4 	0x400013c4
	...
  38:	0000001d 	0x1d
  3c:	0000001f 	0x1f
  40:	400013e0 	0x400013e0
	...
  58:	0000001d 	0x1d
  5c:	0000001f 	0x1f
  60:	40001408 	0x40001408
	...
  78:	0000001d 	0x1d
  7c:	0000001f 	0x1f
  80:	40001440 	0x40001440
	...
  98:	0000001d 	0x1d
  9c:	0000001f 	0x1f
  a0:	400014a8 	0x400014a8
	...
  b8:	0000001d 	0x1d
  bc:	0000001f 	0x1f
  c0:	400014d8 	0x400014d8
	...
  d8:	0000001d 	0x1d
  dc:	0000001f 	0x1f
  e0:	40001508 	0x40001508
  e4:	801f0000 	lb	ra,0(zero)
  e8:	fffffffc 	0xfffffffc
	...
  f4:	00000038 	0x38
  f8:	0000001d 	0x1d
  fc:	0000001f 	0x1f
 100:	40001624 	0x40001624
 104:	803f0000 	lb	ra,0(at)
 108:	fffffffc 	0xfffffffc
	...
 114:	00000040 	ssnop
 118:	0000001d 	0x1d
 11c:	0000001f 	0x1f
 120:	40001770 	0x40001770
 124:	00ff0000 	0xff0000
 128:	fffffffc 	0xfffffffc
	...
 134:	00000028 	0x28
 138:	0000001d 	0x1d
 13c:	0000001f 	0x1f
 140:	40001ba8 	0x40001ba8
 144:	003f0000 	0x3f0000
 148:	fffffffc 	0xfffffffc
	...
 154:	00000018 	mult	zero,zero
 158:	0000001d 	0x1d
 15c:	0000001f 	0x1f
 160:	40001edc 	0x40001edc
	...
 178:	0000001d 	0x1d
 17c:	0000001f 	0x1f
 180:	40001fe4 	0x40001fe4
 184:	800f0000 	lb	t7,0(zero)
 188:	fffffffc 	0xfffffffc
	...
 194:	00000048 	0x48
 198:	0000001d 	0x1d
 19c:	0000001f 	0x1f
 1a0:	40002e34 	0x40002e34
 1a4:	80000000 	lb	zero,0(zero)
 1a8:	fffffffc 	0xfffffffc
	...
 1b4:	00000018 	mult	zero,zero
 1b8:	0000001d 	0x1d
 1bc:	0000001f 	0x1f

Disassembly of section .comment:

00000000 <.comment>:
   0:	3a434347 	xori	v1,s2,0x4347
   4:	72632820 	0x72632820
   8:	7473736f 	jalx	1cdcdbc <mem_size-0x2323244>
   c:	2d6c6f6f 	sltiu	t4,t3,28527
  10:	3120474e 	andi	zero,t1,0x474e
  14:	2e30322e 	sltiu	s0,s1,12846
  18:	34202930 	ori	zero,at,0x2930
  1c:	322e382e 	andi	t6,s1,0x382e
	...

Disassembly of section .gnu.attributes:

00000000 <.gnu.attributes>:
   0:	00000f41 	0xf41
   4:	756e6700 	jalx	5b99c00 <mem_size+0x1b99c00>
   8:	00070100 	sll	zero,a3,0x4
   c:	03040000 	0x3040000
